
hub/bin/hub.elf:     file format elf32-littlearm

Sections:
Idx Name          Size      VMA       LMA       File off  Algn
  0 .text         000030d0  08004000  08004000  00000098  2**3
                  CONTENTS, ALLOC, LOAD, READONLY, CODE
  1 .preinit_array 00000000  080070d0  080070d0  000032a8  2**0
                  CONTENTS, ALLOC, LOAD, DATA
  2 .init_array   00000000  080070d0  080070d0  000032a8  2**0
                  CONTENTS, ALLOC, LOAD, DATA
  3 .fini_array   00000000  080070d0  080070d0  000032a8  2**0
                  CONTENTS, ALLOC, LOAD, DATA
  4 .data         00000140  20000000  080070d0  00003168  2**2
                  CONTENTS, ALLOC, LOAD, CODE
  5 .bss          00000450  20000140  08007210  000032a8  2**2
                  ALLOC
  6 ._user_heap_stack 00001000  20000590  08007210  000032a8  2**0
                  ALLOC
  7 .ARM.attributes 0000002a  00000000  00000000  000032a8  2**0
                  CONTENTS, READONLY
  8 .debug_info   00019414  00000000  00000000  000032d2  2**0
                  CONTENTS, READONLY, DEBUGGING, OCTETS
  9 .debug_abbrev 000044c7  00000000  00000000  0001c6e6  2**0
                  CONTENTS, READONLY, DEBUGGING, OCTETS
 10 .debug_loc    0000743c  00000000  00000000  00020bad  2**0
                  CONTENTS, READONLY, DEBUGGING, OCTETS
 11 .debug_aranges 00001260  00000000  00000000  00027fe9  2**0
                  CONTENTS, READONLY, DEBUGGING, OCTETS
 12 .debug_ranges 00001370  00000000  00000000  00029249  2**0
                  CONTENTS, READONLY, DEBUGGING, OCTETS
 13 .debug_macro  00006f4b  00000000  00000000  0002a5b9  2**0
                  CONTENTS, READONLY, DEBUGGING, OCTETS
 14 .debug_line   0000feef  00000000  00000000  00031504  2**0
                  CONTENTS, READONLY, DEBUGGING, OCTETS
 15 .debug_str    00023eae  00000000  00000000  000413f3  2**0
                  CONTENTS, READONLY, DEBUGGING, OCTETS
 16 .comment      0000004c  00000000  00000000  000652a1  2**0
                  CONTENTS, READONLY
 17 .debug_frame  00002c4c  00000000  00000000  000652f0  2**2
                  CONTENTS, READONLY, DEBUGGING, OCTETS

Disassembly of section .text:

08004000 <vector_table>:
 8004000:	00 20 00 20 11 67 00 08 ed 44 00 08 fd 44 00 08     . . .g...D...D..
	...
 800402c:	0f 67 00 08 00 00 00 00 00 00 00 00 0f 67 00 08     .g...........g..
 800403c:	0f 67 00 08 0d 67 00 08 0d 67 00 08 7d 50 00 08     .g...g...g..}P..
 800404c:	0d 67 00 08 0d 67 00 08 0d 67 00 08 0d 67 00 08     .g...g...g...g..
 800405c:	95 4c 00 08 0d 67 00 08 0d 67 00 08 0d 67 00 08     .L...g...g...g..
 800406c:	0d 67 00 08 45 45 00 08 0d 67 00 08 0d 67 00 08     .g..EE...g...g..
 800407c:	0d 67 00 08 0d 67 00 08 0d 67 00 08 0d 67 00 08     .g...g...g...g..
 800408c:	0d 67 00 08 0d 67 00 08 0d 67 00 08 0d 67 00 08     .g...g...g...g..
 800409c:	0d 67 00 08 0d 67 00 08 0d 67 00 08 0d 67 00 08     .g...g...g...g..
 80040ac:	0d 67 00 08 0d 45 00 08 0d 67 00 08 0d 67 00 08     .g...E...g...g..
 80040bc:	61 43 00 08                                         aC..

080040c0 <cusb_reset_callback>:
// USB Callback Function Definitions
/*////////////////////////////////////////////////////////////////////////////*/

static void cusb_reset_callback(void)
{
    usb_state = RESET;
 80040c0:	4b01      	ldr	r3, [pc, #4]	; (80040c8 <cusb_reset_callback+0x8>)
 80040c2:	2200      	movs	r2, #0
 80040c4:	701a      	strb	r2, [r3, #0]
}
 80040c6:	4770      	bx	lr
 80040c8:	20000142 	.word	0x20000142

080040cc <hid_control_request>:
                                                          void (**complete)(usbd_device *, struct usb_setup_data *))
{
    (void)complete;
    (void)dev;

    if ((req->bmRequestType != 0x81) ||
 80040cc:	7808      	ldrb	r0, [r1, #0]
 80040ce:	2881      	cmp	r0, #129	; 0x81
 80040d0:	d110      	bne.n	80040f4 <hid_control_request+0x28>
        (req->bRequest != USB_REQ_GET_DESCRIPTOR) ||
 80040d2:	7848      	ldrb	r0, [r1, #1]
    if ((req->bmRequestType != 0x81) ||
 80040d4:	2806      	cmp	r0, #6
 80040d6:	d10f      	bne.n	80040f8 <hid_control_request+0x2c>
        (req->wValue != 0x2200))
 80040d8:	7888      	ldrb	r0, [r1, #2]
 80040da:	78c9      	ldrb	r1, [r1, #3]
 80040dc:	0209      	lsls	r1, r1, #8
 80040de:	4301      	orrs	r1, r0
        (req->bRequest != USB_REQ_GET_DESCRIPTOR) ||
 80040e0:	2088      	movs	r0, #136	; 0x88
 80040e2:	0180      	lsls	r0, r0, #6
 80040e4:	4281      	cmp	r1, r0
 80040e6:	d109      	bne.n	80040fc <hid_control_request+0x30>
        return USBD_REQ_NOTSUPP;

    //  Handle the HID report descriptor.
    *buf = (uint8_t *)hid_report_descriptor;
 80040e8:	4905      	ldr	r1, [pc, #20]	; (8004100 <hid_control_request+0x34>)
 80040ea:	6011      	str	r1, [r2, #0]
    *len = sizeof(hid_report_descriptor);
 80040ec:	2219      	movs	r2, #25
 80040ee:	801a      	strh	r2, [r3, #0]

    return USBD_REQ_HANDLED;
 80040f0:	2001      	movs	r0, #1
 80040f2:	e000      	b.n	80040f6 <hid_control_request+0x2a>
        return USBD_REQ_NOTSUPP;
 80040f4:	2000      	movs	r0, #0
}
 80040f6:	4770      	bx	lr
        return USBD_REQ_NOTSUPP;
 80040f8:	2000      	movs	r0, #0
 80040fa:	e7fc      	b.n	80040f6 <hid_control_request+0x2a>
 80040fc:	2000      	movs	r0, #0
 80040fe:	e7fa      	b.n	80040f6 <hid_control_request+0x2a>
 8004100:	08006d38 	.word	0x08006d38

08004104 <hid_set_config>:
{
 8004104:	b510      	push	{r4, lr}
 8004106:	b082      	sub	sp, #8
 8004108:	0004      	movs	r4, r0
    usbd_ep_setup(dev, ENDPOINT_HID_IN, USB_ENDPOINT_ATTR_INTERRUPT, 64, hid_in_report_callback);
 800410a:	4b0d      	ldr	r3, [pc, #52]	; (8004140 <hid_set_config+0x3c>)
 800410c:	9300      	str	r3, [sp, #0]
 800410e:	2340      	movs	r3, #64	; 0x40
 8004110:	2203      	movs	r2, #3
 8004112:	2181      	movs	r1, #129	; 0x81
 8004114:	f001 fafa 	bl	800570c <usbd_ep_setup>
    usbd_ep_setup(dev, ENDPOINT_HID_OUT, USB_ENDPOINT_ATTR_INTERRUPT, 64, hid_out_report_callback);
 8004118:	4b0a      	ldr	r3, [pc, #40]	; (8004144 <hid_set_config+0x40>)
 800411a:	9300      	str	r3, [sp, #0]
 800411c:	2340      	movs	r3, #64	; 0x40
 800411e:	2203      	movs	r2, #3
 8004120:	2101      	movs	r1, #1
 8004122:	0020      	movs	r0, r4
 8004124:	f001 faf2 	bl	800570c <usbd_ep_setup>
    usbd_register_control_callback(
 8004128:	4b07      	ldr	r3, [pc, #28]	; (8004148 <hid_set_config+0x44>)
 800412a:	227f      	movs	r2, #127	; 0x7f
 800412c:	2101      	movs	r1, #1
 800412e:	0020      	movs	r0, r4
 8004130:	f001 fbe7 	bl	8005902 <usbd_register_control_callback>
    usb_state = CONNECTED;
 8004134:	4b05      	ldr	r3, [pc, #20]	; (800414c <hid_set_config+0x48>)
 8004136:	2201      	movs	r2, #1
 8004138:	701a      	strb	r2, [r3, #0]
}
 800413a:	b002      	add	sp, #8
 800413c:	bd10      	pop	{r4, pc}
 800413e:	46c0      	nop			; (mov r8, r8)
 8004140:	080041a5 	.word	0x080041a5
 8004144:	08004151 	.word	0x08004151
 8004148:	080040cd 	.word	0x080040cd
 800414c:	20000142 	.word	0x20000142

08004150 <hid_out_report_callback>:
        }
    }
}

static void hid_out_report_callback(usbd_device *dev, uint8_t ea)
{
 8004150:	b5f0      	push	{r4, r5, r6, r7, lr}
 8004152:	b087      	sub	sp, #28
 8004154:	0005      	movs	r5, r0
 8004156:	000e      	movs	r6, r1
    // serial_printf("G");

    // Have to write a packet back here to begin IN transactions
    uint8_t buf[] = "Out Report Callback\n";
 8004158:	466a      	mov	r2, sp
 800415a:	4b0f      	ldr	r3, [pc, #60]	; (8004198 <hid_out_report_callback+0x48>)
 800415c:	0014      	movs	r4, r2
 800415e:	cb83      	ldmia	r3!, {r0, r1, r7}
 8004160:	c483      	stmia	r4!, {r0, r1, r7}
 8004162:	cb03      	ldmia	r3!, {r0, r1}
 8004164:	c403      	stmia	r4!, {r0, r1}
 8004166:	781b      	ldrb	r3, [r3, #0]
 8004168:	7023      	strb	r3, [r4, #0]
    usbd_ep_write_packet(dev, ea, buf, HID_REPORT_SIZE);
 800416a:	2340      	movs	r3, #64	; 0x40
 800416c:	0031      	movs	r1, r6
 800416e:	0028      	movs	r0, r5
 8004170:	f001 faec 	bl	800574c <usbd_ep_write_packet>

    usbd_ep_read_packet(dev, ea, hid_report_buf, HID_REPORT_SIZE);
 8004174:	4c09      	ldr	r4, [pc, #36]	; (800419c <hid_out_report_callback+0x4c>)
 8004176:	2340      	movs	r3, #64	; 0x40
 8004178:	0022      	movs	r2, r4
 800417a:	0031      	movs	r1, r6
 800417c:	0028      	movs	r0, r5
 800417e:	f001 faec 	bl	800575a <usbd_ep_read_packet>
    uint8_t command = hid_report_buf[0];
 8004182:	7823      	ldrb	r3, [r4, #0]

    // serial_printf("Out Report command: %i data: %s\n", command, &hid_report_buf[4]);

    // Get Log
    if (command == 1)
 8004184:	2b01      	cmp	r3, #1
 8004186:	d001      	beq.n	800418c <hid_out_report_callback+0x3c>
    {
        usb_state = GET_LOG;
        log_read_reset();
    }
}
 8004188:	b007      	add	sp, #28
 800418a:	bdf0      	pop	{r4, r5, r6, r7, pc}
        usb_state = GET_LOG;
 800418c:	4b04      	ldr	r3, [pc, #16]	; (80041a0 <hid_out_report_callback+0x50>)
 800418e:	2202      	movs	r2, #2
 8004190:	701a      	strb	r2, [r3, #0]
        log_read_reset();
 8004192:	f000 fb67 	bl	8004864 <log_read_reset>
}
 8004196:	e7f7      	b.n	8004188 <hid_out_report_callback+0x38>
 8004198:	08006c68 	.word	0x08006c68
 800419c:	20000000 	.word	0x20000000
 80041a0:	20000142 	.word	0x20000142

080041a4 <hid_in_report_callback>:
{
 80041a4:	b570      	push	{r4, r5, r6, lr}
 80041a6:	0005      	movs	r5, r0
 80041a8:	000e      	movs	r6, r1
    if (usb_state == GET_LOG)
 80041aa:	4b12      	ldr	r3, [pc, #72]	; (80041f4 <hid_in_report_callback+0x50>)
 80041ac:	781b      	ldrb	r3, [r3, #0]
 80041ae:	2b02      	cmp	r3, #2
 80041b0:	d01d      	beq.n	80041ee <hid_in_report_callback+0x4a>
}
 80041b2:	bd70      	pop	{r4, r5, r6, pc}
            hid_report_buf[i] = log_read();
 80041b4:	f000 fb5c 	bl	8004870 <log_read>
 80041b8:	4b0f      	ldr	r3, [pc, #60]	; (80041f8 <hid_in_report_callback+0x54>)
 80041ba:	5518      	strb	r0, [r3, r4]
        for (uint16_t i = 0; i < HID_REPORT_SIZE; i++)
 80041bc:	3401      	adds	r4, #1
 80041be:	b2a4      	uxth	r4, r4
 80041c0:	2c3f      	cmp	r4, #63	; 0x3f
 80041c2:	d9f7      	bls.n	80041b4 <hid_in_report_callback+0x10>
        bytes_sent += HID_REPORT_SIZE;
 80041c4:	4c0d      	ldr	r4, [pc, #52]	; (80041fc <hid_in_report_callback+0x58>)
 80041c6:	8823      	ldrh	r3, [r4, #0]
 80041c8:	3340      	adds	r3, #64	; 0x40
 80041ca:	8023      	strh	r3, [r4, #0]
        usbd_ep_write_packet(dev, ea, hid_report_buf, HID_REPORT_SIZE);
 80041cc:	2340      	movs	r3, #64	; 0x40
 80041ce:	4a0a      	ldr	r2, [pc, #40]	; (80041f8 <hid_in_report_callback+0x54>)
 80041d0:	0031      	movs	r1, r6
 80041d2:	0028      	movs	r0, r5
 80041d4:	f001 faba 	bl	800574c <usbd_ep_write_packet>
        if(bytes_sent >= logger.size)
 80041d8:	4b09      	ldr	r3, [pc, #36]	; (8004200 <hid_in_report_callback+0x5c>)
 80041da:	881a      	ldrh	r2, [r3, #0]
 80041dc:	8823      	ldrh	r3, [r4, #0]
 80041de:	429a      	cmp	r2, r3
 80041e0:	d8e7      	bhi.n	80041b2 <hid_in_report_callback+0xe>
            usb_state = RESET;
 80041e2:	2300      	movs	r3, #0
 80041e4:	4a03      	ldr	r2, [pc, #12]	; (80041f4 <hid_in_report_callback+0x50>)
 80041e6:	7013      	strb	r3, [r2, #0]
            bytes_sent = 0;
 80041e8:	4a04      	ldr	r2, [pc, #16]	; (80041fc <hid_in_report_callback+0x58>)
 80041ea:	8013      	strh	r3, [r2, #0]
}
 80041ec:	e7e1      	b.n	80041b2 <hid_in_report_callback+0xe>
        for (uint16_t i = 0; i < HID_REPORT_SIZE; i++)
 80041ee:	2400      	movs	r4, #0
 80041f0:	e7e6      	b.n	80041c0 <hid_in_report_callback+0x1c>
 80041f2:	46c0      	nop			; (mov r8, r8)
 80041f4:	20000142 	.word	0x20000142
 80041f8:	20000000 	.word	0x20000000
 80041fc:	20000140 	.word	0x20000140
 8004200:	200002dc 	.word	0x200002dc

08004204 <cusb_clock_init>:
{
 8004204:	b510      	push	{r4, lr}
    flash_set_ws(FLASH_ACR_LATENCY_0WS);
 8004206:	2000      	movs	r0, #0
 8004208:	f000 ff68 	bl	80050dc <flash_set_ws>
    rcc_osc_on(RCC_HSI16);
 800420c:	2003      	movs	r0, #3
 800420e:	f001 f871 	bl	80052f4 <rcc_osc_on>
    rcc_wait_for_osc_ready(RCC_HSI16);
 8004212:	2003      	movs	r0, #3
 8004214:	f001 f8f2 	bl	80053fc <rcc_wait_for_osc_ready>
    rcc_set_sysclk_source(RCC_HSI16);
 8004218:	2003      	movs	r0, #3
 800421a:	f001 f901 	bl	8005420 <rcc_set_sysclk_source>
    RCC_CFGR |= RCC_CFGR_STOPWUCK_HSI16;
 800421e:	4a1f      	ldr	r2, [pc, #124]	; (800429c <cusb_clock_init+0x98>)
 8004220:	6811      	ldr	r1, [r2, #0]
 8004222:	2380      	movs	r3, #128	; 0x80
 8004224:	021b      	lsls	r3, r3, #8
 8004226:	430b      	orrs	r3, r1
 8004228:	6013      	str	r3, [r2, #0]
    rcc_set_hpre(RCC_CFGR_HPRE_NODIV);   //  AHB -> 16Mhz
 800422a:	2000      	movs	r0, #0
 800422c:	f001 f936 	bl	800549c <rcc_set_hpre>
    rcc_set_ppre1(RCC_CFGR_PPRE1_NODIV); //  APB1 ->16Mhz
 8004230:	2000      	movs	r0, #0
 8004232:	f001 f91b 	bl	800546c <rcc_set_ppre1>
    rcc_set_ppre2(RCC_CFGR_PPRE2_NODIV); //  APB2 ->16Mhz
 8004236:	2000      	movs	r0, #0
 8004238:	f001 f924 	bl	8005484 <rcc_set_ppre2>
    rcc_ahb_frequency = 16000000;
 800423c:	4b18      	ldr	r3, [pc, #96]	; (80042a0 <cusb_clock_init+0x9c>)
 800423e:	4a19      	ldr	r2, [pc, #100]	; (80042a4 <cusb_clock_init+0xa0>)
 8004240:	6013      	str	r3, [r2, #0]
    rcc_apb1_frequency = 16000000;
 8004242:	4a19      	ldr	r2, [pc, #100]	; (80042a8 <cusb_clock_init+0xa4>)
 8004244:	6013      	str	r3, [r2, #0]
    rcc_apb2_frequency = 16000000;
 8004246:	4a19      	ldr	r2, [pc, #100]	; (80042ac <cusb_clock_init+0xa8>)
 8004248:	6013      	str	r3, [r2, #0]
    rcc_periph_clock_enable(RCC_SYSCFG);
 800424a:	20d0      	movs	r0, #208	; 0xd0
 800424c:	00c0      	lsls	r0, r0, #3
 800424e:	f001 f965 	bl	800551c <rcc_periph_clock_enable>
    SYSCFG_CFGR3 |= 0x01;
 8004252:	4a17      	ldr	r2, [pc, #92]	; (80042b0 <cusb_clock_init+0xac>)
 8004254:	6813      	ldr	r3, [r2, #0]
 8004256:	2101      	movs	r1, #1
 8004258:	430b      	orrs	r3, r1
 800425a:	6013      	str	r3, [r2, #0]
    while (!(SYSCFG_CFGR3 & SYSCFG_CFGR3_VREFINT_RDYF))
 800425c:	4b14      	ldr	r3, [pc, #80]	; (80042b0 <cusb_clock_init+0xac>)
 800425e:	681b      	ldr	r3, [r3, #0]
 8004260:	005b      	lsls	r3, r3, #1
 8004262:	d5fb      	bpl.n	800425c <cusb_clock_init+0x58>
    SYSCFG_CFGR3 |= SYSCFG_CFGR3_ENREF_HSI48;
 8004264:	4a12      	ldr	r2, [pc, #72]	; (80042b0 <cusb_clock_init+0xac>)
 8004266:	6811      	ldr	r1, [r2, #0]
 8004268:	2380      	movs	r3, #128	; 0x80
 800426a:	019b      	lsls	r3, r3, #6
 800426c:	430b      	orrs	r3, r1
 800426e:	6013      	str	r3, [r2, #0]
    while (!(SYSCFG_CFGR3 & SYSCFG_CFGR3_REF_HSI48_RDYF))
 8004270:	4b0f      	ldr	r3, [pc, #60]	; (80042b0 <cusb_clock_init+0xac>)
 8004272:	681b      	ldr	r3, [r3, #0]
 8004274:	015b      	lsls	r3, r3, #5
 8004276:	d5fb      	bpl.n	8004270 <cusb_clock_init+0x6c>
    rcc_osc_on(RCC_HSI48);
 8004278:	2002      	movs	r0, #2
 800427a:	f001 f83b 	bl	80052f4 <rcc_osc_on>
    rcc_wait_for_osc_ready(RCC_HSI48);
 800427e:	2002      	movs	r0, #2
 8004280:	f001 f8bc 	bl	80053fc <rcc_wait_for_osc_ready>
    rcc_periph_clock_enable(RCC_USB);
 8004284:	480b      	ldr	r0, [pc, #44]	; (80042b4 <cusb_clock_init+0xb0>)
 8004286:	f001 f949 	bl	800551c <rcc_periph_clock_enable>
    rcc_periph_clock_enable(RCC_CRS);
 800428a:	480b      	ldr	r0, [pc, #44]	; (80042b8 <cusb_clock_init+0xb4>)
 800428c:	f001 f946 	bl	800551c <rcc_periph_clock_enable>
    rcc_set_hsi48_source_rc48();
 8004290:	f001 f8bc 	bl	800540c <rcc_set_hsi48_source_rc48>
    rcc_osc_off(RCC_MSI);
 8004294:	2004      	movs	r0, #4
 8004296:	f001 f857 	bl	8005348 <rcc_osc_off>
}
 800429a:	bd10      	pop	{r4, pc}
 800429c:	4002100c 	.word	0x4002100c
 80042a0:	00f42400 	.word	0x00f42400
 80042a4:	200000d0 	.word	0x200000d0
 80042a8:	200000d4 	.word	0x200000d4
 80042ac:	200000d8 	.word	0x200000d8
 80042b0:	40010020 	.word	0x40010020
 80042b4:	00000717 	.word	0x00000717
 80042b8:	0000071b 	.word	0x0000071b

080042bc <cusb_init>:
{
 80042bc:	b510      	push	{r4, lr}
 80042be:	b084      	sub	sp, #16
    cusb_clock_init();
 80042c0:	f7ff ffa0 	bl	8004204 <cusb_clock_init>
    usb_state = RESET;
 80042c4:	2300      	movs	r3, #0
 80042c6:	4a13      	ldr	r2, [pc, #76]	; (8004314 <cusb_init+0x58>)
 80042c8:	7013      	strb	r3, [r2, #0]
    SET_REG(USB_CNTR_REG, USB_CNTR_FRES);
 80042ca:	4a13      	ldr	r2, [pc, #76]	; (8004318 <cusb_init+0x5c>)
 80042cc:	2101      	movs	r1, #1
 80042ce:	6011      	str	r1, [r2, #0]
    SET_REG(USB_CNTR_REG, 0);
 80042d0:	6013      	str	r3, [r2, #0]
    SET_REG(USB_ISTR_REG, 0);
 80042d2:	4a12      	ldr	r2, [pc, #72]	; (800431c <cusb_init+0x60>)
 80042d4:	6013      	str	r3, [r2, #0]
    usbd_dev = usbd_init(&st_usbfs_v2_usb_driver, &dev_desc, &cfg_desc, usb_strings, sizeof(usb_strings) / sizeof(const char *), usbd_control_buffer, sizeof(usbd_control_buffer));
 80042d6:	3380      	adds	r3, #128	; 0x80
 80042d8:	9302      	str	r3, [sp, #8]
 80042da:	4b11      	ldr	r3, [pc, #68]	; (8004320 <cusb_init+0x64>)
 80042dc:	9301      	str	r3, [sp, #4]
 80042de:	2304      	movs	r3, #4
 80042e0:	9300      	str	r3, [sp, #0]
 80042e2:	4b10      	ldr	r3, [pc, #64]	; (8004324 <cusb_init+0x68>)
 80042e4:	4a10      	ldr	r2, [pc, #64]	; (8004328 <cusb_init+0x6c>)
 80042e6:	4911      	ldr	r1, [pc, #68]	; (800432c <cusb_init+0x70>)
 80042e8:	4811      	ldr	r0, [pc, #68]	; (8004330 <cusb_init+0x74>)
 80042ea:	f001 f9e3 	bl	80056b4 <usbd_init>
 80042ee:	4c11      	ldr	r4, [pc, #68]	; (8004334 <cusb_init+0x78>)
 80042f0:	6020      	str	r0, [r4, #0]
    usbd_register_reset_callback(usbd_dev, cusb_reset_callback);
 80042f2:	4911      	ldr	r1, [pc, #68]	; (8004338 <cusb_init+0x7c>)
 80042f4:	f001 fa08 	bl	8005708 <usbd_register_reset_callback>
    usbd_register_set_config_callback(usbd_dev, hid_set_config);
 80042f8:	6820      	ldr	r0, [r4, #0]
 80042fa:	4910      	ldr	r1, [pc, #64]	; (800433c <cusb_init+0x80>)
 80042fc:	f001 fe96 	bl	800602c <usbd_register_set_config_callback>
    nvic_enable_irq(NVIC_USB_IRQ);
 8004300:	201f      	movs	r0, #31
 8004302:	f002 fa49 	bl	8006798 <nvic_enable_irq>
    nvic_set_priority(NVIC_USB_IRQ, 0);
 8004306:	2100      	movs	r1, #0
 8004308:	201f      	movs	r0, #31
 800430a:	f002 fa51 	bl	80067b0 <nvic_set_priority>
}
 800430e:	b004      	add	sp, #16
 8004310:	bd10      	pop	{r4, pc}
 8004312:	46c0      	nop			; (mov r8, r8)
 8004314:	20000142 	.word	0x20000142
 8004318:	40005c40 	.word	0x40005c40
 800431c:	40005c44 	.word	0x40005c44
 8004320:	20000144 	.word	0x20000144
 8004324:	08006d64 	.word	0x08006d64
 8004328:	08006cd0 	.word	0x08006cd0
 800432c:	08006ce0 	.word	0x08006ce0
 8004330:	0800709c 	.word	0x0800709c
 8004334:	200001c4 	.word	0x200001c4
 8004338:	080040c1 	.word	0x080040c1
 800433c:	08004105 	.word	0x08004105

08004340 <cusb_send>:
{
 8004340:	b500      	push	{lr}
 8004342:	b083      	sub	sp, #12
 8004344:	466b      	mov	r3, sp
 8004346:	1dda      	adds	r2, r3, #7
 8004348:	7010      	strb	r0, [r2, #0]
    usbd_ep_write_packet(usbd_dev, ENDPOINT_HID_IN, (const void *)&character, 1);
 800434a:	4b04      	ldr	r3, [pc, #16]	; (800435c <cusb_send+0x1c>)
 800434c:	6818      	ldr	r0, [r3, #0]
 800434e:	2301      	movs	r3, #1
 8004350:	2181      	movs	r1, #129	; 0x81
 8004352:	f001 f9fb 	bl	800574c <usbd_ep_write_packet>
}
 8004356:	b003      	add	sp, #12
 8004358:	bd00      	pop	{pc}
 800435a:	46c0      	nop			; (mov r8, r8)
 800435c:	200001c4 	.word	0x200001c4

08004360 <usb_isr>:
/*////////////////////////////////////////////////////////////////////////////*/
// USB Interrupt
/*////////////////////////////////////////////////////////////////////////////*/

void usb_isr(void)
{
 8004360:	b570      	push	{r4, r5, r6, lr}
    // This print is definitley not the problem with hidapi write failing
    serial_printf("I");
 8004362:	4843      	ldr	r0, [pc, #268]	; (8004470 <usb_isr+0x110>)
 8004364:	f000 fa66 	bl	8004834 <serial_printf>

    uint16_t istr = *USB_ISTR_REG;
 8004368:	4b42      	ldr	r3, [pc, #264]	; (8004474 <usb_isr+0x114>)
 800436a:	681b      	ldr	r3, [r3, #0]

    if (istr & USB_ISTR_RESET)
 800436c:	041a      	lsls	r2, r3, #16
 800436e:	0c15      	lsrs	r5, r2, #16
 8004370:	0152      	lsls	r2, r2, #5
 8004372:	d42e      	bmi.n	80043d2 <usb_isr+0x72>
        usbd_dev->pm_top = USBD_PM_TOP;
        _usbd_reset(usbd_dev);
        return;
    }

    if (istr & USB_ISTR_CTR)
 8004374:	041a      	lsls	r2, r3, #16
 8004376:	d436      	bmi.n	80043e6 <usb_isr+0x86>
        {
            USB_CLR_EP_RX_CTR(ep);
        }
    }

    if (istr & USB_ISTR_SUSP)
 8004378:	052b      	lsls	r3, r5, #20
 800437a:	d508      	bpl.n	800438e <usb_isr+0x2e>
    {
        USB_CLR_ISTR_SUSP();
 800437c:	4b3d      	ldr	r3, [pc, #244]	; (8004474 <usb_isr+0x114>)
 800437e:	4a3e      	ldr	r2, [pc, #248]	; (8004478 <usb_isr+0x118>)
 8004380:	601a      	str	r2, [r3, #0]
        if (usbd_dev->user_callback_suspend)
 8004382:	4b3e      	ldr	r3, [pc, #248]	; (800447c <usb_isr+0x11c>)
 8004384:	681b      	ldr	r3, [r3, #0]
 8004386:	6a1b      	ldr	r3, [r3, #32]
 8004388:	2b00      	cmp	r3, #0
 800438a:	d000      	beq.n	800438e <usb_isr+0x2e>
        {
            usbd_dev->user_callback_suspend();
 800438c:	4798      	blx	r3
        }
    }

    if (istr & USB_ISTR_WKUP)
 800438e:	04eb      	lsls	r3, r5, #19
 8004390:	d508      	bpl.n	80043a4 <usb_isr+0x44>
    {
        USB_CLR_ISTR_WKUP();
 8004392:	4b38      	ldr	r3, [pc, #224]	; (8004474 <usb_isr+0x114>)
 8004394:	4a3a      	ldr	r2, [pc, #232]	; (8004480 <usb_isr+0x120>)
 8004396:	601a      	str	r2, [r3, #0]
        if (usbd_dev->user_callback_resume)
 8004398:	4b38      	ldr	r3, [pc, #224]	; (800447c <usb_isr+0x11c>)
 800439a:	681b      	ldr	r3, [r3, #0]
 800439c:	6a5b      	ldr	r3, [r3, #36]	; 0x24
 800439e:	2b00      	cmp	r3, #0
 80043a0:	d000      	beq.n	80043a4 <usb_isr+0x44>
        {
            usbd_dev->user_callback_resume();
 80043a2:	4798      	blx	r3
        }
    }

    if (istr & USB_ISTR_SOF)
 80043a4:	05ab      	lsls	r3, r5, #22
 80043a6:	d508      	bpl.n	80043ba <usb_isr+0x5a>
    {
        USB_CLR_ISTR_SOF();
 80043a8:	4b32      	ldr	r3, [pc, #200]	; (8004474 <usb_isr+0x114>)
 80043aa:	4a36      	ldr	r2, [pc, #216]	; (8004484 <usb_isr+0x124>)
 80043ac:	601a      	str	r2, [r3, #0]
        if (usbd_dev->user_callback_sof)
 80043ae:	4b33      	ldr	r3, [pc, #204]	; (800447c <usb_isr+0x11c>)
 80043b0:	681b      	ldr	r3, [r3, #0]
 80043b2:	6a9b      	ldr	r3, [r3, #40]	; 0x28
 80043b4:	2b00      	cmp	r3, #0
 80043b6:	d000      	beq.n	80043ba <usb_isr+0x5a>
        {
            usbd_dev->user_callback_sof();
 80043b8:	4798      	blx	r3
        }
    }

    if (usbd_dev->user_callback_sof)
 80043ba:	4b30      	ldr	r3, [pc, #192]	; (800447c <usb_isr+0x11c>)
 80043bc:	681b      	ldr	r3, [r3, #0]
 80043be:	6a9b      	ldr	r3, [r3, #40]	; 0x28
 80043c0:	2b00      	cmp	r3, #0
 80043c2:	d04f      	beq.n	8004464 <usb_isr+0x104>
    {
        *USB_CNTR_REG |= USB_CNTR_SOFM;
 80043c4:	4a30      	ldr	r2, [pc, #192]	; (8004488 <usb_isr+0x128>)
 80043c6:	6811      	ldr	r1, [r2, #0]
 80043c8:	2380      	movs	r3, #128	; 0x80
 80043ca:	009b      	lsls	r3, r3, #2
 80043cc:	430b      	orrs	r3, r1
 80043ce:	6013      	str	r3, [r2, #0]
    }
    else
    {
        *USB_CNTR_REG &= ~USB_CNTR_SOFM;
    }
}
 80043d0:	bd70      	pop	{r4, r5, r6, pc}
        USB_CLR_ISTR_RESET();
 80043d2:	4b28      	ldr	r3, [pc, #160]	; (8004474 <usb_isr+0x114>)
 80043d4:	4a2d      	ldr	r2, [pc, #180]	; (800448c <usb_isr+0x12c>)
 80043d6:	601a      	str	r2, [r3, #0]
        usbd_dev->pm_top = USBD_PM_TOP;
 80043d8:	4b28      	ldr	r3, [pc, #160]	; (800447c <usb_isr+0x11c>)
 80043da:	6818      	ldr	r0, [r3, #0]
 80043dc:	2340      	movs	r3, #64	; 0x40
 80043de:	8303      	strh	r3, [r0, #24]
        _usbd_reset(usbd_dev);
 80043e0:	f001 f99d 	bl	800571e <_usbd_reset>
        return;
 80043e4:	e7f4      	b.n	80043d0 <usb_isr+0x70>
        uint8_t ep = istr & USB_ISTR_EP_ID;
 80043e6:	240f      	movs	r4, #15
 80043e8:	401c      	ands	r4, r3
        if (istr & USB_ISTR_DIR)
 80043ea:	06eb      	lsls	r3, r5, #27
 80043ec:	d512      	bpl.n	8004414 <usb_isr+0xb4>
            if (*USB_EP_REG(ep) & USB_EP_SETUP)
 80043ee:	00a3      	lsls	r3, r4, #2
 80043f0:	4a27      	ldr	r2, [pc, #156]	; (8004490 <usb_isr+0x130>)
 80043f2:	4694      	mov	ip, r2
 80043f4:	4463      	add	r3, ip
 80043f6:	681b      	ldr	r3, [r3, #0]
 80043f8:	051b      	lsls	r3, r3, #20
 80043fa:	d401      	bmi.n	8004400 <usb_isr+0xa0>
                type = USB_TRANSACTION_OUT;
 80043fc:	2101      	movs	r1, #1
 80043fe:	e016      	b.n	800442e <usb_isr+0xce>
                st_usbfs_ep_read_packet(usbd_dev, ep, &usbd_dev->control_state.req, 8);
 8004400:	4b1e      	ldr	r3, [pc, #120]	; (800447c <usb_isr+0x11c>)
 8004402:	6818      	ldr	r0, [r3, #0]
 8004404:	0002      	movs	r2, r0
 8004406:	3230      	adds	r2, #48	; 0x30
 8004408:	2308      	movs	r3, #8
 800440a:	0021      	movs	r1, r4
 800440c:	f002 f844 	bl	8006498 <st_usbfs_ep_read_packet>
                type = USB_TRANSACTION_SETUP;
 8004410:	2102      	movs	r1, #2
 8004412:	e00c      	b.n	800442e <usb_isr+0xce>
            USB_CLR_EP_TX_CTR(ep);
 8004414:	00a1      	lsls	r1, r4, #2
 8004416:	4b1e      	ldr	r3, [pc, #120]	; (8004490 <usb_isr+0x130>)
 8004418:	469c      	mov	ip, r3
 800441a:	4461      	add	r1, ip
 800441c:	680b      	ldr	r3, [r1, #0]
 800441e:	b21b      	sxth	r3, r3
 8004420:	4a1c      	ldr	r2, [pc, #112]	; (8004494 <usb_isr+0x134>)
 8004422:	401a      	ands	r2, r3
 8004424:	4b1c      	ldr	r3, [pc, #112]	; (8004498 <usb_isr+0x138>)
 8004426:	4313      	orrs	r3, r2
 8004428:	b29b      	uxth	r3, r3
 800442a:	600b      	str	r3, [r1, #0]
            type = USB_TRANSACTION_IN;
 800442c:	2100      	movs	r1, #0
        if (usbd_dev->user_callback_ctr[ep][type])
 800442e:	4a13      	ldr	r2, [pc, #76]	; (800447c <usb_isr+0x11c>)
 8004430:	6810      	ldr	r0, [r2, #0]
 8004432:	0063      	lsls	r3, r4, #1
 8004434:	191b      	adds	r3, r3, r4
 8004436:	185b      	adds	r3, r3, r1
 8004438:	331a      	adds	r3, #26
 800443a:	009b      	lsls	r3, r3, #2
 800443c:	581b      	ldr	r3, [r3, r0]
 800443e:	2b00      	cmp	r3, #0
 8004440:	d002      	beq.n	8004448 <usb_isr+0xe8>
            usbd_dev->user_callback_ctr[ep][type](usbd_dev, ep);
 8004442:	0021      	movs	r1, r4
 8004444:	4798      	blx	r3
 8004446:	e797      	b.n	8004378 <usb_isr+0x18>
            USB_CLR_EP_RX_CTR(ep);
 8004448:	00a3      	lsls	r3, r4, #2
 800444a:	4a11      	ldr	r2, [pc, #68]	; (8004490 <usb_isr+0x130>)
 800444c:	4694      	mov	ip, r2
 800444e:	4463      	add	r3, ip
 8004450:	681a      	ldr	r2, [r3, #0]
 8004452:	b212      	sxth	r2, r2
 8004454:	490f      	ldr	r1, [pc, #60]	; (8004494 <usb_isr+0x134>)
 8004456:	400a      	ands	r2, r1
 8004458:	2180      	movs	r1, #128	; 0x80
 800445a:	430a      	orrs	r2, r1
 800445c:	b212      	sxth	r2, r2
 800445e:	b292      	uxth	r2, r2
 8004460:	601a      	str	r2, [r3, #0]
 8004462:	e789      	b.n	8004378 <usb_isr+0x18>
        *USB_CNTR_REG &= ~USB_CNTR_SOFM;
 8004464:	4a08      	ldr	r2, [pc, #32]	; (8004488 <usb_isr+0x128>)
 8004466:	6813      	ldr	r3, [r2, #0]
 8004468:	490c      	ldr	r1, [pc, #48]	; (800449c <usb_isr+0x13c>)
 800446a:	400b      	ands	r3, r1
 800446c:	6013      	str	r3, [r2, #0]
 800446e:	e7af      	b.n	80043d0 <usb_isr+0x70>
 8004470:	08006c80 	.word	0x08006c80
 8004474:	40005c44 	.word	0x40005c44
 8004478:	0000f7ff 	.word	0x0000f7ff
 800447c:	200001c4 	.word	0x200001c4
 8004480:	0000efff 	.word	0x0000efff
 8004484:	0000fdff 	.word	0x0000fdff
 8004488:	40005c40 	.word	0x40005c40
 800448c:	0000fbff 	.word	0x0000fbff
 8004490:	40005c00 	.word	0x40005c00
 8004494:	00000f0f 	.word	0x00000f0f
 8004498:	ffff8000 	.word	0xffff8000
 800449c:	fffffdff 	.word	0xfffffdff

080044a0 <main>:
/*////////////////////////////////////////////////////////////////////////////*/
// Exported Function Definitions
/*////////////////////////////////////////////////////////////////////////////*/

int main(void)
{
 80044a0:	b510      	push	{r4, lr}
	log_init();
 80044a2:	f000 f9a9 	bl	80047f8 <log_init>
	timers_lptim_init();
 80044a6:	f000 fcc9 	bl	8004e3c <timers_lptim_init>
	timers_tim6_init();
 80044aa:	f000 fd0d 	bl	8004ec8 <timers_tim6_init>
	// mem_init();
	// aes_init();
	// batt_init();

	#ifdef DEBUG
	for(int i = 0; i < 100000; i++){__asm__("nop");};
 80044ae:	2300      	movs	r3, #0
 80044b0:	e001      	b.n	80044b6 <main+0x16>
 80044b2:	46c0      	nop			; (mov r8, r8)
 80044b4:	3301      	adds	r3, #1
 80044b6:	4a0a      	ldr	r2, [pc, #40]	; (80044e0 <main+0x40>)
 80044b8:	4293      	cmp	r3, r2
 80044ba:	ddfa      	ble.n	80044b2 <main+0x12>
	#endif

	log_printf("Hub Start\n");
 80044bc:	4809      	ldr	r0, [pc, #36]	; (80044e4 <main+0x44>)
 80044be:	f000 f983 	bl	80047c8 <log_printf>
	flash_led(100, 5);
 80044c2:	2105      	movs	r1, #5
 80044c4:	2064      	movs	r0, #100	; 0x64
 80044c6:	f000 fc89 	bl	8004ddc <flash_led>

	test_mem_write_read();
 80044ca:	f000 fc29 	bl	8004d20 <test_mem_write_read>
	(void)test_hub2;


	for (;;)
	{
		log_printf("Hub Loop\n\n");
 80044ce:	4806      	ldr	r0, [pc, #24]	; (80044e8 <main+0x48>)
 80044d0:	f000 f97a 	bl	80047c8 <log_printf>
		timers_delay_milliseconds(1000);
 80044d4:	20fa      	movs	r0, #250	; 0xfa
 80044d6:	0080      	lsls	r0, r0, #2
 80044d8:	f000 fd0c 	bl	8004ef4 <timers_delay_milliseconds>
	for (;;)
 80044dc:	e7f7      	b.n	80044ce <main+0x2e>
 80044de:	46c0      	nop			; (mov r8, r8)
 80044e0:	0001869f 	.word	0x0001869f
 80044e4:	08006d74 	.word	0x08006d74
 80044e8:	08006d80 	.word	0x08006d80

080044ec <nmi_handler>:
/*////////////////////////////////////////////////////////////////////////////*/
// Interrupts
/*////////////////////////////////////////////////////////////////////////////*/

void nmi_handler(void)
{
 80044ec:	b510      	push	{r4, lr}
  log_printf("nmi\n");
 80044ee:	4802      	ldr	r0, [pc, #8]	; (80044f8 <nmi_handler+0xc>)
 80044f0:	f000 f96a 	bl	80047c8 <log_printf>
	while(1)
 80044f4:	e7fe      	b.n	80044f4 <nmi_handler+0x8>
 80044f6:	46c0      	nop			; (mov r8, r8)
 80044f8:	08006d8c 	.word	0x08006d8c

080044fc <hard_fault_handler>:
		
	}
}

void hard_fault_handler(void)
{
 80044fc:	b510      	push	{r4, lr}
  log_printf("hard fault\n");
 80044fe:	4802      	ldr	r0, [pc, #8]	; (8004508 <hard_fault_handler+0xc>)
 8004500:	f000 f962 	bl	80047c8 <log_printf>
	while(1)
 8004504:	e7fe      	b.n	8004504 <hard_fault_handler+0x8>
 8004506:	46c0      	nop			; (mov r8, r8)
 8004508:	08006d94 	.word	0x08006d94

0800450c <usart2_isr>:
}


// Interrupt routines
void usart2_isr(void)
{
 800450c:	b510      	push	{r4, lr}
	usart_send(SPF_USART, usart_recv(SIM_USART));
 800450e:	4c09      	ldr	r4, [pc, #36]	; (8004534 <usart2_isr+0x28>)
 8004510:	0020      	movs	r0, r4
 8004512:	f001 f8bf 	bl	8005694 <usart_recv>
 8004516:	0001      	movs	r1, r0
 8004518:	4807      	ldr	r0, [pc, #28]	; (8004538 <usart2_isr+0x2c>)
 800451a:	f001 f8b7 	bl	800568c <usart_send>

	sim_rx_buf[sim_rx_head++] = usart_recv(SIM_USART);
 800451e:	0020      	movs	r0, r4
 8004520:	f001 f8b8 	bl	8005694 <usart_recv>
 8004524:	4a05      	ldr	r2, [pc, #20]	; (800453c <usart2_isr+0x30>)
 8004526:	7813      	ldrb	r3, [r2, #0]
 8004528:	1c59      	adds	r1, r3, #1
 800452a:	7011      	strb	r1, [r2, #0]
 800452c:	4a04      	ldr	r2, [pc, #16]	; (8004540 <usart2_isr+0x34>)
 800452e:	54d0      	strb	r0, [r2, r3]
}
 8004530:	bd10      	pop	{r4, pc}
 8004532:	46c0      	nop			; (mov r8, r8)
 8004534:	40004400 	.word	0x40004400
 8004538:	40013800 	.word	0x40013800
 800453c:	200002c8 	.word	0x200002c8
 8004540:	200001c8 	.word	0x200001c8

08004544 <adc_comp_isr>:

// ISRs
#ifdef _HUB
// For use with ADC1
void adc_comp_isr(void)
{
 8004544:	b570      	push	{r4, r5, r6, lr}
    // Takes about 150us to run

    // log_printf("ADC ISR %08X\n", ADC_ISR(ADC1));

    // Calculate batt_voltages
    for(uint8_t i = 0; i < NUM_VOLTAGES; i++){
 8004546:	2400      	movs	r4, #0
 8004548:	e014      	b.n	8004574 <adc_comp_isr+0x30>
        batt_voltages[i] = ( (uint32_t)300 * ST_VREFINT_CAL * adc_vals[i + 1] ) / ( adc_vals[0] * 4095 ); }
 800454a:	4b4f      	ldr	r3, [pc, #316]	; (8004688 <adc_comp_isr+0x144>)
 800454c:	881b      	ldrh	r3, [r3, #0]
 800454e:	1c65      	adds	r5, r4, #1
 8004550:	4a4e      	ldr	r2, [pc, #312]	; (800468c <adc_comp_isr+0x148>)
 8004552:	0069      	lsls	r1, r5, #1
 8004554:	5a88      	ldrh	r0, [r1, r2]
 8004556:	4343      	muls	r3, r0
 8004558:	0098      	lsls	r0, r3, #2
 800455a:	18c3      	adds	r3, r0, r3
 800455c:	0118      	lsls	r0, r3, #4
 800455e:	1ac0      	subs	r0, r0, r3
 8004560:	0080      	lsls	r0, r0, #2
 8004562:	8813      	ldrh	r3, [r2, #0]
 8004564:	0319      	lsls	r1, r3, #12
 8004566:	1ac9      	subs	r1, r1, r3
 8004568:	f002 f9e8 	bl	800693c <__udivsi3>
 800456c:	0064      	lsls	r4, r4, #1
 800456e:	4b48      	ldr	r3, [pc, #288]	; (8004690 <adc_comp_isr+0x14c>)
 8004570:	5318      	strh	r0, [r3, r4]
    for(uint8_t i = 0; i < NUM_VOLTAGES; i++){
 8004572:	b2ec      	uxtb	r4, r5
 8004574:	2c01      	cmp	r4, #1
 8004576:	d9e8      	bls.n	800454a <adc_comp_isr+0x6>

    // For Hub : Measured voltage is half of actual
    for(uint8_t i = 0; i < NUM_VOLTAGES; i++){
 8004578:	2300      	movs	r3, #0
 800457a:	e006      	b.n	800458a <adc_comp_isr+0x46>
        batt_voltages[i] = batt_voltages[i] * 2; }
 800457c:	4944      	ldr	r1, [pc, #272]	; (8004690 <adc_comp_isr+0x14c>)
 800457e:	0058      	lsls	r0, r3, #1
 8004580:	5a42      	ldrh	r2, [r0, r1]
 8004582:	0052      	lsls	r2, r2, #1
 8004584:	5242      	strh	r2, [r0, r1]
    for(uint8_t i = 0; i < NUM_VOLTAGES; i++){
 8004586:	3301      	adds	r3, #1
 8004588:	b2db      	uxtb	r3, r3
 800458a:	2b01      	cmp	r3, #1
 800458c:	d9f6      	bls.n	800457c <adc_comp_isr+0x38>

    static uint16_t timer = 0;
    static uint8_t state = 0;
    switch(state)
 800458e:	4b41      	ldr	r3, [pc, #260]	; (8004694 <adc_comp_isr+0x150>)
 8004590:	781b      	ldrb	r3, [r3, #0]
 8004592:	2b04      	cmp	r3, #4
 8004594:	d86e      	bhi.n	8004674 <adc_comp_isr+0x130>
 8004596:	009b      	lsls	r3, r3, #2
 8004598:	4a3f      	ldr	r2, [pc, #252]	; (8004698 <adc_comp_isr+0x154>)
 800459a:	58d3      	ldr	r3, [r2, r3]
 800459c:	469f      	mov	pc, r3
    {
        case 0:
            plugged_in = true;
            timer = timers_millis();
 800459e:	f000 fcbf 	bl	8004f20 <timers_millis>
 80045a2:	4b3e      	ldr	r3, [pc, #248]	; (800469c <adc_comp_isr+0x158>)
 80045a4:	8018      	strh	r0, [r3, #0]
            if(batt_voltages[PWR_VOLTAGE] < batt_voltages[BATT_VOLTAGE])
 80045a6:	4b3a      	ldr	r3, [pc, #232]	; (8004690 <adc_comp_isr+0x14c>)
 80045a8:	881a      	ldrh	r2, [r3, #0]
 80045aa:	885b      	ldrh	r3, [r3, #2]
 80045ac:	429a      	cmp	r2, r3
 80045ae:	d264      	bcs.n	800467a <adc_comp_isr+0x136>
                state = 1;
 80045b0:	4b38      	ldr	r3, [pc, #224]	; (8004694 <adc_comp_isr+0x150>)
 80045b2:	2201      	movs	r2, #1
 80045b4:	701a      	strb	r2, [r3, #0]
 80045b6:	e060      	b.n	800467a <adc_comp_isr+0x136>
            break;

        case 1:
            if(batt_voltages[PWR_VOLTAGE] > batt_voltages[BATT_VOLTAGE])
 80045b8:	4b35      	ldr	r3, [pc, #212]	; (8004690 <adc_comp_isr+0x14c>)
 80045ba:	881a      	ldrh	r2, [r3, #0]
 80045bc:	885b      	ldrh	r3, [r3, #2]
 80045be:	429a      	cmp	r2, r3
 80045c0:	d903      	bls.n	80045ca <adc_comp_isr+0x86>
                state = 0;
 80045c2:	4b34      	ldr	r3, [pc, #208]	; (8004694 <adc_comp_isr+0x150>)
 80045c4:	2200      	movs	r2, #0
 80045c6:	701a      	strb	r2, [r3, #0]
 80045c8:	e057      	b.n	800467a <adc_comp_isr+0x136>
            else if(timers_millis() - timer > 1000)
 80045ca:	f000 fca9 	bl	8004f20 <timers_millis>
 80045ce:	4b33      	ldr	r3, [pc, #204]	; (800469c <adc_comp_isr+0x158>)
 80045d0:	881b      	ldrh	r3, [r3, #0]
 80045d2:	1ac0      	subs	r0, r0, r3
 80045d4:	23fa      	movs	r3, #250	; 0xfa
 80045d6:	009b      	lsls	r3, r3, #2
 80045d8:	4298      	cmp	r0, r3
 80045da:	dd4e      	ble.n	800467a <adc_comp_isr+0x136>
                state = 2;
 80045dc:	4b2d      	ldr	r3, [pc, #180]	; (8004694 <adc_comp_isr+0x150>)
 80045de:	2202      	movs	r2, #2
 80045e0:	701a      	strb	r2, [r3, #0]
 80045e2:	e04a      	b.n	800467a <adc_comp_isr+0x136>
            break;
        
        case 2:
            if(batt_voltages[PWR_VOLTAGE] > batt_voltages[BATT_VOLTAGE]){
 80045e4:	4b2a      	ldr	r3, [pc, #168]	; (8004690 <adc_comp_isr+0x14c>)
 80045e6:	881a      	ldrh	r2, [r3, #0]
 80045e8:	885b      	ldrh	r3, [r3, #2]
 80045ea:	429a      	cmp	r2, r3
 80045ec:	d907      	bls.n	80045fe <adc_comp_isr+0xba>
                timer = timers_millis(); 
 80045ee:	f000 fc97 	bl	8004f20 <timers_millis>
 80045f2:	4b2a      	ldr	r3, [pc, #168]	; (800469c <adc_comp_isr+0x158>)
 80045f4:	8018      	strh	r0, [r3, #0]
                state = 4;}
 80045f6:	4b27      	ldr	r3, [pc, #156]	; (8004694 <adc_comp_isr+0x150>)
 80045f8:	2204      	movs	r2, #4
 80045fa:	701a      	strb	r2, [r3, #0]
 80045fc:	e03d      	b.n	800467a <adc_comp_isr+0x136>
            else if(timers_millis() - timer > 10000){
 80045fe:	f000 fc8f 	bl	8004f20 <timers_millis>
 8004602:	4b26      	ldr	r3, [pc, #152]	; (800469c <adc_comp_isr+0x158>)
 8004604:	881b      	ldrh	r3, [r3, #0]
 8004606:	1ac0      	subs	r0, r0, r3
 8004608:	4b25      	ldr	r3, [pc, #148]	; (80046a0 <adc_comp_isr+0x15c>)
 800460a:	4298      	cmp	r0, r3
 800460c:	dd35      	ble.n	800467a <adc_comp_isr+0x136>
                state = 3;
 800460e:	4b21      	ldr	r3, [pc, #132]	; (8004694 <adc_comp_isr+0x150>)
 8004610:	2203      	movs	r2, #3
 8004612:	701a      	strb	r2, [r3, #0]
                plugged_in = false;
                log_printf("Plugged Out\n");}
 8004614:	4823      	ldr	r0, [pc, #140]	; (80046a4 <adc_comp_isr+0x160>)
 8004616:	f000 f8d7 	bl	80047c8 <log_printf>
 800461a:	e02e      	b.n	800467a <adc_comp_isr+0x136>
            break;
        
        case 3:
            if(batt_voltages[PWR_VOLTAGE] > batt_voltages[BATT_VOLTAGE]){
 800461c:	4b1c      	ldr	r3, [pc, #112]	; (8004690 <adc_comp_isr+0x14c>)
 800461e:	881a      	ldrh	r2, [r3, #0]
 8004620:	885b      	ldrh	r3, [r3, #2]
 8004622:	429a      	cmp	r2, r3
 8004624:	d929      	bls.n	800467a <adc_comp_isr+0x136>
                timer = timers_millis();
 8004626:	f000 fc7b 	bl	8004f20 <timers_millis>
 800462a:	4b1c      	ldr	r3, [pc, #112]	; (800469c <adc_comp_isr+0x158>)
 800462c:	8018      	strh	r0, [r3, #0]
                state = 0;
 800462e:	4b19      	ldr	r3, [pc, #100]	; (8004694 <adc_comp_isr+0x150>)
 8004630:	2200      	movs	r2, #0
 8004632:	701a      	strb	r2, [r3, #0]
                log_printf("Plugged In\n");}
 8004634:	481c      	ldr	r0, [pc, #112]	; (80046a8 <adc_comp_isr+0x164>)
 8004636:	f000 f8c7 	bl	80047c8 <log_printf>
 800463a:	e01e      	b.n	800467a <adc_comp_isr+0x136>
            break;

        case 4:
            if(batt_voltages[PWR_VOLTAGE] < batt_voltages[BATT_VOLTAGE]){
 800463c:	4b14      	ldr	r3, [pc, #80]	; (8004690 <adc_comp_isr+0x14c>)
 800463e:	881a      	ldrh	r2, [r3, #0]
 8004640:	885b      	ldrh	r3, [r3, #2]
 8004642:	429a      	cmp	r2, r3
 8004644:	d203      	bcs.n	800464e <adc_comp_isr+0x10a>
                state = 2; }
 8004646:	4b13      	ldr	r3, [pc, #76]	; (8004694 <adc_comp_isr+0x150>)
 8004648:	2202      	movs	r2, #2
 800464a:	701a      	strb	r2, [r3, #0]
 800464c:	e015      	b.n	800467a <adc_comp_isr+0x136>
            else if(timers_millis() - timer > 1000){
 800464e:	f000 fc67 	bl	8004f20 <timers_millis>
 8004652:	4b12      	ldr	r3, [pc, #72]	; (800469c <adc_comp_isr+0x158>)
 8004654:	881b      	ldrh	r3, [r3, #0]
 8004656:	1ac0      	subs	r0, r0, r3
 8004658:	23fa      	movs	r3, #250	; 0xfa
 800465a:	009b      	lsls	r3, r3, #2
 800465c:	4298      	cmp	r0, r3
 800465e:	dd0c      	ble.n	800467a <adc_comp_isr+0x136>
                state = 0;
 8004660:	4b0c      	ldr	r3, [pc, #48]	; (8004694 <adc_comp_isr+0x150>)
 8004662:	2200      	movs	r2, #0
 8004664:	701a      	strb	r2, [r3, #0]
                batt_rst_seq = true; 
 8004666:	4b11      	ldr	r3, [pc, #68]	; (80046ac <adc_comp_isr+0x168>)
 8004668:	3201      	adds	r2, #1
 800466a:	701a      	strb	r2, [r3, #0]
                log_printf("Reset Sequence\n"); }
 800466c:	4810      	ldr	r0, [pc, #64]	; (80046b0 <adc_comp_isr+0x16c>)
 800466e:	f000 f8ab 	bl	80047c8 <log_printf>
 8004672:	e002      	b.n	800467a <adc_comp_isr+0x136>
            break;

        default:
            log_printf("Error ADC ISR Defaut Case\n");
 8004674:	480f      	ldr	r0, [pc, #60]	; (80046b4 <adc_comp_isr+0x170>)
 8004676:	f000 f8a7 	bl	80047c8 <log_printf>
            break;
    }

    // log_printf("ADC ISR %u %u %u V\n",state, batt_voltages[0], batt_voltages[1]);

    ADC_ISR(ADC1) = 0xFFFFFFFF;
 800467a:	480f      	ldr	r0, [pc, #60]	; (80046b8 <adc_comp_isr+0x174>)
 800467c:	2301      	movs	r3, #1
 800467e:	425b      	negs	r3, r3
 8004680:	6003      	str	r3, [r0, #0]
    adc_start_conversion_regular(ADC1);
 8004682:	f000 fd1f 	bl	80050c4 <adc_start_conversion_regular>
}
 8004686:	bd70      	pop	{r4, r5, r6, pc}
 8004688:	1ff80078 	.word	0x1ff80078
 800468c:	200002cc 	.word	0x200002cc
 8004690:	200002d4 	.word	0x200002d4
 8004694:	200002d8 	.word	0x200002d8
 8004698:	08006de8 	.word	0x08006de8
 800469c:	200002da 	.word	0x200002da
 80046a0:	00002710 	.word	0x00002710
 80046a4:	08006da0 	.word	0x08006da0
 80046a8:	08006db0 	.word	0x08006db0
 80046ac:	200002d2 	.word	0x200002d2
 80046b0:	08006dbc 	.word	0x08006dbc
 80046b4:	08006dcc 	.word	0x08006dcc
 80046b8:	40012400 	.word	0x40012400

080046bc <usart_setup>:
}

#ifdef DEBUG

static void usart_setup(void) 
{
 80046bc:	b570      	push	{r4, r5, r6, lr}
    rcc_periph_clock_enable(RCC_GPIOA);
 80046be:	20b0      	movs	r0, #176	; 0xb0
 80046c0:	00c0      	lsls	r0, r0, #3
 80046c2:	f000 ff2b 	bl	800551c <rcc_periph_clock_enable>
	rcc_periph_clock_enable(RCC_GPIOB);
 80046c6:	4826      	ldr	r0, [pc, #152]	; (8004760 <usart_setup+0xa4>)
 80046c8:	f000 ff28 	bl	800551c <rcc_periph_clock_enable>

	gpio_mode_setup(SPF_USART_TX_PORT, GPIO_MODE_AF, GPIO_PUPD_NONE, SPF_USART_TX);
 80046cc:	2580      	movs	r5, #128	; 0x80
 80046ce:	00ad      	lsls	r5, r5, #2
 80046d0:	24a0      	movs	r4, #160	; 0xa0
 80046d2:	05e4      	lsls	r4, r4, #23
 80046d4:	002b      	movs	r3, r5
 80046d6:	2200      	movs	r2, #0
 80046d8:	2102      	movs	r1, #2
 80046da:	0020      	movs	r0, r4
 80046dc:	f000 fd59 	bl	8005192 <gpio_mode_setup>
	gpio_mode_setup(SPF_USART_RX_PORT, GPIO_MODE_AF, GPIO_PUPD_NONE, SPF_USART_RX);
 80046e0:	2680      	movs	r6, #128	; 0x80
 80046e2:	00f6      	lsls	r6, r6, #3
 80046e4:	0033      	movs	r3, r6
 80046e6:	2200      	movs	r2, #0
 80046e8:	2102      	movs	r1, #2
 80046ea:	0020      	movs	r0, r4
 80046ec:	f000 fd51 	bl	8005192 <gpio_mode_setup>
    
    gpio_set_output_options(SPF_USART_TX_PORT, GPIO_OTYPE_PP, GPIO_OSPEED_2MHZ, SPF_USART_TX);
 80046f0:	002b      	movs	r3, r5
 80046f2:	2200      	movs	r2, #0
 80046f4:	2100      	movs	r1, #0
 80046f6:	0020      	movs	r0, r4
 80046f8:	f000 fd6b 	bl	80051d2 <gpio_set_output_options>

    gpio_set_af(SPF_USART_TX_PORT, SPF_USART_AF, SPF_USART_TX);
 80046fc:	002a      	movs	r2, r5
 80046fe:	2104      	movs	r1, #4
 8004700:	0020      	movs	r0, r4
 8004702:	f000 fd84 	bl	800520e <gpio_set_af>
    gpio_set_af(SPF_USART_RX_PORT, SPF_USART_AF, SPF_USART_RX);
 8004706:	0032      	movs	r2, r6
 8004708:	2104      	movs	r1, #4
 800470a:	0020      	movs	r0, r4
 800470c:	f000 fd7f 	bl	800520e <gpio_set_af>
    
	rcc_periph_clock_enable(SPF_USART_RCC);
 8004710:	4814      	ldr	r0, [pc, #80]	; (8004764 <usart_setup+0xa8>)
 8004712:	f000 ff03 	bl	800551c <rcc_periph_clock_enable>
    rcc_periph_reset_pulse(SPF_USART_RCC_RST);
 8004716:	4814      	ldr	r0, [pc, #80]	; (8004768 <usart_setup+0xac>)
 8004718:	f000 ff0e 	bl	8005538 <rcc_periph_reset_pulse>
	usart_disable(SPF_USART);
 800471c:	4c13      	ldr	r4, [pc, #76]	; (800476c <usart_setup+0xb0>)
 800471e:	0020      	movs	r0, r4
 8004720:	f000 ffa5 	bl	800566e <usart_disable>
	usart_set_baudrate(SPF_USART, SPF_USART_BAUD);
 8004724:	21e1      	movs	r1, #225	; 0xe1
 8004726:	0249      	lsls	r1, r1, #9
 8004728:	0020      	movs	r0, r4
 800472a:	f000 ff43 	bl	80055b4 <usart_set_baudrate>
	usart_set_databits(SPF_USART, 8);
 800472e:	2108      	movs	r1, #8
 8004730:	0020      	movs	r0, r4
 8004732:	f000 ff6b 	bl	800560c <usart_set_databits>
	usart_set_stopbits(SPF_USART,USART_STOPBITS_1);
 8004736:	2100      	movs	r1, #0
 8004738:	0020      	movs	r0, r4
 800473a:	f000 ff75 	bl	8005628 <usart_set_stopbits>
	usart_set_mode(SPF_USART, USART_MODE_TX_RX);
 800473e:	210c      	movs	r1, #12
 8004740:	0020      	movs	r0, r4
 8004742:	f000 ff81 	bl	8005648 <usart_set_mode>
	usart_set_parity(SPF_USART, USART_PARITY_NONE);
 8004746:	2100      	movs	r1, #0
 8004748:	0020      	movs	r0, r4
 800474a:	f000 ff75 	bl	8005638 <usart_set_parity>
	usart_set_flow_control(SPF_USART, USART_FLOWCONTROL_NONE);
 800474e:	2100      	movs	r1, #0
 8004750:	0020      	movs	r0, r4
 8004752:	f000 ff7f 	bl	8005654 <usart_set_flow_control>
	usart_enable(SPF_USART);
 8004756:	0020      	movs	r0, r4
 8004758:	f000 ff84 	bl	8005664 <usart_enable>
}
 800475c:	bd70      	pop	{r4, r5, r6, pc}
 800475e:	46c0      	nop			; (mov r8, r8)
 8004760:	00000581 	.word	0x00000581
 8004764:	0000068e 	.word	0x0000068e
 8004768:	0000048e 	.word	0x0000048e
 800476c:	40013800 	.word	0x40013800

08004770 <_putchar_mem>:
{
 8004770:	b510      	push	{r4, lr}
 8004772:	0001      	movs	r1, r0
	mem_eeprom_write_byte(EEPROM_LOG_START + logger.write_index, character);
 8004774:	4c06      	ldr	r4, [pc, #24]	; (8004790 <_putchar_mem+0x20>)
 8004776:	8860      	ldrh	r0, [r4, #2]
 8004778:	4b06      	ldr	r3, [pc, #24]	; (8004794 <_putchar_mem+0x24>)
 800477a:	469c      	mov	ip, r3
 800477c:	4460      	add	r0, ip
 800477e:	f000 f8b9 	bl	80048f4 <mem_eeprom_write_byte>
	logger.write_index = (logger.write_index + 1)%EEPROM_LOG_SIZE;
 8004782:	8863      	ldrh	r3, [r4, #2]
 8004784:	3301      	adds	r3, #1
 8004786:	059b      	lsls	r3, r3, #22
 8004788:	0d9b      	lsrs	r3, r3, #22
 800478a:	8063      	strh	r3, [r4, #2]
}
 800478c:	bd10      	pop	{r4, pc}
 800478e:	46c0      	nop			; (mov r8, r8)
 8004790:	200002dc 	.word	0x200002dc
 8004794:	08080100 	.word	0x08080100

08004798 <_putchar_spf>:

static void _putchar_spf(char character)
{
 8004798:	b510      	push	{r4, lr}
	usart_send_blocking(SPF_USART, character);	
 800479a:	0001      	movs	r1, r0
 800479c:	4801      	ldr	r0, [pc, #4]	; (80047a4 <_putchar_spf+0xc>)
 800479e:	f000 ff6b 	bl	8005678 <usart_send_blocking>
}
 80047a2:	bd10      	pop	{r4, pc}
 80047a4:	40013800 	.word	0x40013800

080047a8 <_putchar_usb>:

#ifdef _HUB
static void _putchar_usb(char character)
{
 80047a8:	b510      	push	{r4, lr}
	cusb_send(character);
 80047aa:	f7ff fdc9 	bl	8004340 <cusb_send>
}
 80047ae:	bd10      	pop	{r4, pc}

080047b0 <_putchar_main>:
{
 80047b0:	b510      	push	{r4, lr}
 80047b2:	0004      	movs	r4, r0
	_putchar_mem(character);
 80047b4:	f7ff ffdc 	bl	8004770 <_putchar_mem>
	_putchar_spf(character);
 80047b8:	0020      	movs	r0, r4
 80047ba:	f7ff ffed 	bl	8004798 <_putchar_spf>
	_putchar_usb(character);
 80047be:	0020      	movs	r0, r4
 80047c0:	f7ff fff2 	bl	80047a8 <_putchar_usb>
}
 80047c4:	bd10      	pop	{r4, pc}
	...

080047c8 <log_printf>:
{
 80047c8:	b40f      	push	{r0, r1, r2, r3}
 80047ca:	b500      	push	{lr}
 80047cc:	b083      	sub	sp, #12
 80047ce:	aa04      	add	r2, sp, #16
 80047d0:	ca02      	ldmia	r2!, {r1}
	va_start(va, format);
 80047d2:	9201      	str	r2, [sp, #4]
	fnprintf(_putchar_main, format, va);
 80047d4:	4806      	ldr	r0, [pc, #24]	; (80047f0 <log_printf+0x28>)
 80047d6:	f000 f957 	bl	8004a88 <fnprintf>
    while(!usart_get_flag(SPF_USART, USART_ISR_TC)) {}
 80047da:	2140      	movs	r1, #64	; 0x40
 80047dc:	4805      	ldr	r0, [pc, #20]	; (80047f4 <log_printf+0x2c>)
 80047de:	f000 ff62 	bl	80056a6 <usart_get_flag>
 80047e2:	2800      	cmp	r0, #0
 80047e4:	d0f9      	beq.n	80047da <log_printf+0x12>
}
 80047e6:	b003      	add	sp, #12
 80047e8:	bc08      	pop	{r3}
 80047ea:	b004      	add	sp, #16
 80047ec:	4718      	bx	r3
 80047ee:	46c0      	nop			; (mov r8, r8)
 80047f0:	080047b1 	.word	0x080047b1
 80047f4:	40013800 	.word	0x40013800

080047f8 <log_init>:
{
 80047f8:	b510      	push	{r4, lr}
	logger.size = EEPROM_LOG_SIZE;
 80047fa:	4b0b      	ldr	r3, [pc, #44]	; (8004828 <log_init+0x30>)
 80047fc:	2280      	movs	r2, #128	; 0x80
 80047fe:	00d2      	lsls	r2, r2, #3
 8004800:	801a      	strh	r2, [r3, #0]
	logger.write_index = 0;
 8004802:	2200      	movs	r2, #0
 8004804:	805a      	strh	r2, [r3, #2]
	logger.read_index = 0;
 8004806:	809a      	strh	r2, [r3, #4]
	log_printf("\n\nLog Init\n----------------\n");
 8004808:	4808      	ldr	r0, [pc, #32]	; (800482c <log_init+0x34>)
 800480a:	f7ff ffdd 	bl	80047c8 <log_printf>
	cusb_init();
 800480e:	f7ff fd55 	bl	80042bc <cusb_init>
    usart_setup();
 8004812:	f7ff ff53 	bl	80046bc <usart_setup>
	for(int i = 0; i < 100000; i++){__asm__("nop");};
 8004816:	2300      	movs	r3, #0
 8004818:	4a05      	ldr	r2, [pc, #20]	; (8004830 <log_init+0x38>)
 800481a:	4293      	cmp	r3, r2
 800481c:	dc02      	bgt.n	8004824 <log_init+0x2c>
 800481e:	46c0      	nop			; (mov r8, r8)
 8004820:	3301      	adds	r3, #1
 8004822:	e7f9      	b.n	8004818 <log_init+0x20>
}
 8004824:	bd10      	pop	{r4, pc}
 8004826:	46c0      	nop			; (mov r8, r8)
 8004828:	200002dc 	.word	0x200002dc
 800482c:	08006dfc 	.word	0x08006dfc
 8004830:	0001869f 	.word	0x0001869f

08004834 <serial_printf>:
{
 8004834:	b40f      	push	{r0, r1, r2, r3}
 8004836:	b500      	push	{lr}
 8004838:	b083      	sub	sp, #12
 800483a:	aa04      	add	r2, sp, #16
 800483c:	ca02      	ldmia	r2!, {r1}
	va_start(va, format);
 800483e:	9201      	str	r2, [sp, #4]
	fnprintf(_putchar_spf, format, va);
 8004840:	4806      	ldr	r0, [pc, #24]	; (800485c <serial_printf+0x28>)
 8004842:	f000 f921 	bl	8004a88 <fnprintf>
    while(!usart_get_flag(SPF_USART, USART_ISR_TC)) {}
 8004846:	2140      	movs	r1, #64	; 0x40
 8004848:	4805      	ldr	r0, [pc, #20]	; (8004860 <serial_printf+0x2c>)
 800484a:	f000 ff2c 	bl	80056a6 <usart_get_flag>
 800484e:	2800      	cmp	r0, #0
 8004850:	d0f9      	beq.n	8004846 <serial_printf+0x12>
}
 8004852:	b003      	add	sp, #12
 8004854:	bc08      	pop	{r3}
 8004856:	b004      	add	sp, #16
 8004858:	4718      	bx	r3
 800485a:	46c0      	nop			; (mov r8, r8)
 800485c:	08004799 	.word	0x08004799
 8004860:	40013800 	.word	0x40013800

08004864 <log_read_reset>:
	logger.read_index = logger.write_index;
 8004864:	4b01      	ldr	r3, [pc, #4]	; (800486c <log_read_reset+0x8>)
 8004866:	885a      	ldrh	r2, [r3, #2]
 8004868:	809a      	strh	r2, [r3, #4]
}
 800486a:	4770      	bx	lr
 800486c:	200002dc 	.word	0x200002dc

08004870 <log_read>:
{
 8004870:	b510      	push	{r4, lr}
	logger.read_index = (logger.read_index + 1) % logger.size;
 8004872:	4c09      	ldr	r4, [pc, #36]	; (8004898 <log_read+0x28>)
 8004874:	88a0      	ldrh	r0, [r4, #4]
 8004876:	3001      	adds	r0, #1
 8004878:	8821      	ldrh	r1, [r4, #0]
 800487a:	f002 f9cf 	bl	8006c1c <__aeabi_idivmod>
 800487e:	b289      	uxth	r1, r1
 8004880:	80a1      	strh	r1, [r4, #4]
	if(logger.read_index == logger.write_index)
 8004882:	8863      	ldrh	r3, [r4, #2]
 8004884:	4299      	cmp	r1, r3
 8004886:	d005      	beq.n	8004894 <log_read+0x24>
		byte = MMIO8(EEPROM_LOG_START + logger.read_index);
 8004888:	4b04      	ldr	r3, [pc, #16]	; (800489c <log_read+0x2c>)
 800488a:	469c      	mov	ip, r3
 800488c:	4461      	add	r1, ip
 800488e:	7808      	ldrb	r0, [r1, #0]
 8004890:	b2c0      	uxtb	r0, r0
}
 8004892:	bd10      	pop	{r4, pc}
		byte = 0;
 8004894:	2000      	movs	r0, #0
 8004896:	e7fc      	b.n	8004892 <log_read+0x22>
 8004898:	200002dc 	.word	0x200002dc
 800489c:	08080100 	.word	0x08080100

080048a0 <mem_eeprom_write_word>:
    // }
}


bool mem_eeprom_write_word(uint32_t address, uint32_t data)
{
 80048a0:	b570      	push	{r4, r5, r6, lr}
 80048a2:	0004      	movs	r4, r0
 80048a4:	000d      	movs	r5, r1
    if( !(address >= EEPROM_START && address < EEPROM_END) )
 80048a6:	4b0f      	ldr	r3, [pc, #60]	; (80048e4 <mem_eeprom_write_word+0x44>)
 80048a8:	18c2      	adds	r2, r0, r3
 80048aa:	2380      	movs	r3, #128	; 0x80
 80048ac:	011b      	lsls	r3, r3, #4
 80048ae:	429a      	cmp	r2, r3
 80048b0:	d301      	bcc.n	80048b6 <mem_eeprom_write_word+0x16>
        return false;
 80048b2:	2000      	movs	r0, #0
        FLASH_SR = FLASH_SR_EOP;

    flash_lock_pecr();

    return true;
}
 80048b4:	bd70      	pop	{r4, r5, r6, pc}
    flash_unlock_pecr();
 80048b6:	f000 fc27 	bl	8005108 <flash_unlock_pecr>
    FLASH_PECR &= ~FLASH_PECR_FTDW;
 80048ba:	4a0b      	ldr	r2, [pc, #44]	; (80048e8 <mem_eeprom_write_word+0x48>)
 80048bc:	6813      	ldr	r3, [r2, #0]
 80048be:	490b      	ldr	r1, [pc, #44]	; (80048ec <mem_eeprom_write_word+0x4c>)
 80048c0:	400b      	ands	r3, r1
 80048c2:	6013      	str	r3, [r2, #0]
    MMIO32(address) = data;
 80048c4:	6025      	str	r5, [r4, #0]
    while (FLASH_SR & FLASH_SR_BSY);
 80048c6:	4b0a      	ldr	r3, [pc, #40]	; (80048f0 <mem_eeprom_write_word+0x50>)
 80048c8:	681b      	ldr	r3, [r3, #0]
 80048ca:	07db      	lsls	r3, r3, #31
 80048cc:	d4fb      	bmi.n	80048c6 <mem_eeprom_write_word+0x26>
    if (FLASH_SR & FLASH_SR_EOP)
 80048ce:	4b08      	ldr	r3, [pc, #32]	; (80048f0 <mem_eeprom_write_word+0x50>)
 80048d0:	681b      	ldr	r3, [r3, #0]
 80048d2:	079b      	lsls	r3, r3, #30
 80048d4:	d502      	bpl.n	80048dc <mem_eeprom_write_word+0x3c>
        FLASH_SR = FLASH_SR_EOP;
 80048d6:	4b06      	ldr	r3, [pc, #24]	; (80048f0 <mem_eeprom_write_word+0x50>)
 80048d8:	2202      	movs	r2, #2
 80048da:	601a      	str	r2, [r3, #0]
    flash_lock_pecr();
 80048dc:	f000 fc20 	bl	8005120 <flash_lock_pecr>
    return true;
 80048e0:	2001      	movs	r0, #1
 80048e2:	e7e7      	b.n	80048b4 <mem_eeprom_write_word+0x14>
 80048e4:	f7f80000 	.word	0xf7f80000
 80048e8:	40022004 	.word	0x40022004
 80048ec:	fffffeff 	.word	0xfffffeff
 80048f0:	40022018 	.word	0x40022018

080048f4 <mem_eeprom_write_byte>:

    return true;
}

bool mem_eeprom_write_byte(uint32_t address, uint8_t data)
{
 80048f4:	b570      	push	{r4, r5, r6, lr}
 80048f6:	0004      	movs	r4, r0
 80048f8:	000d      	movs	r5, r1
    if( !(address >= EEPROM_START && address < EEPROM_END) )
 80048fa:	4b11      	ldr	r3, [pc, #68]	; (8004940 <mem_eeprom_write_byte+0x4c>)
 80048fc:	18c2      	adds	r2, r0, r3
 80048fe:	2380      	movs	r3, #128	; 0x80
 8004900:	011b      	lsls	r3, r3, #4
 8004902:	429a      	cmp	r2, r3
 8004904:	d216      	bcs.n	8004934 <mem_eeprom_write_byte+0x40>
    {
        serial_printf("Mem Log EEPROM Address out of bounds\n");
        return false;
    }

    flash_unlock_pecr();
 8004906:	f000 fbff 	bl	8005108 <flash_unlock_pecr>
    FLASH_PECR &= ~FLASH_PECR_FTDW;
 800490a:	4a0e      	ldr	r2, [pc, #56]	; (8004944 <mem_eeprom_write_byte+0x50>)
 800490c:	6813      	ldr	r3, [r2, #0]
 800490e:	490e      	ldr	r1, [pc, #56]	; (8004948 <mem_eeprom_write_byte+0x54>)
 8004910:	400b      	ands	r3, r1
 8004912:	6013      	str	r3, [r2, #0]

    MMIO8(address) = data;
 8004914:	7025      	strb	r5, [r4, #0]

    while (FLASH_SR & FLASH_SR_BSY);
 8004916:	4b0d      	ldr	r3, [pc, #52]	; (800494c <mem_eeprom_write_byte+0x58>)
 8004918:	681b      	ldr	r3, [r3, #0]
 800491a:	07db      	lsls	r3, r3, #31
 800491c:	d4fb      	bmi.n	8004916 <mem_eeprom_write_byte+0x22>
    if (FLASH_SR & FLASH_SR_EOP)
 800491e:	4b0b      	ldr	r3, [pc, #44]	; (800494c <mem_eeprom_write_byte+0x58>)
 8004920:	681b      	ldr	r3, [r3, #0]
 8004922:	079b      	lsls	r3, r3, #30
 8004924:	d502      	bpl.n	800492c <mem_eeprom_write_byte+0x38>
        FLASH_SR = FLASH_SR_EOP;
 8004926:	4b09      	ldr	r3, [pc, #36]	; (800494c <mem_eeprom_write_byte+0x58>)
 8004928:	2202      	movs	r2, #2
 800492a:	601a      	str	r2, [r3, #0]

    flash_lock_pecr();
 800492c:	f000 fbf8 	bl	8005120 <flash_lock_pecr>

    return true;
 8004930:	2001      	movs	r0, #1
}
 8004932:	bd70      	pop	{r4, r5, r6, pc}
        serial_printf("Mem Log EEPROM Address out of bounds\n");
 8004934:	4806      	ldr	r0, [pc, #24]	; (8004950 <mem_eeprom_write_byte+0x5c>)
 8004936:	f7ff ff7d 	bl	8004834 <serial_printf>
        return false;
 800493a:	2000      	movs	r0, #0
 800493c:	e7f9      	b.n	8004932 <mem_eeprom_write_byte+0x3e>
 800493e:	46c0      	nop			; (mov r8, r8)
 8004940:	f7f80000 	.word	0xf7f80000
 8004944:	40022004 	.word	0x40022004
 8004948:	fffffeff 	.word	0xfffffeff
 800494c:	40022018 	.word	0x40022018
 8004950:	08006e1c 	.word	0x08006e1c

08004954 <mem_flash_erase_page>:


bool mem_flash_erase_page(uint32_t address)
{
 8004954:	b510      	push	{r4, lr}
 8004956:	0004      	movs	r4, r0
    bool result = false;

    // Check page aligned
    if (address & 0x7F)
 8004958:	0643      	lsls	r3, r0, #25
 800495a:	d002      	beq.n	8004962 <mem_flash_erase_page+0xe>
        return false; 
 800495c:	2400      	movs	r4, #0

    flash_unlock();
    result = mem_flash_do_page_erase(address);
    flash_lock();
    return result;
}
 800495e:	0020      	movs	r0, r4
 8004960:	bd10      	pop	{r4, pc}
    flash_unlock();
 8004962:	f000 fc01 	bl	8005168 <flash_unlock>
    result = mem_flash_do_page_erase(address);
 8004966:	0020      	movs	r0, r4
 8004968:	f002 f976 	bl	8006c58 <__mem_flash_do_page_erase_veneer>
 800496c:	0004      	movs	r4, r0
    flash_lock();
 800496e:	f000 fc03 	bl	8005178 <flash_lock>
    return result;
 8004972:	e7f4      	b.n	800495e <mem_flash_erase_page+0xa>

08004974 <mem_flash_write_half_page>:

bool mem_flash_write_half_page(uint32_t address, uint32_t *data)
{
 8004974:	b570      	push	{r4, r5, r6, lr}
 8004976:	0004      	movs	r4, r0
 8004978:	000d      	movs	r5, r1
    bool result = false;

    if ((uint32_t)address & 0x3F)
 800497a:	0683      	lsls	r3, r0, #26
 800497c:	d002      	beq.n	8004984 <mem_flash_write_half_page+0x10>
        return false; //not half-page aligned
 800497e:	2400      	movs	r4, #0

    flash_unlock();
    result = mem_flash_do_write_half_page(address, data);
    flash_lock();
    return result;
}
 8004980:	0020      	movs	r0, r4
 8004982:	bd70      	pop	{r4, r5, r6, pc}
    flash_unlock();
 8004984:	f000 fbf0 	bl	8005168 <flash_unlock>
    result = mem_flash_do_write_half_page(address, data);
 8004988:	0029      	movs	r1, r5
 800498a:	0020      	movs	r0, r4
 800498c:	f002 f95c 	bl	8006c48 <__mem_flash_do_write_half_page_veneer>
 8004990:	0004      	movs	r4, r0
    flash_lock();
 8004992:	f000 fbf1 	bl	8005178 <flash_lock>
    return result;
 8004996:	e7f3      	b.n	8004980 <mem_flash_write_half_page+0xc>

08004998 <_atoi>:
    return (ch >= '0') && (ch <= '9');
}

// internal ASCII string to uint32_t conversion
static uint32_t _atoi(const char **str)
{
 8004998:	0001      	movs	r1, r0
    uint32_t i = 0U;
 800499a:	2000      	movs	r0, #0
    while (_is_digit(**str))
 800499c:	680a      	ldr	r2, [r1, #0]
 800499e:	7813      	ldrb	r3, [r2, #0]
    return (ch >= '0') && (ch <= '9');
 80049a0:	3b30      	subs	r3, #48	; 0x30
 80049a2:	b2db      	uxtb	r3, r3
    while (_is_digit(**str))
 80049a4:	2b09      	cmp	r3, #9
 80049a6:	d808      	bhi.n	80049ba <_atoi+0x22>
    {
        i = i * 10U + (uint32_t)(*((*str)++) - '0');
 80049a8:	0083      	lsls	r3, r0, #2
 80049aa:	181b      	adds	r3, r3, r0
 80049ac:	005b      	lsls	r3, r3, #1
 80049ae:	1c50      	adds	r0, r2, #1
 80049b0:	6008      	str	r0, [r1, #0]
 80049b2:	7810      	ldrb	r0, [r2, #0]
 80049b4:	18c0      	adds	r0, r0, r3
 80049b6:	3830      	subs	r0, #48	; 0x30
 80049b8:	e7f0      	b.n	800499c <_atoi+0x4>
    }
    return i;
}
 80049ba:	4770      	bx	lr

080049bc <_ntoa_format>:

// internal itoa format
static uint32_t _ntoa_format(out_fct_type out, uint32_t value, uint32_t base, uint32_t width, bool negative)
{
 80049bc:	b5f0      	push	{r4, r5, r6, r7, lr}
 80049be:	46d6      	mov	lr, sl
 80049c0:	464f      	mov	r7, r9
 80049c2:	4646      	mov	r6, r8
 80049c4:	b5c0      	push	{r6, r7, lr}
 80049c6:	b088      	sub	sp, #32
 80049c8:	4680      	mov	r8, r0
 80049ca:	000c      	movs	r4, r1
 80049cc:	0015      	movs	r5, r2
 80049ce:	469a      	mov	sl, r3
 80049d0:	ab10      	add	r3, sp, #64	; 0x40
 80049d2:	781b      	ldrb	r3, [r3, #0]
 80049d4:	4699      	mov	r9, r3
    char buf[PRINTF_NTOA_BUFFER_SIZE];
    uint32_t len = 0;
 80049d6:	2600      	movs	r6, #0
 80049d8:	e00e      	b.n	80049f8 <_ntoa_format+0x3c>

    // Digits to char
    do
    {
        const char digit = (char)(value % base);
        buf[len++] = digit < 10 ? '0' + digit : ('A') + digit - 10;
 80049da:	3130      	adds	r1, #48	; 0x30
 80049dc:	b2c9      	uxtb	r1, r1
 80049de:	1c77      	adds	r7, r6, #1
 80049e0:	466b      	mov	r3, sp
 80049e2:	5599      	strb	r1, [r3, r6]
        value /= base;
 80049e4:	0029      	movs	r1, r5
 80049e6:	0020      	movs	r0, r4
 80049e8:	f001 ffa8 	bl	800693c <__udivsi3>
    } while (value && (len < PRINTF_NTOA_BUFFER_SIZE));
 80049ec:	42ac      	cmp	r4, r5
 80049ee:	d311      	bcc.n	8004a14 <_ntoa_format+0x58>
 80049f0:	2f1f      	cmp	r7, #31
 80049f2:	d80f      	bhi.n	8004a14 <_ntoa_format+0x58>
        buf[len++] = digit < 10 ? '0' + digit : ('A') + digit - 10;
 80049f4:	003e      	movs	r6, r7
        value /= base;
 80049f6:	0004      	movs	r4, r0
        const char digit = (char)(value % base);
 80049f8:	0029      	movs	r1, r5
 80049fa:	0020      	movs	r0, r4
 80049fc:	f002 f824 	bl	8006a48 <__aeabi_uidivmod>
 8004a00:	b2c9      	uxtb	r1, r1
        buf[len++] = digit < 10 ? '0' + digit : ('A') + digit - 10;
 8004a02:	2909      	cmp	r1, #9
 8004a04:	d9e9      	bls.n	80049da <_ntoa_format+0x1e>
 8004a06:	3137      	adds	r1, #55	; 0x37
 8004a08:	b2c9      	uxtb	r1, r1
 8004a0a:	e7e8      	b.n	80049de <_ntoa_format+0x22>

    // pad leading zeros
    while ((len < width) && (len < PRINTF_NTOA_BUFFER_SIZE))
    {
        buf[len++] = '0';
 8004a0c:	2330      	movs	r3, #48	; 0x30
 8004a0e:	466a      	mov	r2, sp
 8004a10:	55d3      	strb	r3, [r2, r7]
 8004a12:	3701      	adds	r7, #1
    while ((len < width) && (len < PRINTF_NTOA_BUFFER_SIZE))
 8004a14:	4557      	cmp	r7, sl
 8004a16:	d201      	bcs.n	8004a1c <_ntoa_format+0x60>
 8004a18:	2f1f      	cmp	r7, #31
 8004a1a:	d9f7      	bls.n	8004a0c <_ntoa_format+0x50>
    }

    // Base specifier
    if ((base == 16U) && (len < PRINTF_NTOA_BUFFER_SIZE))
 8004a1c:	2d10      	cmp	r5, #16
 8004a1e:	d016      	beq.n	8004a4e <_ntoa_format+0x92>
    {
        buf[len++] = 'X';
    }
    else if ((base == 2U) && (len < PRINTF_NTOA_BUFFER_SIZE))
 8004a20:	2d02      	cmp	r5, #2
 8004a22:	d01b      	beq.n	8004a5c <_ntoa_format+0xa0>
    {
        buf[len++] = 'b';
    }
    if (((base == 16U) || (base == 2U)) && (len < PRINTF_NTOA_BUFFER_SIZE))
 8004a24:	2d10      	cmp	r5, #16
 8004a26:	d020      	beq.n	8004a6a <_ntoa_format+0xae>
 8004a28:	2d02      	cmp	r5, #2
 8004a2a:	d01e      	beq.n	8004a6a <_ntoa_format+0xae>
    {
        buf[len++] = '0';
    }

    if (negative && (len < PRINTF_NTOA_BUFFER_SIZE))
 8004a2c:	464b      	mov	r3, r9
 8004a2e:	2b00      	cmp	r3, #0
 8004a30:	d005      	beq.n	8004a3e <_ntoa_format+0x82>
 8004a32:	2f1f      	cmp	r7, #31
 8004a34:	d803      	bhi.n	8004a3e <_ntoa_format+0x82>
    {
        buf[len++] = '-';
 8004a36:	232d      	movs	r3, #45	; 0x2d
 8004a38:	466a      	mov	r2, sp
 8004a3a:	55d3      	strb	r3, [r2, r7]
 8004a3c:	3701      	adds	r7, #1
    }

    // reverse string and write out
    uint32_t i = len;
 8004a3e:	003c      	movs	r4, r7
    while (i)
 8004a40:	2c00      	cmp	r4, #0
 8004a42:	d019      	beq.n	8004a78 <_ntoa_format+0xbc>
    {
        out(buf[--i]);
 8004a44:	3c01      	subs	r4, #1
 8004a46:	466b      	mov	r3, sp
 8004a48:	5d18      	ldrb	r0, [r3, r4]
 8004a4a:	47c0      	blx	r8
 8004a4c:	e7f8      	b.n	8004a40 <_ntoa_format+0x84>
    if ((base == 16U) && (len < PRINTF_NTOA_BUFFER_SIZE))
 8004a4e:	2f1f      	cmp	r7, #31
 8004a50:	d8e6      	bhi.n	8004a20 <_ntoa_format+0x64>
        buf[len++] = 'X';
 8004a52:	2358      	movs	r3, #88	; 0x58
 8004a54:	466a      	mov	r2, sp
 8004a56:	55d3      	strb	r3, [r2, r7]
 8004a58:	3701      	adds	r7, #1
 8004a5a:	e7e3      	b.n	8004a24 <_ntoa_format+0x68>
    else if ((base == 2U) && (len < PRINTF_NTOA_BUFFER_SIZE))
 8004a5c:	2f1f      	cmp	r7, #31
 8004a5e:	d8e1      	bhi.n	8004a24 <_ntoa_format+0x68>
        buf[len++] = 'b';
 8004a60:	2362      	movs	r3, #98	; 0x62
 8004a62:	466a      	mov	r2, sp
 8004a64:	55d3      	strb	r3, [r2, r7]
 8004a66:	3701      	adds	r7, #1
 8004a68:	e7dc      	b.n	8004a24 <_ntoa_format+0x68>
    if (((base == 16U) || (base == 2U)) && (len < PRINTF_NTOA_BUFFER_SIZE))
 8004a6a:	2f1f      	cmp	r7, #31
 8004a6c:	d8de      	bhi.n	8004a2c <_ntoa_format+0x70>
        buf[len++] = '0';
 8004a6e:	2330      	movs	r3, #48	; 0x30
 8004a70:	466a      	mov	r2, sp
 8004a72:	55d3      	strb	r3, [r2, r7]
 8004a74:	3701      	adds	r7, #1
 8004a76:	e7d9      	b.n	8004a2c <_ntoa_format+0x70>
    }
    return len;
}
 8004a78:	0038      	movs	r0, r7
 8004a7a:	b008      	add	sp, #32
 8004a7c:	bce0      	pop	{r5, r6, r7}
 8004a7e:	46ba      	mov	sl, r7
 8004a80:	46b1      	mov	r9, r6
 8004a82:	46a8      	mov	r8, r5
 8004a84:	bdf0      	pop	{r4, r5, r6, r7, pc}
	...

08004a88 <fnprintf>:

uint32_t fnprintf(out_fct_type out, const char *format, va_list va)
{
 8004a88:	b570      	push	{r4, r5, r6, lr}
 8004a8a:	b084      	sub	sp, #16
 8004a8c:	0005      	movs	r5, r0
 8004a8e:	9103      	str	r1, [sp, #12]
 8004a90:	9202      	str	r2, [sp, #8]
    uint32_t width;
    uint32_t idx = 0U;
 8004a92:	2400      	movs	r4, #0

    while (*format)
 8004a94:	e004      	b.n	8004aa0 <fnprintf+0x18>
            format++;
        }
        else
        {
            // Just print char
            out(*format);
 8004a96:	47a8      	blx	r5
            idx++;
 8004a98:	3401      	adds	r4, #1
            format++;
 8004a9a:	9b03      	ldr	r3, [sp, #12]
 8004a9c:	3301      	adds	r3, #1
 8004a9e:	9303      	str	r3, [sp, #12]
    while (*format)
 8004aa0:	9b03      	ldr	r3, [sp, #12]
 8004aa2:	7818      	ldrb	r0, [r3, #0]
 8004aa4:	2800      	cmp	r0, #0
 8004aa6:	d100      	bne.n	8004aaa <fnprintf+0x22>
 8004aa8:	e08c      	b.n	8004bc4 <fnprintf+0x13c>
        if (*format == '%')
 8004aaa:	2825      	cmp	r0, #37	; 0x25
 8004aac:	d1f3      	bne.n	8004a96 <fnprintf+0xe>
            format++;
 8004aae:	1c5a      	adds	r2, r3, #1
 8004ab0:	9203      	str	r2, [sp, #12]
            continue;
        }

        // evaluate width field
        width = 0U;
        if (_is_digit(*format))
 8004ab2:	785b      	ldrb	r3, [r3, #1]
    return (ch >= '0') && (ch <= '9');
 8004ab4:	3b30      	subs	r3, #48	; 0x30
 8004ab6:	b2db      	uxtb	r3, r3
        if (_is_digit(*format))
 8004ab8:	2b09      	cmp	r3, #9
 8004aba:	d90b      	bls.n	8004ad4 <fnprintf+0x4c>
        width = 0U;
 8004abc:	2300      	movs	r3, #0
        {
            width = _atoi(&format);
        }

        // evaluate specifier
        switch (*format)
 8004abe:	9a03      	ldr	r2, [sp, #12]
 8004ac0:	7810      	ldrb	r0, [r2, #0]
 8004ac2:	0002      	movs	r2, r0
 8004ac4:	3a25      	subs	r2, #37	; 0x25
 8004ac6:	b2d1      	uxtb	r1, r2
 8004ac8:	2953      	cmp	r1, #83	; 0x53
 8004aca:	d875      	bhi.n	8004bb8 <fnprintf+0x130>
 8004acc:	008a      	lsls	r2, r1, #2
 8004ace:	493f      	ldr	r1, [pc, #252]	; (8004bcc <fnprintf+0x144>)
 8004ad0:	588a      	ldr	r2, [r1, r2]
 8004ad2:	4697      	mov	pc, r2
            width = _atoi(&format);
 8004ad4:	a803      	add	r0, sp, #12
 8004ad6:	f7ff ff5f 	bl	8004998 <_atoi>
 8004ada:	0003      	movs	r3, r0
 8004adc:	e7ef      	b.n	8004abe <fnprintf+0x36>
        case 'o':
        case 'b':
        {
            // set the base
            uint32_t base;
            if (*format == 'x' || *format == 'X')
 8004ade:	2878      	cmp	r0, #120	; 0x78
 8004ae0:	d009      	beq.n	8004af6 <fnprintf+0x6e>
 8004ae2:	2858      	cmp	r0, #88	; 0x58
 8004ae4:	d01d      	beq.n	8004b22 <fnprintf+0x9a>
            {
                base = 16U;
            }
            else if (*format == 'o')
 8004ae6:	286f      	cmp	r0, #111	; 0x6f
 8004ae8:	d01d      	beq.n	8004b26 <fnprintf+0x9e>
            {
                base = 8U;
            }
            else if (*format == 'b')
 8004aea:	2862      	cmp	r0, #98	; 0x62
 8004aec:	d001      	beq.n	8004af2 <fnprintf+0x6a>
            {
                base = 2U;
            }
            else
            {
                base = 10U;
 8004aee:	220a      	movs	r2, #10
 8004af0:	e002      	b.n	8004af8 <fnprintf+0x70>
                base = 2U;
 8004af2:	2202      	movs	r2, #2
 8004af4:	e000      	b.n	8004af8 <fnprintf+0x70>
                base = 16U;
 8004af6:	2210      	movs	r2, #16
            }

            // convert integer
            if ((*format == 'i') || (*format == 'd'))
 8004af8:	2869      	cmp	r0, #105	; 0x69
 8004afa:	d001      	beq.n	8004b00 <fnprintf+0x78>
 8004afc:	2864      	cmp	r0, #100	; 0x64
 8004afe:	d114      	bne.n	8004b2a <fnprintf+0xa2>
            {
                int32_t val = (int32_t)va_arg(va, int);
 8004b00:	9902      	ldr	r1, [sp, #8]
 8004b02:	1d08      	adds	r0, r1, #4
 8004b04:	9002      	str	r0, [sp, #8]
 8004b06:	6808      	ldr	r0, [r1, #0]
                idx += _ntoa_format(out, (val < 0)? (0-val) : val, base, width, (val < 0)? true : false);
 8004b08:	17c6      	asrs	r6, r0, #31
 8004b0a:	1981      	adds	r1, r0, r6
 8004b0c:	4071      	eors	r1, r6
 8004b0e:	0fc0      	lsrs	r0, r0, #31
 8004b10:	9000      	str	r0, [sp, #0]
 8004b12:	0028      	movs	r0, r5
 8004b14:	f7ff ff52 	bl	80049bc <_ntoa_format>
 8004b18:	1824      	adds	r4, r4, r0
            }
            else
            {
                idx += _ntoa_format(out, va_arg(va, int), base, width, false);
            }
            format++;
 8004b1a:	9b03      	ldr	r3, [sp, #12]
 8004b1c:	3301      	adds	r3, #1
 8004b1e:	9303      	str	r3, [sp, #12]
            break;
 8004b20:	e7be      	b.n	8004aa0 <fnprintf+0x18>
                base = 16U;
 8004b22:	2210      	movs	r2, #16
 8004b24:	e7e8      	b.n	8004af8 <fnprintf+0x70>
                base = 8U;
 8004b26:	2208      	movs	r2, #8
 8004b28:	e7e6      	b.n	8004af8 <fnprintf+0x70>
                idx += _ntoa_format(out, va_arg(va, int), base, width, false);
 8004b2a:	9902      	ldr	r1, [sp, #8]
 8004b2c:	1d08      	adds	r0, r1, #4
 8004b2e:	9002      	str	r0, [sp, #8]
 8004b30:	6809      	ldr	r1, [r1, #0]
 8004b32:	2000      	movs	r0, #0
 8004b34:	9000      	str	r0, [sp, #0]
 8004b36:	0028      	movs	r0, r5
 8004b38:	f7ff ff40 	bl	80049bc <_ntoa_format>
 8004b3c:	1824      	adds	r4, r4, r0
 8004b3e:	e7ec      	b.n	8004b1a <fnprintf+0x92>
        }

        case 'c':
        {
            out((char)va_arg(va, int));
 8004b40:	9b02      	ldr	r3, [sp, #8]
 8004b42:	1d1a      	adds	r2, r3, #4
 8004b44:	9202      	str	r2, [sp, #8]
 8004b46:	7818      	ldrb	r0, [r3, #0]
 8004b48:	47a8      	blx	r5
            idx++;
 8004b4a:	3401      	adds	r4, #1
            format++;
 8004b4c:	9b03      	ldr	r3, [sp, #12]
 8004b4e:	3301      	adds	r3, #1
 8004b50:	9303      	str	r3, [sp, #12]
            break;
 8004b52:	e7a5      	b.n	8004aa0 <fnprintf+0x18>
        }

        case 's':
        {
            const char *p = va_arg(va, char *);
 8004b54:	9b02      	ldr	r3, [sp, #8]
 8004b56:	1d1a      	adds	r2, r3, #4
 8004b58:	9202      	str	r2, [sp, #8]
 8004b5a:	681e      	ldr	r6, [r3, #0]
    for (s = str; *s && maxsize--; ++s)
 8004b5c:	0033      	movs	r3, r6
 8004b5e:	2280      	movs	r2, #128	; 0x80
 8004b60:	00d2      	lsls	r2, r2, #3
 8004b62:	e001      	b.n	8004b68 <fnprintf+0xe0>
 8004b64:	3301      	adds	r3, #1
 8004b66:	000a      	movs	r2, r1
 8004b68:	7819      	ldrb	r1, [r3, #0]
 8004b6a:	2900      	cmp	r1, #0
 8004b6c:	d002      	beq.n	8004b74 <fnprintf+0xec>
 8004b6e:	1e51      	subs	r1, r2, #1
 8004b70:	2a00      	cmp	r2, #0
 8004b72:	d1f7      	bne.n	8004b64 <fnprintf+0xdc>
            uint32_t l = _strnlen_s(p, PRINTF_MAX_STR_LEN);

            // string output
            while (*p != 0)
 8004b74:	7830      	ldrb	r0, [r6, #0]
 8004b76:	2800      	cmp	r0, #0
 8004b78:	d003      	beq.n	8004b82 <fnprintf+0xfa>
            {
                out(*(p++));
 8004b7a:	3601      	adds	r6, #1
 8004b7c:	47a8      	blx	r5
                idx++;
 8004b7e:	3401      	adds	r4, #1
 8004b80:	e7f8      	b.n	8004b74 <fnprintf+0xec>
            }
            format++;
 8004b82:	9b03      	ldr	r3, [sp, #12]
 8004b84:	3301      	adds	r3, #1
 8004b86:	9303      	str	r3, [sp, #12]
            break;
 8004b88:	e78a      	b.n	8004aa0 <fnprintf+0x18>
        }

        case 'p':
        {
            width = sizeof(void *) * 2U;
            idx += _ntoa_format(out, (int32_t)((uintptr_t)va_arg(va, void *)), 16U, width, false);
 8004b8a:	9b02      	ldr	r3, [sp, #8]
 8004b8c:	1d1a      	adds	r2, r3, #4
 8004b8e:	9202      	str	r2, [sp, #8]
 8004b90:	6819      	ldr	r1, [r3, #0]
 8004b92:	2300      	movs	r3, #0
 8004b94:	9300      	str	r3, [sp, #0]
 8004b96:	3308      	adds	r3, #8
 8004b98:	2210      	movs	r2, #16
 8004b9a:	0028      	movs	r0, r5
 8004b9c:	f7ff ff0e 	bl	80049bc <_ntoa_format>
 8004ba0:	1824      	adds	r4, r4, r0
            format++;
 8004ba2:	9b03      	ldr	r3, [sp, #12]
 8004ba4:	3301      	adds	r3, #1
 8004ba6:	9303      	str	r3, [sp, #12]
            break;
 8004ba8:	e77a      	b.n	8004aa0 <fnprintf+0x18>
        }

        case '%':
        {
            out('%');
 8004baa:	2025      	movs	r0, #37	; 0x25
 8004bac:	47a8      	blx	r5
            idx++;
 8004bae:	3401      	adds	r4, #1
            format++;
 8004bb0:	9b03      	ldr	r3, [sp, #12]
 8004bb2:	3301      	adds	r3, #1
 8004bb4:	9303      	str	r3, [sp, #12]
            break;
 8004bb6:	e773      	b.n	8004aa0 <fnprintf+0x18>
        }

        default:
        {
            out(*format);
 8004bb8:	47a8      	blx	r5
            idx++;
 8004bba:	3401      	adds	r4, #1
            format++;
 8004bbc:	9b03      	ldr	r3, [sp, #12]
 8004bbe:	3301      	adds	r3, #1
 8004bc0:	9303      	str	r3, [sp, #12]
            break;
 8004bc2:	e76d      	b.n	8004aa0 <fnprintf+0x18>
        }
        }
    }
    // return written chars without terminating \0
    return idx;
}
 8004bc4:	0020      	movs	r0, r4
 8004bc6:	b004      	add	sp, #16
 8004bc8:	bd70      	pop	{r4, r5, r6, pc}
 8004bca:	46c0      	nop			; (mov r8, r8)
 8004bcc:	08006e44 	.word	0x08006e44

08004bd0 <spi_read_single>:
 * 
 * @param reg Register to read
 * @retval Value read from register
 */
static uint8_t spi_read_single(uint8_t reg)
{
 8004bd0:	b570      	push	{r4, r5, r6, lr}
 8004bd2:	0004      	movs	r4, r0
  spi_chip_select();
 8004bd4:	25a0      	movs	r5, #160	; 0xa0
 8004bd6:	05ed      	lsls	r5, r5, #23
 8004bd8:	2140      	movs	r1, #64	; 0x40
 8004bda:	0028      	movs	r0, r5
 8004bdc:	f000 fad6 	bl	800518c <gpio_clear>
  timers_delay_microseconds(1);
 8004be0:	2001      	movs	r0, #1
 8004be2:	f000 f953 	bl	8004e8c <timers_delay_microseconds>

  spi_xfer(RFM_SPI, reg);                   
 8004be6:	b2a1      	uxth	r1, r4
 8004be8:	4c08      	ldr	r4, [pc, #32]	; (8004c0c <spi_read_single+0x3c>)
 8004bea:	0020      	movs	r0, r4
 8004bec:	f000 fccc 	bl	8005588 <spi_xfer>
  uint8_t in =  spi_xfer(RFM_SPI, 0x00);                   
 8004bf0:	2100      	movs	r1, #0
 8004bf2:	0020      	movs	r0, r4
 8004bf4:	f000 fcc8 	bl	8005588 <spi_xfer>
 8004bf8:	b2c4      	uxtb	r4, r0
    
  spi_chip_deselect(); 
 8004bfa:	2140      	movs	r1, #64	; 0x40
 8004bfc:	0028      	movs	r0, r5
 8004bfe:	f000 fac3 	bl	8005188 <gpio_set>
  timers_delay_microseconds(1);
 8004c02:	2001      	movs	r0, #1
 8004c04:	f000 f942 	bl	8004e8c <timers_delay_microseconds>

  return in;
}
 8004c08:	0020      	movs	r0, r4
 8004c0a:	bd70      	pop	{r4, r5, r6, pc}
 8004c0c:	40003800 	.word	0x40003800

08004c10 <spi_write_single>:
  spi_chip_deselect();     
  timers_delay_microseconds(1);
}

static void spi_write_single(uint8_t reg, uint8_t data)
{
 8004c10:	b5f8      	push	{r3, r4, r5, r6, r7, lr}
 8004c12:	0005      	movs	r5, r0
 8004c14:	000e      	movs	r6, r1
  // Set MSB for write operation
  uint8_t cmd = 0x80 | reg;
 8004c16:	2480      	movs	r4, #128	; 0x80
 8004c18:	4264      	negs	r4, r4
 8004c1a:	4304      	orrs	r4, r0
 8004c1c:	b2e4      	uxtb	r4, r4

  spi_chip_select();
 8004c1e:	27a0      	movs	r7, #160	; 0xa0
 8004c20:	05ff      	lsls	r7, r7, #23
 8004c22:	2140      	movs	r1, #64	; 0x40
 8004c24:	0038      	movs	r0, r7
 8004c26:	f000 fab1 	bl	800518c <gpio_clear>
  timers_delay_microseconds(1);
 8004c2a:	2001      	movs	r0, #1
 8004c2c:	f000 f92e 	bl	8004e8c <timers_delay_microseconds>

  spi_xfer(RFM_SPI, cmd);                 
 8004c30:	b2a1      	uxth	r1, r4
 8004c32:	4c15      	ldr	r4, [pc, #84]	; (8004c88 <spi_write_single+0x78>)
 8004c34:	0020      	movs	r0, r4
 8004c36:	f000 fca7 	bl	8005588 <spi_xfer>
  spi_xfer(RFM_SPI, data);             
 8004c3a:	b2b1      	uxth	r1, r6
 8004c3c:	0020      	movs	r0, r4
 8004c3e:	f000 fca3 	bl	8005588 <spi_xfer>

  spi_chip_deselect(); 
 8004c42:	2140      	movs	r1, #64	; 0x40
 8004c44:	0038      	movs	r0, r7
 8004c46:	f000 fa9f 	bl	8005188 <gpio_set>
  timers_delay_microseconds(1);
 8004c4a:	2001      	movs	r0, #1
 8004c4c:	f000 f91e 	bl	8004e8c <timers_delay_microseconds>

  uint8_t curr_data = spi_read_single(reg);
 8004c50:	0028      	movs	r0, r5
 8004c52:	f7ff ffbd 	bl	8004bd0 <spi_read_single>
 8004c56:	0004      	movs	r4, r0

  // log_printf("%02x : %02x\n", reg, data);

  if(reg == RFM_REG_12_IRQ_FLAGS)    
 8004c58:	2d12      	cmp	r5, #18
 8004c5a:	d013      	beq.n	8004c84 <spi_write_single+0x74>
    return;

  TIMEOUT(10000, "RFM SPI Write", ((reg << 16) | data), (curr_data == data), ;, timers_delay_microseconds(100); curr_data = spi_read_single(reg););
 8004c5c:	f000 f968 	bl	8004f30 <timeout_init>
 8004c60:	042a      	lsls	r2, r5, #16
 8004c62:	4332      	orrs	r2, r6
 8004c64:	4909      	ldr	r1, [pc, #36]	; (8004c8c <spi_write_single+0x7c>)
 8004c66:	480a      	ldr	r0, [pc, #40]	; (8004c90 <spi_write_single+0x80>)
 8004c68:	f000 f970 	bl	8004f4c <timeout>
 8004c6c:	2800      	cmp	r0, #0
 8004c6e:	d109      	bne.n	8004c84 <spi_write_single+0x74>
 8004c70:	42b4      	cmp	r4, r6
 8004c72:	d007      	beq.n	8004c84 <spi_write_single+0x74>
 8004c74:	2064      	movs	r0, #100	; 0x64
 8004c76:	f000 f909 	bl	8004e8c <timers_delay_microseconds>
 8004c7a:	0028      	movs	r0, r5
 8004c7c:	f7ff ffa8 	bl	8004bd0 <spi_read_single>
 8004c80:	0004      	movs	r4, r0
 8004c82:	e7ed      	b.n	8004c60 <spi_write_single+0x50>

  // log_printf("%02x : %02x : %02x\n", reg, data, curr_data);
}
 8004c84:	bdf8      	pop	{r3, r4, r5, r6, r7, pc}
 8004c86:	46c0      	nop			; (mov r8, r8)
 8004c88:	40003800 	.word	0x40003800
 8004c8c:	08006f94 	.word	0x08006f94
 8004c90:	00002710 	.word	0x00002710

08004c94 <exti4_15_isr>:
/*////////////////////////////////////////////////////////////////////////////*/
// Interrupts
/*////////////////////////////////////////////////////////////////////////////*/

void exti4_15_isr(void)
{
 8004c94:	b570      	push	{r4, r5, r6, lr}
  uint16_t timer = timers_micros();
 8004c96:	f000 f90f 	bl	8004eb8 <timers_micros>
  
  exti_reset_request(RFM_IO_0_EXTI);
 8004c9a:	2480      	movs	r4, #128	; 0x80
 8004c9c:	00e4      	lsls	r4, r4, #3
 8004c9e:	0020      	movs	r0, r4
 8004ca0:	f000 fa16 	bl	80050d0 <exti_reset_request>
  exti_reset_request(RFM_IO_0_EXTI);
 8004ca4:	0020      	movs	r0, r4
 8004ca6:	f000 fa13 	bl	80050d0 <exti_reset_request>

  // Store IRQ Flags
  packets_buf[packets_head].flags = get_irq();
 8004caa:	4d1b      	ldr	r5, [pc, #108]	; (8004d18 <exti4_15_isr+0x84>)
 8004cac:	782e      	ldrb	r6, [r5, #0]
  return spi_read_single(RFM_REG_12_IRQ_FLAGS);
 8004cae:	2012      	movs	r0, #18
 8004cb0:	f7ff ff8e 	bl	8004bd0 <spi_read_single>
  packets_buf[packets_head].flags = get_irq();
 8004cb4:	4c19      	ldr	r4, [pc, #100]	; (8004d1c <exti4_15_isr+0x88>)
 8004cb6:	0073      	lsls	r3, r6, #1
 8004cb8:	199b      	adds	r3, r3, r6
 8004cba:	00db      	lsls	r3, r3, #3
 8004cbc:	18e3      	adds	r3, r4, r3
 8004cbe:	7418      	strb	r0, [r3, #16]
  spi_write_single(RFM_REG_12_IRQ_FLAGS, irq);
 8004cc0:	21ff      	movs	r1, #255	; 0xff
 8004cc2:	2012      	movs	r0, #18
 8004cc4:	f7ff ffa4 	bl	8004c10 <spi_write_single>
 8004cc8:	21ff      	movs	r1, #255	; 0xff
 8004cca:	2012      	movs	r0, #18
 8004ccc:	f7ff ffa0 	bl	8004c10 <spi_write_single>
  clear_irq(RFM_IRQ_ALL);
  clear_irq(RFM_IRQ_ALL);

  // Get signal strength
  packets_buf[packets_head].rssi = spi_read_single(RFM_REG_1A_PKT_RSSI_VALUE);
 8004cd0:	201a      	movs	r0, #26
 8004cd2:	f7ff ff7d 	bl	8004bd0 <spi_read_single>
 8004cd6:	782a      	ldrb	r2, [r5, #0]
 8004cd8:	b200      	sxth	r0, r0
  packets_buf[packets_head].rssi -= 137;
 8004cda:	0053      	lsls	r3, r2, #1
 8004cdc:	189b      	adds	r3, r3, r2
 8004cde:	00db      	lsls	r3, r3, #3
 8004ce0:	18e3      	adds	r3, r4, r3
 8004ce2:	3889      	subs	r0, #137	; 0x89
 8004ce4:	8298      	strh	r0, [r3, #20]
  packets_buf[packets_head].snr = spi_read_single(RFM_REG_19_PKT_SNR_VALUE) / 4;
 8004ce6:	2019      	movs	r0, #25
 8004ce8:	f7ff ff72 	bl	8004bd0 <spi_read_single>
 8004cec:	782b      	ldrb	r3, [r5, #0]
 8004cee:	005a      	lsls	r2, r3, #1
 8004cf0:	18d2      	adds	r2, r2, r3
 8004cf2:	00d2      	lsls	r2, r2, #3
 8004cf4:	18a4      	adds	r4, r4, r2
 8004cf6:	0880      	lsrs	r0, r0, #2
 8004cf8:	74a0      	strb	r0, [r4, #18]

  // Check for CRC error
  packets_buf[packets_head].crc_ok = !(packets_buf[packets_head].flags & RFM_IRQ_PAYLOAD_CRC_ERROR);
 8004cfa:	7c22      	ldrb	r2, [r4, #16]
 8004cfc:	0952      	lsrs	r2, r2, #5
 8004cfe:	2101      	movs	r1, #1
 8004d00:	404a      	eors	r2, r1
 8004d02:	2101      	movs	r1, #1
 8004d04:	400a      	ands	r2, r1
 8004d06:	7462      	strb	r2, [r4, #17]

  packets_head = (packets_head + 1) % PACKETS_BUF_SIZE;
 8004d08:	3301      	adds	r3, #1
 8004d0a:	220f      	movs	r2, #15
 8004d0c:	4013      	ands	r3, r2
 8004d0e:	702b      	strb	r3, [r5, #0]

  uint16_t time = timers_micros() - timer;
 8004d10:	f000 f8d2 	bl	8004eb8 <timers_micros>
  // log_printf("ISR %u %u %u\n", time, packets_head, packets_tail);
}
 8004d14:	bd70      	pop	{r4, r5, r6, pc}
 8004d16:	46c0      	nop			; (mov r8, r8)
 8004d18:	20000464 	.word	0x20000464
 8004d1c:	200002e4 	.word	0x200002e4

08004d20 <test_mem_write_read>:
/*////////////////////////////////////////////////////////////////////////////*/
// Memory tests
/*////////////////////////////////////////////////////////////////////////////*/

void test_mem_write_read(void)
{
 8004d20:	b570      	push	{r4, r5, r6, lr}
 8004d22:	b082      	sub	sp, #8
    uint32_t eeprom_address = EEPROM_END - EEPROM_PAGE_SIZE;
    uint32_t eeprom_word    = 0x12345678;

    uint32_t flash_address = FLASH_END - FLASH_PAGE_SIZE;
    uint32_t *flash_data   = (uint32_t*)malloc(64); 
 8004d24:	2040      	movs	r0, #64	; 0x40
 8004d26:	f001 fd61 	bl	80067ec <malloc>
 8004d2a:	0004      	movs	r4, r0
    flash_data[0] = 0x12345678;
 8004d2c:	4e1e      	ldr	r6, [pc, #120]	; (8004da8 <test_mem_write_read+0x88>)
 8004d2e:	6006      	str	r6, [r0, #0]
    flash_data[1] = 0x24681234;
 8004d30:	4b1e      	ldr	r3, [pc, #120]	; (8004dac <test_mem_write_read+0x8c>)
 8004d32:	6043      	str	r3, [r0, #4]

    log_printf("Test Mem Write Read\n\n");
 8004d34:	481e      	ldr	r0, [pc, #120]	; (8004db0 <test_mem_write_read+0x90>)
 8004d36:	f7ff fd47 	bl	80047c8 <log_printf>

    log_printf("EEPROM Start: %08x : %08x\n", eeprom_address, MMIO32(eeprom_address));
 8004d3a:	4d1e      	ldr	r5, [pc, #120]	; (8004db4 <test_mem_write_read+0x94>)
 8004d3c:	682a      	ldr	r2, [r5, #0]
 8004d3e:	0029      	movs	r1, r5
 8004d40:	481d      	ldr	r0, [pc, #116]	; (8004db8 <test_mem_write_read+0x98>)
 8004d42:	f7ff fd41 	bl	80047c8 <log_printf>
    log_printf("Programming: %08x\n", eeprom_word); mem_eeprom_write_word(eeprom_address, eeprom_word);
 8004d46:	0031      	movs	r1, r6
 8004d48:	481c      	ldr	r0, [pc, #112]	; (8004dbc <test_mem_write_read+0x9c>)
 8004d4a:	f7ff fd3d 	bl	80047c8 <log_printf>
 8004d4e:	0031      	movs	r1, r6
 8004d50:	0028      	movs	r0, r5
 8004d52:	f7ff fda5 	bl	80048a0 <mem_eeprom_write_word>
    log_printf("EEPROM End: %08x : %08x\n\n", eeprom_address, MMIO32(eeprom_address));
 8004d56:	682a      	ldr	r2, [r5, #0]
 8004d58:	0029      	movs	r1, r5
 8004d5a:	4819      	ldr	r0, [pc, #100]	; (8004dc0 <test_mem_write_read+0xa0>)
 8004d5c:	f7ff fd34 	bl	80047c8 <log_printf>

    log_printf("Flash Erase\n"); mem_flash_erase_page(flash_address);
 8004d60:	4818      	ldr	r0, [pc, #96]	; (8004dc4 <test_mem_write_read+0xa4>)
 8004d62:	f7ff fd31 	bl	80047c8 <log_printf>
 8004d66:	4d18      	ldr	r5, [pc, #96]	; (8004dc8 <test_mem_write_read+0xa8>)
 8004d68:	0028      	movs	r0, r5
 8004d6a:	f7ff fdf3 	bl	8004954 <mem_flash_erase_page>
    log_printf("Flash Start: %08x : %08x\n%08x : %08x\n", flash_address, MMIO32(flash_address), flash_address+4, MMIO32(flash_address+4));
 8004d6e:	682a      	ldr	r2, [r5, #0]
 8004d70:	4e16      	ldr	r6, [pc, #88]	; (8004dcc <test_mem_write_read+0xac>)
 8004d72:	6833      	ldr	r3, [r6, #0]
 8004d74:	9300      	str	r3, [sp, #0]
 8004d76:	0033      	movs	r3, r6
 8004d78:	0029      	movs	r1, r5
 8004d7a:	4815      	ldr	r0, [pc, #84]	; (8004dd0 <test_mem_write_read+0xb0>)
 8004d7c:	f7ff fd24 	bl	80047c8 <log_printf>
    log_printf("Programming %08x %08x\n", flash_data[0], flash_data[1]); mem_flash_write_half_page(flash_address, flash_data);
 8004d80:	6862      	ldr	r2, [r4, #4]
 8004d82:	6821      	ldr	r1, [r4, #0]
 8004d84:	4813      	ldr	r0, [pc, #76]	; (8004dd4 <test_mem_write_read+0xb4>)
 8004d86:	f7ff fd1f 	bl	80047c8 <log_printf>
 8004d8a:	0021      	movs	r1, r4
 8004d8c:	0028      	movs	r0, r5
 8004d8e:	f7ff fdf1 	bl	8004974 <mem_flash_write_half_page>
    // log_printf("Programming %08x\n", flash_data[1]); mem_flash_write_word(flash_address, flash_data[1]);
    log_printf("Flash End: %08x : %08x\n%08x : %08x\n", flash_address, MMIO32(flash_address), flash_address+4, MMIO32(flash_address+4));
 8004d92:	682a      	ldr	r2, [r5, #0]
 8004d94:	6833      	ldr	r3, [r6, #0]
 8004d96:	9300      	str	r3, [sp, #0]
 8004d98:	0033      	movs	r3, r6
 8004d9a:	0029      	movs	r1, r5
 8004d9c:	480e      	ldr	r0, [pc, #56]	; (8004dd8 <test_mem_write_read+0xb8>)
 8004d9e:	f7ff fd13 	bl	80047c8 <log_printf>
}
 8004da2:	b002      	add	sp, #8
 8004da4:	bd70      	pop	{r4, r5, r6, pc}
 8004da6:	46c0      	nop			; (mov r8, r8)
 8004da8:	12345678 	.word	0x12345678
 8004dac:	24681234 	.word	0x24681234
 8004db0:	08006fa4 	.word	0x08006fa4
 8004db4:	080807fc 	.word	0x080807fc
 8004db8:	08006fbc 	.word	0x08006fbc
 8004dbc:	08006fd8 	.word	0x08006fd8
 8004dc0:	08006fec 	.word	0x08006fec
 8004dc4:	08007008 	.word	0x08007008
 8004dc8:	0800ff80 	.word	0x0800ff80
 8004dcc:	0800ff84 	.word	0x0800ff84
 8004dd0:	08007018 	.word	0x08007018
 8004dd4:	08007040 	.word	0x08007040
 8004dd8:	08007058 	.word	0x08007058

08004ddc <flash_led>:
    serial_printf("Checksum value: %8x %8x\n", crc, ~crc);
}


void flash_led(uint16_t milliseconds, uint8_t num_flashes)
{
 8004ddc:	b5f0      	push	{r4, r5, r6, r7, lr}
 8004dde:	46c6      	mov	lr, r8
 8004de0:	b500      	push	{lr}
 8004de2:	0005      	movs	r5, r0
 8004de4:	4688      	mov	r8, r1
	gpio_mode_setup(LED_PORT, GPIO_MODE_OUTPUT, GPIO_PUPD_NONE, LED);
 8004de6:	2680      	movs	r6, #128	; 0x80
 8004de8:	0076      	lsls	r6, r6, #1
 8004dea:	4c13      	ldr	r4, [pc, #76]	; (8004e38 <flash_led+0x5c>)
 8004dec:	0033      	movs	r3, r6
 8004dee:	2200      	movs	r2, #0
 8004df0:	2101      	movs	r1, #1
 8004df2:	0020      	movs	r0, r4
 8004df4:	f000 f9cd 	bl	8005192 <gpio_mode_setup>
	gpio_clear(LED_PORT, LED);
 8004df8:	0031      	movs	r1, r6
 8004dfa:	0020      	movs	r0, r4
 8004dfc:	f000 f9c6 	bl	800518c <gpio_clear>
	for(uint8_t i = 0; i < num_flashes; i++)
 8004e00:	2400      	movs	r4, #0
 8004e02:	4544      	cmp	r4, r8
 8004e04:	d215      	bcs.n	8004e32 <flash_led+0x56>
	{
		gpio_set(LED_PORT, LED);
 8004e06:	2780      	movs	r7, #128	; 0x80
 8004e08:	007f      	lsls	r7, r7, #1
 8004e0a:	4e0b      	ldr	r6, [pc, #44]	; (8004e38 <flash_led+0x5c>)
 8004e0c:	0039      	movs	r1, r7
 8004e0e:	0030      	movs	r0, r6
 8004e10:	f000 f9ba 	bl	8005188 <gpio_set>
		timers_delay_milliseconds(milliseconds / 4);
 8004e14:	08a8      	lsrs	r0, r5, #2
 8004e16:	f000 f86d 	bl	8004ef4 <timers_delay_milliseconds>
		gpio_clear(LED_PORT, LED);
 8004e1a:	0039      	movs	r1, r7
 8004e1c:	0030      	movs	r0, r6
 8004e1e:	f000 f9b5 	bl	800518c <gpio_clear>
		timers_delay_milliseconds(3 * milliseconds / 4);
 8004e22:	0068      	lsls	r0, r5, #1
 8004e24:	1828      	adds	r0, r5, r0
 8004e26:	1080      	asrs	r0, r0, #2
 8004e28:	f000 f864 	bl	8004ef4 <timers_delay_milliseconds>
	for(uint8_t i = 0; i < num_flashes; i++)
 8004e2c:	3401      	adds	r4, #1
 8004e2e:	b2e4      	uxtb	r4, r4
 8004e30:	e7e7      	b.n	8004e02 <flash_led+0x26>
	}
}
 8004e32:	bc80      	pop	{r7}
 8004e34:	46b8      	mov	r8, r7
 8004e36:	bdf0      	pop	{r4, r5, r6, r7, pc}
 8004e38:	50000400 	.word	0x50000400

08004e3c <timers_lptim_init>:
}


// Setup lptim1 as approx. microsecond counter
void timers_lptim_init(void)
{
 8004e3c:	b510      	push	{r4, lr}
    // Input clock is 2.097Mhz
    rcc_set_peripheral_clk_sel(LPTIM1, RCC_CCIPR_LPTIM1SEL_APB);
 8004e3e:	4c10      	ldr	r4, [pc, #64]	; (8004e80 <timers_lptim_init+0x44>)
 8004e40:	2100      	movs	r1, #0
 8004e42:	0020      	movs	r0, r4
 8004e44:	f000 fb34 	bl	80054b0 <rcc_set_peripheral_clk_sel>
 
    rcc_periph_clock_enable(RCC_LPTIM1);
 8004e48:	480e      	ldr	r0, [pc, #56]	; (8004e84 <timers_lptim_init+0x48>)
 8004e4a:	f000 fb67 	bl	800551c <rcc_periph_clock_enable>
    
    lptimer_set_internal_clock_source(LPTIM1);
 8004e4e:	0020      	movs	r0, r4
 8004e50:	f000 fa26 	bl	80052a0 <lptimer_set_internal_clock_source>
    lptimer_enable_trigger(LPTIM1, LPTIM_CFGR_TRIGEN_SW);
 8004e54:	2100      	movs	r1, #0
 8004e56:	0020      	movs	r0, r4
 8004e58:	f000 fa18 	bl	800528c <lptimer_enable_trigger>
    lptimer_set_prescaler(LPTIM1, LPTIM_CFGR_PRESC_2);
 8004e5c:	2180      	movs	r1, #128	; 0x80
 8004e5e:	0089      	lsls	r1, r1, #2
 8004e60:	0020      	movs	r0, r4
 8004e62:	f000 fa0b 	bl	800527c <lptimer_set_prescaler>
    
    lptimer_enable(LPTIM1);
 8004e66:	0020      	movs	r0, r4
 8004e68:	f000 f9fe 	bl	8005268 <lptimer_enable>
    
    lptimer_set_period(LPTIM1, 0xffff);
 8004e6c:	4906      	ldr	r1, [pc, #24]	; (8004e88 <timers_lptim_init+0x4c>)
 8004e6e:	0020      	movs	r0, r4
 8004e70:	f000 fa14 	bl	800529c <lptimer_set_period>
    
    lptimer_start_counter(LPTIM1, LPTIM_CR_CNTSTRT);
 8004e74:	2104      	movs	r1, #4
 8004e76:	0020      	movs	r0, r4
 8004e78:	f000 f9fb 	bl	8005272 <lptimer_start_counter>
}
 8004e7c:	bd10      	pop	{r4, pc}
 8004e7e:	46c0      	nop			; (mov r8, r8)
 8004e80:	40007c00 	.word	0x40007c00
 8004e84:	0000071f 	.word	0x0000071f
 8004e88:	0000ffff 	.word	0x0000ffff

08004e8c <timers_delay_microseconds>:

// Simple delay function. Puts cpu into nop loop timed by lptim1
void timers_delay_microseconds(uint32_t delay_microseconds)
{
 8004e8c:	b570      	push	{r4, r5, r6, lr}
 8004e8e:	0004      	movs	r4, r0
    uint32_t curr_time = lptimer_get_counter(LPTIM1);
 8004e90:	4807      	ldr	r0, [pc, #28]	; (8004eb0 <timers_delay_microseconds+0x24>)
 8004e92:	f000 f9e6 	bl	8005262 <lptimer_get_counter>
 8004e96:	0005      	movs	r5, r0

    // Limit delay to 16 bit max. Otherwise delay might never end
    if(delay_microseconds > 65000)
 8004e98:	4b06      	ldr	r3, [pc, #24]	; (8004eb4 <timers_delay_microseconds+0x28>)
 8004e9a:	429c      	cmp	r4, r3
 8004e9c:	d900      	bls.n	8004ea0 <timers_delay_microseconds+0x14>
        delay_microseconds = 65000;
 8004e9e:	001c      	movs	r4, r3

    while (lptimer_get_counter(LPTIM1) - curr_time < delay_microseconds);
 8004ea0:	4803      	ldr	r0, [pc, #12]	; (8004eb0 <timers_delay_microseconds+0x24>)
 8004ea2:	f000 f9de 	bl	8005262 <lptimer_get_counter>
 8004ea6:	1b40      	subs	r0, r0, r5
 8004ea8:	42a0      	cmp	r0, r4
 8004eaa:	d3f9      	bcc.n	8004ea0 <timers_delay_microseconds+0x14>
}
 8004eac:	bd70      	pop	{r4, r5, r6, pc}
 8004eae:	46c0      	nop			; (mov r8, r8)
 8004eb0:	40007c00 	.word	0x40007c00
 8004eb4:	0000fde8 	.word	0x0000fde8

08004eb8 <timers_micros>:
}
*/

// Returns value of microsecond counter
uint16_t timers_micros(void)
{
 8004eb8:	b510      	push	{r4, lr}
    return (uint16_t)lptimer_get_counter(LPTIM1);
 8004eba:	4802      	ldr	r0, [pc, #8]	; (8004ec4 <timers_micros+0xc>)
 8004ebc:	f000 f9d1 	bl	8005262 <lptimer_get_counter>
}
 8004ec0:	bd10      	pop	{r4, pc}
 8004ec2:	46c0      	nop			; (mov r8, r8)
 8004ec4:	40007c00 	.word	0x40007c00

08004ec8 <timers_tim6_init>:


// Setup TIM6 as millisecond counter. Clocked by APB1
void timers_tim6_init(void)
{
 8004ec8:	b510      	push	{r4, lr}
    rcc_periph_clock_enable(RCC_TIM6);
 8004eca:	4808      	ldr	r0, [pc, #32]	; (8004eec <timers_tim6_init+0x24>)
 8004ecc:	f000 fb26 	bl	800551c <rcc_periph_clock_enable>
    timer_disable_counter(TIM6);
 8004ed0:	4c07      	ldr	r4, [pc, #28]	; (8004ef0 <timers_tim6_init+0x28>)
 8004ed2:	0020      	movs	r0, r4
 8004ed4:	f000 fb65 	bl	80055a2 <timer_disable_counter>
    timer_set_prescaler(TIM6, (2097 - 1));
 8004ed8:	2183      	movs	r1, #131	; 0x83
 8004eda:	0109      	lsls	r1, r1, #4
 8004edc:	0020      	movs	r0, r4
 8004ede:	f000 fb65 	bl	80055ac <timer_set_prescaler>
    timer_enable_counter(TIM6);
 8004ee2:	0020      	movs	r0, r4
 8004ee4:	f000 fb58 	bl	8005598 <timer_enable_counter>
}
 8004ee8:	bd10      	pop	{r4, pc}
 8004eea:	46c0      	nop			; (mov r8, r8)
 8004eec:	00000704 	.word	0x00000704
 8004ef0:	40001000 	.word	0x40001000

08004ef4 <timers_delay_milliseconds>:

// Simple delay function. Puts cpu into nop loop timed by lptim1
void timers_delay_milliseconds(uint32_t delay_milliseconds)
{
 8004ef4:	b570      	push	{r4, r5, r6, lr}
 8004ef6:	0004      	movs	r4, r0
    uint32_t curr_time = timer_get_counter(TIM6);
 8004ef8:	4807      	ldr	r0, [pc, #28]	; (8004f18 <timers_delay_milliseconds+0x24>)
 8004efa:	f000 fb59 	bl	80055b0 <timer_get_counter>
 8004efe:	0005      	movs	r5, r0

    // Limit delay to 16 bit max. Otherwise delay might never end
    if(delay_milliseconds > 65000)
 8004f00:	4b06      	ldr	r3, [pc, #24]	; (8004f1c <timers_delay_milliseconds+0x28>)
 8004f02:	429c      	cmp	r4, r3
 8004f04:	d900      	bls.n	8004f08 <timers_delay_milliseconds+0x14>
        delay_milliseconds = 65000;
 8004f06:	001c      	movs	r4, r3

    while (timer_get_counter(TIM6) - curr_time < delay_milliseconds);
 8004f08:	4803      	ldr	r0, [pc, #12]	; (8004f18 <timers_delay_milliseconds+0x24>)
 8004f0a:	f000 fb51 	bl	80055b0 <timer_get_counter>
 8004f0e:	1b40      	subs	r0, r0, r5
 8004f10:	42a0      	cmp	r0, r4
 8004f12:	d3f9      	bcc.n	8004f08 <timers_delay_milliseconds+0x14>
}
 8004f14:	bd70      	pop	{r4, r5, r6, pc}
 8004f16:	46c0      	nop			; (mov r8, r8)
 8004f18:	40001000 	.word	0x40001000
 8004f1c:	0000fde8 	.word	0x0000fde8

08004f20 <timers_millis>:

// Returns value of millisecond counter
uint16_t timers_millis(void)
{
 8004f20:	b510      	push	{r4, lr}
    return timer_get_counter(TIM6);
 8004f22:	4802      	ldr	r0, [pc, #8]	; (8004f2c <timers_millis+0xc>)
 8004f24:	f000 fb44 	bl	80055b0 <timer_get_counter>
 8004f28:	b280      	uxth	r0, r0
}
 8004f2a:	bd10      	pop	{r4, pc}
 8004f2c:	40001000 	.word	0x40001000

08004f30 <timeout_init>:
}


// Timout functions
void timeout_init(void)
{
 8004f30:	b510      	push	{r4, lr}
    timeout_counter     = 0; 
 8004f32:	4b04      	ldr	r3, [pc, #16]	; (8004f44 <timeout_init+0x14>)
 8004f34:	2200      	movs	r2, #0
 8004f36:	601a      	str	r2, [r3, #0]
    // timeout_counter     = 2140483648; 
    timeout_timer       = timers_micros(); 
 8004f38:	f7ff ffbe 	bl	8004eb8 <timers_micros>
 8004f3c:	4b02      	ldr	r3, [pc, #8]	; (8004f48 <timeout_init+0x18>)
 8004f3e:	8018      	strh	r0, [r3, #0]
}
 8004f40:	bd10      	pop	{r4, pc}
 8004f42:	46c0      	nop			; (mov r8, r8)
 8004f44:	20000468 	.word	0x20000468
 8004f48:	2000046c 	.word	0x2000046c

08004f4c <timeout>:

bool timeout(uint32_t time_microseconds, char *msg, uint32_t data)
{
 8004f4c:	b5f0      	push	{r4, r5, r6, r7, lr}
 8004f4e:	b083      	sub	sp, #12
 8004f50:	0006      	movs	r6, r0
 8004f52:	9101      	str	r1, [sp, #4]
 8004f54:	0015      	movs	r5, r2
    timeout_counter    += (uint16_t)(timers_micros() - timeout_timer);
 8004f56:	f7ff ffaf 	bl	8004eb8 <timers_micros>
 8004f5a:	4c0c      	ldr	r4, [pc, #48]	; (8004f8c <timeout+0x40>)
 8004f5c:	8823      	ldrh	r3, [r4, #0]
 8004f5e:	1ac3      	subs	r3, r0, r3
 8004f60:	b29b      	uxth	r3, r3
 8004f62:	4f0b      	ldr	r7, [pc, #44]	; (8004f90 <timeout+0x44>)
 8004f64:	683a      	ldr	r2, [r7, #0]
 8004f66:	4694      	mov	ip, r2
 8004f68:	4463      	add	r3, ip
 8004f6a:	603b      	str	r3, [r7, #0]
    timeout_timer       = timers_micros();
 8004f6c:	f7ff ffa4 	bl	8004eb8 <timers_micros>
 8004f70:	8020      	strh	r0, [r4, #0]

    // log_printf("%u\n", timeout_counter);

    if(timeout_counter > time_microseconds)
 8004f72:	683b      	ldr	r3, [r7, #0]
 8004f74:	42b3      	cmp	r3, r6
 8004f76:	d802      	bhi.n	8004f7e <timeout+0x32>
    {
        log_printf("Timeout %s %08X\n", msg, data);
        return true;
    }
    else    
        return false;
 8004f78:	2000      	movs	r0, #0
}
 8004f7a:	b003      	add	sp, #12
 8004f7c:	bdf0      	pop	{r4, r5, r6, r7, pc}
        log_printf("Timeout %s %08X\n", msg, data);
 8004f7e:	002a      	movs	r2, r5
 8004f80:	9901      	ldr	r1, [sp, #4]
 8004f82:	4804      	ldr	r0, [pc, #16]	; (8004f94 <timeout+0x48>)
 8004f84:	f7ff fc20 	bl	80047c8 <log_printf>
        return true;
 8004f88:	2001      	movs	r0, #1
 8004f8a:	e7f6      	b.n	8004f7a <timeout+0x2e>
 8004f8c:	2000046c 	.word	0x2000046c
 8004f90:	20000468 	.word	0x20000468
 8004f94:	0800707c 	.word	0x0800707c

08004f98 <set_gpio_for_standby>:

void set_gpio_for_standby(void)
{   
 8004f98:	b5f8      	push	{r3, r4, r5, r6, r7, lr}
    // Common
    // LED
    gpio_mode_setup(LED_PORT, GPIO_MODE_ANALOG, GPIO_PUPD_NONE, LED);
 8004f9a:	2680      	movs	r6, #128	; 0x80
 8004f9c:	0076      	lsls	r6, r6, #1
 8004f9e:	4c36      	ldr	r4, [pc, #216]	; (8005078 <set_gpio_for_standby+0xe0>)
 8004fa0:	0033      	movs	r3, r6
 8004fa2:	2200      	movs	r2, #0
 8004fa4:	2103      	movs	r1, #3
 8004fa6:	0020      	movs	r0, r4
 8004fa8:	f000 f8f3 	bl	8005192 <gpio_mode_setup>
    gpio_set(LED_PORT, LED);
 8004fac:	0031      	movs	r1, r6
 8004fae:	0020      	movs	r0, r4
 8004fb0:	f000 f8ea 	bl	8005188 <gpio_set>

    // Serial Print
    gpio_mode_setup(SPF_USART_TX_PORT, GPIO_MODE_INPUT, GPIO_PUPD_PULLUP, SPF_USART_TX);
 8004fb4:	2380      	movs	r3, #128	; 0x80
 8004fb6:	25a0      	movs	r5, #160	; 0xa0
 8004fb8:	05ed      	lsls	r5, r5, #23
 8004fba:	009b      	lsls	r3, r3, #2
 8004fbc:	2201      	movs	r2, #1
 8004fbe:	2100      	movs	r1, #0
 8004fc0:	0028      	movs	r0, r5
 8004fc2:	f000 f8e6 	bl	8005192 <gpio_mode_setup>
	gpio_mode_setup(SPF_USART_RX_PORT, GPIO_MODE_OUTPUT, GPIO_PUPD_NONE,  SPF_USART_RX);
 8004fc6:	2780      	movs	r7, #128	; 0x80
 8004fc8:	00ff      	lsls	r7, r7, #3
 8004fca:	003b      	movs	r3, r7
 8004fcc:	2200      	movs	r2, #0
 8004fce:	2101      	movs	r1, #1
 8004fd0:	0028      	movs	r0, r5
 8004fd2:	f000 f8de 	bl	8005192 <gpio_mode_setup>
	gpio_set(SPF_USART_RX_PORT, SPF_USART_RX);
 8004fd6:	0039      	movs	r1, r7
 8004fd8:	0028      	movs	r0, r5
 8004fda:	f000 f8d5 	bl	8005188 <gpio_set>

    // Batt Sense
    gpio_mode_setup(BATT_SENS_PORT, GPIO_MODE_ANALOG, GPIO_PUPD_NONE, BATT_SENS);
 8004fde:	2301      	movs	r3, #1
 8004fe0:	2200      	movs	r2, #0
 8004fe2:	2103      	movs	r1, #3
 8004fe4:	0028      	movs	r0, r5
 8004fe6:	f000 f8d4 	bl	8005192 <gpio_mode_setup>
    
    // RFM
    // SPI
    gpio_mode_setup(RFM_SPI_MISO_PORT,  GPIO_MODE_ANALOG,   GPIO_PUPD_NONE,       RFM_SPI_MISO);
 8004fea:	2380      	movs	r3, #128	; 0x80
 8004fec:	01db      	lsls	r3, r3, #7
 8004fee:	2200      	movs	r2, #0
 8004ff0:	2103      	movs	r1, #3
 8004ff2:	0020      	movs	r0, r4
 8004ff4:	f000 f8cd 	bl	8005192 <gpio_mode_setup>

    gpio_mode_setup(RFM_SPI_SCK_PORT,   GPIO_MODE_INPUT,    GPIO_PUPD_PULLDOWN,   RFM_SPI_SCK);
 8004ff8:	2380      	movs	r3, #128	; 0x80
 8004ffa:	019b      	lsls	r3, r3, #6
 8004ffc:	2202      	movs	r2, #2
 8004ffe:	2100      	movs	r1, #0
 8005000:	0020      	movs	r0, r4
 8005002:	f000 f8c6 	bl	8005192 <gpio_mode_setup>
    gpio_mode_setup(RFM_SPI_MOSI_PORT,  GPIO_MODE_INPUT,    GPIO_PUPD_PULLDOWN,   RFM_SPI_MOSI);
 8005006:	2380      	movs	r3, #128	; 0x80
 8005008:	021b      	lsls	r3, r3, #8
 800500a:	2202      	movs	r2, #2
 800500c:	2100      	movs	r1, #0
 800500e:	0020      	movs	r0, r4
 8005010:	f000 f8bf 	bl	8005192 <gpio_mode_setup>

    gpio_mode_setup(RFM_SPI_NSS_PORT,   GPIO_MODE_INPUT,    GPIO_PUPD_PULLUP,     RFM_SPI_NSS);
 8005014:	2340      	movs	r3, #64	; 0x40
 8005016:	2201      	movs	r2, #1
 8005018:	2100      	movs	r1, #0
 800501a:	0028      	movs	r0, r5
 800501c:	f000 f8b9 	bl	8005192 <gpio_mode_setup>
    gpio_mode_setup(RFM_RESET_PORT,     GPIO_MODE_INPUT,    GPIO_PUPD_PULLUP,     RFM_RESET);
 8005020:	2310      	movs	r3, #16
 8005022:	2201      	movs	r2, #1
 8005024:	2100      	movs	r1, #0
 8005026:	0028      	movs	r0, r5
 8005028:	f000 f8b3 	bl	8005192 <gpio_mode_setup>

    // DIO
    gpio_mode_setup(RFM_IO_0_PORT, GPIO_MODE_ANALOG, GPIO_PUPD_NONE, RFM_IO_0);
 800502c:	003b      	movs	r3, r7
 800502e:	2200      	movs	r2, #0
 8005030:	2103      	movs	r1, #3
 8005032:	0020      	movs	r0, r4
 8005034:	f000 f8ad 	bl	8005192 <gpio_mode_setup>
    gpio_mode_setup(RFM_IO_1_PORT, GPIO_MODE_ANALOG, GPIO_PUPD_NONE, RFM_IO_1);
 8005038:	2380      	movs	r3, #128	; 0x80
 800503a:	011b      	lsls	r3, r3, #4
 800503c:	2200      	movs	r2, #0
 800503e:	2103      	movs	r1, #3
 8005040:	0020      	movs	r0, r4
 8005042:	f000 f8a6 	bl	8005192 <gpio_mode_setup>
    gpio_mode_setup(RFM_IO_2_PORT, GPIO_MODE_ANALOG, GPIO_PUPD_NONE, RFM_IO_2);
 8005046:	0033      	movs	r3, r6
 8005048:	2200      	movs	r2, #0
 800504a:	2103      	movs	r1, #3
 800504c:	0028      	movs	r0, r5
 800504e:	f000 f8a0 	bl	8005192 <gpio_mode_setup>
    gpio_mode_setup(RFM_IO_3_PORT, GPIO_MODE_ANALOG, GPIO_PUPD_NONE, RFM_IO_3);
 8005052:	2302      	movs	r3, #2
 8005054:	2200      	movs	r2, #0
 8005056:	2103      	movs	r1, #3
 8005058:	0020      	movs	r0, r4
 800505a:	f000 f89a 	bl	8005192 <gpio_mode_setup>
    gpio_mode_setup(RFM_IO_4_PORT, GPIO_MODE_ANALOG, GPIO_PUPD_NONE, RFM_IO_4);
 800505e:	2304      	movs	r3, #4
 8005060:	2200      	movs	r2, #0
 8005062:	2103      	movs	r1, #3
 8005064:	0020      	movs	r0, r4
 8005066:	f000 f894 	bl	8005192 <gpio_mode_setup>
    gpio_mode_setup(RFM_IO_5_PORT, GPIO_MODE_ANALOG, GPIO_PUPD_NONE, RFM_IO_5);
 800506a:	2301      	movs	r3, #1
 800506c:	2200      	movs	r2, #0
 800506e:	2103      	movs	r1, #3
 8005070:	0020      	movs	r0, r4
 8005072:	f000 f88e 	bl	8005192 <gpio_mode_setup>
    gpio_mode_setup(TEMP_I2C_SCL_PORT, GPIO_MODE_INPUT, GPIO_PUPD_PULLUP, TEMP_I2C_SCL);
	gpio_mode_setup(TEMP_I2C_SDA_PORT, GPIO_MODE_INPUT, GPIO_PUPD_PULLUP, TEMP_I2C_SDA);

    #endif

}
 8005076:	bdf8      	pop	{r3, r4, r5, r6, r7, pc}
 8005078:	50000400 	.word	0x50000400

0800507c <rtc_isr>:

// Override default rtc interrupt handler
void rtc_isr(void)
{ 
 800507c:	b510      	push	{r4, lr}
    exti_reset_request(EXTI20);
 800507e:	2080      	movs	r0, #128	; 0x80
 8005080:	0340      	lsls	r0, r0, #13
 8005082:	f000 f825 	bl	80050d0 <exti_reset_request>

    // scb_reset_system();

    log_init();
 8005086:	f7ff fbb7 	bl	80047f8 <log_init>
    log_printf("RTC ISR\n");
 800508a:	480c      	ldr	r0, [pc, #48]	; (80050bc <rtc_isr+0x40>)
 800508c:	f7ff fb9c 	bl	80047c8 <log_printf>

    if(RTC_ISR & RTC_ISR_WUTF)
 8005090:	4b0b      	ldr	r3, [pc, #44]	; (80050c0 <rtc_isr+0x44>)
 8005092:	681b      	ldr	r3, [r3, #0]
 8005094:	055b      	lsls	r3, r3, #21
 8005096:	d400      	bmi.n	800509a <rtc_isr+0x1e>
        pwr_clear_standby_flag();
        rtc_lock();
	    pwr_enable_backup_domain_write_protect();
        set_gpio_for_standby();
    }
}
 8005098:	bd10      	pop	{r4, pc}
        pwr_disable_backup_domain_write_protect();
 800509a:	f000 f907 	bl	80052ac <pwr_disable_backup_domain_write_protect>
        rtc_unlock();
 800509e:	f000 fa5b 	bl	8005558 <rtc_unlock>
	    rtc_clear_wakeup_flag();
 80050a2:	f000 fa67 	bl	8005574 <rtc_clear_wakeup_flag>
        pwr_clear_wakeup_flag();
 80050a6:	f000 f91d 	bl	80052e4 <pwr_clear_wakeup_flag>
        pwr_clear_standby_flag();
 80050aa:	f000 f913 	bl	80052d4 <pwr_clear_standby_flag>
        rtc_lock();
 80050ae:	f000 fa5b 	bl	8005568 <rtc_lock>
	    pwr_enable_backup_domain_write_protect();
 80050b2:	f000 f905 	bl	80052c0 <pwr_enable_backup_domain_write_protect>
        set_gpio_for_standby();
 80050b6:	f7ff ff6f 	bl	8004f98 <set_gpio_for_standby>
}
 80050ba:	e7ed      	b.n	8005098 <rtc_isr+0x1c>
 80050bc:	08007090 	.word	0x08007090
 80050c0:	4000280c 	.word	0x4000280c

080050c4 <adc_start_conversion_regular>:
 * @param[in] adc ADC block register address base @ref adc_reg_base
 */
void adc_start_conversion_regular(uint32_t adc)
{
	/* Start conversion on regular channels. */
	ADC_CR(adc) |= ADC_CR_ADSTART;
 80050c4:	2304      	movs	r3, #4
 80050c6:	6882      	ldr	r2, [r0, #8]
 80050c8:	4313      	orrs	r3, r2
 80050ca:	6083      	str	r3, [r0, #8]
}
 80050cc:	4770      	bx	lr
	...

080050d0 <exti_reset_request>:
{
#if defined(EXTI_RPR1) && defined(EXTI_FPR1)
	EXTI_RPR1 = extis;
	EXTI_FPR1 = extis;
#else
	EXTI_PR = extis;
 80050d0:	4b01      	ldr	r3, [pc, #4]	; (80050d8 <exti_reset_request+0x8>)
 80050d2:	6018      	str	r0, [r3, #0]
#endif
}
 80050d4:	4770      	bx	lr
 80050d6:	46c0      	nop			; (mov r8, r8)
 80050d8:	40010414 	.word	0x40010414

080050dc <flash_set_ws>:
void flash_set_ws(uint32_t ws)
{
	uint32_t reg32;

	reg32 = FLASH_ACR;
	reg32 &= ~(FLASH_ACR_LATENCY_MASK << FLASH_ACR_LATENCY_SHIFT);
 80050dc:	2101      	movs	r1, #1
	reg32 = FLASH_ACR;
 80050de:	4a03      	ldr	r2, [pc, #12]	; (80050ec <flash_set_ws+0x10>)
 80050e0:	6813      	ldr	r3, [r2, #0]
	reg32 &= ~(FLASH_ACR_LATENCY_MASK << FLASH_ACR_LATENCY_SHIFT);
 80050e2:	438b      	bics	r3, r1
	reg32 |= (ws << FLASH_ACR_LATENCY_SHIFT);
 80050e4:	4303      	orrs	r3, r0
	FLASH_ACR = reg32;
 80050e6:	6013      	str	r3, [r2, #0]
}
 80050e8:	4770      	bx	lr
 80050ea:	46c0      	nop			; (mov r8, r8)
 80050ec:	40022000 	.word	0x40022000

080050f0 <flash_unlock_option_bytes>:

void flash_unlock_option_bytes(void)
{
	FLASH_OPTKEYR = FLASH_OPTKEYR_KEY1;
 80050f0:	4b02      	ldr	r3, [pc, #8]	; (80050fc <flash_unlock_option_bytes+0xc>)
 80050f2:	4a03      	ldr	r2, [pc, #12]	; (8005100 <flash_unlock_option_bytes+0x10>)
 80050f4:	601a      	str	r2, [r3, #0]
	FLASH_OPTKEYR = FLASH_OPTKEYR_KEY2;
 80050f6:	4a03      	ldr	r2, [pc, #12]	; (8005104 <flash_unlock_option_bytes+0x14>)
 80050f8:	601a      	str	r2, [r3, #0]
}
 80050fa:	4770      	bx	lr
 80050fc:	40022014 	.word	0x40022014
 8005100:	fbead9c8 	.word	0xfbead9c8
 8005104:	24252627 	.word	0x24252627

08005108 <flash_unlock_pecr>:
 * yourself.
 * @sa flash_unlock
 */
void flash_unlock_pecr(void)
{
	FLASH_PEKEYR = FLASH_PEKEYR_PEKEY1;
 8005108:	4b02      	ldr	r3, [pc, #8]	; (8005114 <flash_unlock_pecr+0xc>)
 800510a:	4a03      	ldr	r2, [pc, #12]	; (8005118 <flash_unlock_pecr+0x10>)
 800510c:	601a      	str	r2, [r3, #0]
	FLASH_PEKEYR = FLASH_PEKEYR_PEKEY2;
 800510e:	4a03      	ldr	r2, [pc, #12]	; (800511c <flash_unlock_pecr+0x14>)
 8005110:	601a      	str	r2, [r3, #0]
}
 8005112:	4770      	bx	lr
 8005114:	4002200c 	.word	0x4002200c
 8005118:	89abcdef 	.word	0x89abcdef
 800511c:	02030405 	.word	0x02030405

08005120 <flash_lock_pecr>:

void flash_lock_pecr(void)
{
	FLASH_PECR |= FLASH_PECR_PELOCK;
 8005120:	2301      	movs	r3, #1
 8005122:	4a02      	ldr	r2, [pc, #8]	; (800512c <flash_lock_pecr+0xc>)
 8005124:	6811      	ldr	r1, [r2, #0]
 8005126:	430b      	orrs	r3, r1
 8005128:	6013      	str	r3, [r2, #0]
}
 800512a:	4770      	bx	lr
 800512c:	40022004 	.word	0x40022004

08005130 <flash_unlock_progmem>:
 * you must have already unlocked access to this register!
 * @sa flash_unlock_pecr
 */
void flash_unlock_progmem(void)
{
	FLASH_PRGKEYR = FLASH_PRGKEYR_PRGKEY1;
 8005130:	4b02      	ldr	r3, [pc, #8]	; (800513c <flash_unlock_progmem+0xc>)
 8005132:	4a03      	ldr	r2, [pc, #12]	; (8005140 <flash_unlock_progmem+0x10>)
 8005134:	601a      	str	r2, [r3, #0]
	FLASH_PRGKEYR = FLASH_PRGKEYR_PRGKEY2;
 8005136:	4a03      	ldr	r2, [pc, #12]	; (8005144 <flash_unlock_progmem+0x14>)
 8005138:	601a      	str	r2, [r3, #0]
}
 800513a:	4770      	bx	lr
 800513c:	40022010 	.word	0x40022010
 8005140:	8c9daebf 	.word	0x8c9daebf
 8005144:	13141516 	.word	0x13141516

08005148 <flash_lock_progmem>:

void flash_lock_progmem(void)
{
	FLASH_PECR |= FLASH_PECR_PRGLOCK;
 8005148:	2302      	movs	r3, #2
 800514a:	4a02      	ldr	r2, [pc, #8]	; (8005154 <flash_lock_progmem+0xc>)
 800514c:	6811      	ldr	r1, [r2, #0]
 800514e:	430b      	orrs	r3, r1
 8005150:	6013      	str	r3, [r2, #0]
}
 8005152:	4770      	bx	lr
 8005154:	40022004 	.word	0x40022004

08005158 <flash_lock_option_bytes>:

void flash_lock_option_bytes(void)
{
	FLASH_PECR |= FLASH_PECR_OPTLOCK;
 8005158:	2304      	movs	r3, #4
 800515a:	4a02      	ldr	r2, [pc, #8]	; (8005164 <flash_lock_option_bytes+0xc>)
 800515c:	6811      	ldr	r1, [r2, #0]
 800515e:	430b      	orrs	r3, r1
 8005160:	6013      	str	r3, [r2, #0]
}
 8005162:	4770      	bx	lr
 8005164:	40022004 	.word	0x40022004

08005168 <flash_unlock>:

/** @brief Unlock all segments of flash
 *
 */
void flash_unlock(void)
{
 8005168:	b510      	push	{r4, lr}
	flash_unlock_pecr();
 800516a:	f7ff ffcd 	bl	8005108 <flash_unlock_pecr>
	flash_unlock_progmem();
 800516e:	f7ff ffdf 	bl	8005130 <flash_unlock_progmem>
	flash_unlock_option_bytes();
 8005172:	f7ff ffbd 	bl	80050f0 <flash_unlock_option_bytes>
}
 8005176:	bd10      	pop	{r4, pc}

08005178 <flash_lock>:

/** @brief Lock all segments of flash
 *
 */
void flash_lock(void)
{
 8005178:	b510      	push	{r4, lr}
	flash_lock_option_bytes();
 800517a:	f7ff ffed 	bl	8005158 <flash_lock_option_bytes>
	flash_lock_progmem();
 800517e:	f7ff ffe3 	bl	8005148 <flash_lock_progmem>
	flash_lock_pecr();
 8005182:	f7ff ffcd 	bl	8005120 <flash_lock_pecr>
}
 8005186:	bd10      	pop	{r4, pc}

08005188 <gpio_set>:
	     If multiple pins are to be changed, use bitwise OR '|' to separate
	     them.
*/
void gpio_set(uint32_t gpioport, uint16_t gpios)
{
	GPIO_BSRR(gpioport) = gpios;
 8005188:	6181      	str	r1, [r0, #24]
}
 800518a:	4770      	bx	lr

0800518c <gpio_clear>:
	     If multiple pins are to be changed, use bitwise OR '|' to separate
	     them.
*/
void  gpio_clear(uint32_t gpioport, uint16_t gpios)
{
	GPIO_BSRR(gpioport) = (gpios << 16);
 800518c:	0409      	lsls	r1, r1, #16
 800518e:	6181      	str	r1, [r0, #24]
}
 8005190:	4770      	bx	lr

08005192 <gpio_mode_setup>:
	     If multiple pins are to be set, use bitwise OR '|' to separate
	     them.
*/
void gpio_mode_setup(uint32_t gpioport, uint8_t mode, uint8_t pull_up_down,
		     uint16_t gpios)
{
 8005192:	b5f0      	push	{r4, r5, r6, r7, lr}
 8005194:	b085      	sub	sp, #20
 8005196:	9101      	str	r1, [sp, #4]
	for (i = 0; i < 16; i++) {
		if (!((1 << i) & gpios)) {
			continue;
		}

		moder &= ~GPIO_MODE_MASK(i);
 8005198:	2703      	movs	r7, #3
	pupd = GPIO_PUPDR(gpioport);
 800519a:	2100      	movs	r1, #0
{
 800519c:	9202      	str	r2, [sp, #8]
 800519e:	9303      	str	r3, [sp, #12]
	moder = GPIO_MODER(gpioport);
 80051a0:	6802      	ldr	r2, [r0, #0]
	pupd = GPIO_PUPDR(gpioport);
 80051a2:	68c3      	ldr	r3, [r0, #12]
		if (!((1 << i) & gpios)) {
 80051a4:	9c03      	ldr	r4, [sp, #12]
 80051a6:	2501      	movs	r5, #1
 80051a8:	410c      	asrs	r4, r1
 80051aa:	422c      	tst	r4, r5
 80051ac:	d00a      	beq.n	80051c4 <gpio_mode_setup+0x32>
		moder &= ~GPIO_MODE_MASK(i);
 80051ae:	003d      	movs	r5, r7
 80051b0:	004c      	lsls	r4, r1, #1
 80051b2:	40a5      	lsls	r5, r4
		moder |= GPIO_MODE(i, mode);
 80051b4:	9e01      	ldr	r6, [sp, #4]
		moder &= ~GPIO_MODE_MASK(i);
 80051b6:	43aa      	bics	r2, r5
		pupd &= ~GPIO_PUPD_MASK(i);
 80051b8:	43ab      	bics	r3, r5
		pupd |= GPIO_PUPD(i, pull_up_down);
 80051ba:	9d02      	ldr	r5, [sp, #8]
		moder |= GPIO_MODE(i, mode);
 80051bc:	40a6      	lsls	r6, r4
		pupd |= GPIO_PUPD(i, pull_up_down);
 80051be:	40a5      	lsls	r5, r4
		moder |= GPIO_MODE(i, mode);
 80051c0:	4332      	orrs	r2, r6
		pupd |= GPIO_PUPD(i, pull_up_down);
 80051c2:	432b      	orrs	r3, r5
	for (i = 0; i < 16; i++) {
 80051c4:	3101      	adds	r1, #1
 80051c6:	2910      	cmp	r1, #16
 80051c8:	d1ec      	bne.n	80051a4 <gpio_mode_setup+0x12>
	}

	/* Set mode and pull up/down control registers. */
	GPIO_MODER(gpioport) = moder;
 80051ca:	6002      	str	r2, [r0, #0]
	GPIO_PUPDR(gpioport) = pupd;
 80051cc:	60c3      	str	r3, [r0, #12]
}
 80051ce:	b005      	add	sp, #20
 80051d0:	bdf0      	pop	{r4, r5, r6, r7, pc}

080051d2 <gpio_set_output_options>:
	     If multiple pins are to be set, use bitwise OR '|' to separate
	     them.
*/
void gpio_set_output_options(uint32_t gpioport, uint8_t otype, uint8_t speed,
			     uint16_t gpios)
{
 80051d2:	b5f7      	push	{r0, r1, r2, r4, r5, r6, r7, lr}
 80051d4:	9201      	str	r2, [sp, #4]
	uint16_t i;
	uint32_t ospeedr;

	if (otype == 0x1) {
 80051d6:	2901      	cmp	r1, #1
 80051d8:	d116      	bne.n	8005208 <gpio_set_output_options+0x36>
		GPIO_OTYPER(gpioport) |= gpios;
 80051da:	6841      	ldr	r1, [r0, #4]
 80051dc:	4319      	orrs	r1, r3
	} else {
		GPIO_OTYPER(gpioport) &= ~gpios;
	}

	ospeedr = GPIO_OSPEEDR(gpioport);
 80051de:	2400      	movs	r4, #0

	for (i = 0; i < 16; i++) {
		if (!((1 << i) & gpios)) {
 80051e0:	2601      	movs	r6, #1
			continue;
		}
		ospeedr &= ~GPIO_OSPEED_MASK(i);
 80051e2:	2703      	movs	r7, #3
		GPIO_OTYPER(gpioport) &= ~gpios;
 80051e4:	6041      	str	r1, [r0, #4]
	ospeedr = GPIO_OSPEEDR(gpioport);
 80051e6:	6881      	ldr	r1, [r0, #8]
		if (!((1 << i) & gpios)) {
 80051e8:	001d      	movs	r5, r3
 80051ea:	4125      	asrs	r5, r4
 80051ec:	4235      	tst	r5, r6
 80051ee:	d006      	beq.n	80051fe <gpio_set_output_options+0x2c>
		ospeedr &= ~GPIO_OSPEED_MASK(i);
 80051f0:	003a      	movs	r2, r7
 80051f2:	0065      	lsls	r5, r4, #1
 80051f4:	40aa      	lsls	r2, r5
 80051f6:	4391      	bics	r1, r2
		ospeedr |= GPIO_OSPEED(i, speed);
 80051f8:	9a01      	ldr	r2, [sp, #4]
 80051fa:	40aa      	lsls	r2, r5
 80051fc:	4311      	orrs	r1, r2
	for (i = 0; i < 16; i++) {
 80051fe:	3401      	adds	r4, #1
 8005200:	2c10      	cmp	r4, #16
 8005202:	d1f1      	bne.n	80051e8 <gpio_set_output_options+0x16>
	}

	GPIO_OSPEEDR(gpioport) = ospeedr;
 8005204:	6081      	str	r1, [r0, #8]
}
 8005206:	bdf7      	pop	{r0, r1, r2, r4, r5, r6, r7, pc}
		GPIO_OTYPER(gpioport) &= ~gpios;
 8005208:	6841      	ldr	r1, [r0, #4]
 800520a:	4399      	bics	r1, r3
 800520c:	e7e7      	b.n	80051de <gpio_set_output_options+0xc>

0800520e <gpio_set_af>:
@param[in] gpios Unsigned int16. Pin identifiers @ref gpio_pin_id
	     If multiple pins are to be set, use bitwise OR '|' to separate
	     them.
*/
void gpio_set_af(uint32_t gpioport, uint8_t alt_func_num, uint16_t gpios)
{
 800520e:	b5f7      	push	{r0, r1, r2, r4, r5, r6, r7, lr}
	uint16_t i;
	uint32_t afrl, afrh;

	afrl = GPIO_AFRL(gpioport);
	afrh = GPIO_AFRH(gpioport);
 8005210:	2300      	movs	r3, #0

	for (i = 0; i < 8; i++) {
		if (!((1 << i) & gpios)) {
 8005212:	2601      	movs	r6, #1
			continue;
		}
		afrl &= ~GPIO_AFR_MASK(i);
 8005214:	270f      	movs	r7, #15
	afrl = GPIO_AFRL(gpioport);
 8005216:	6a04      	ldr	r4, [r0, #32]
{
 8005218:	9100      	str	r1, [sp, #0]
	afrh = GPIO_AFRH(gpioport);
 800521a:	6a41      	ldr	r1, [r0, #36]	; 0x24
{
 800521c:	9201      	str	r2, [sp, #4]
		if (!((1 << i) & gpios)) {
 800521e:	9d01      	ldr	r5, [sp, #4]
 8005220:	411d      	asrs	r5, r3
 8005222:	4235      	tst	r5, r6
 8005224:	d006      	beq.n	8005234 <gpio_set_af+0x26>
		afrl &= ~GPIO_AFR_MASK(i);
 8005226:	003a      	movs	r2, r7
 8005228:	009d      	lsls	r5, r3, #2
 800522a:	40aa      	lsls	r2, r5
 800522c:	4394      	bics	r4, r2
		afrl |= GPIO_AFR(i, alt_func_num);
 800522e:	9a00      	ldr	r2, [sp, #0]
 8005230:	40aa      	lsls	r2, r5
 8005232:	4314      	orrs	r4, r2
	for (i = 0; i < 8; i++) {
 8005234:	3301      	adds	r3, #1
 8005236:	2b08      	cmp	r3, #8
 8005238:	d1f1      	bne.n	800521e <gpio_set_af+0x10>
	}

	for (i = 8; i < 16; i++) {
		if (!((1 << i) & gpios)) {
 800523a:	2601      	movs	r6, #1
			continue;
		}
		afrh &= ~GPIO_AFR_MASK(i - 8);
 800523c:	270f      	movs	r7, #15
		if (!((1 << i) & gpios)) {
 800523e:	9a01      	ldr	r2, [sp, #4]
 8005240:	411a      	asrs	r2, r3
 8005242:	4232      	tst	r2, r6
 8005244:	d007      	beq.n	8005256 <gpio_set_af+0x48>
		afrh &= ~GPIO_AFR_MASK(i - 8);
 8005246:	003a      	movs	r2, r7
 8005248:	009d      	lsls	r5, r3, #2
 800524a:	3d20      	subs	r5, #32
 800524c:	40aa      	lsls	r2, r5
 800524e:	4391      	bics	r1, r2
		afrh |= GPIO_AFR(i - 8, alt_func_num);
 8005250:	9a00      	ldr	r2, [sp, #0]
 8005252:	40aa      	lsls	r2, r5
 8005254:	4311      	orrs	r1, r2
	for (i = 8; i < 16; i++) {
 8005256:	3301      	adds	r3, #1
 8005258:	2b10      	cmp	r3, #16
 800525a:	d1f0      	bne.n	800523e <gpio_set_af+0x30>
	}

	GPIO_AFRL(gpioport) = afrl;
 800525c:	6204      	str	r4, [r0, #32]
	GPIO_AFRH(gpioport) = afrh;
 800525e:	6241      	str	r1, [r0, #36]	; 0x24
}
 8005260:	bdf7      	pop	{r0, r1, r2, r4, r5, r6, r7, pc}

08005262 <lptimer_get_counter>:
 * @param[in] lptimer_peripheral lptimer base address (@ref lptim_reg_base)
 * @returns Counter value.
 */
uint16_t lptimer_get_counter(uint32_t lptimer_peripheral)
{
	return LPTIM_CNT(lptimer_peripheral);
 8005262:	69c0      	ldr	r0, [r0, #28]
 8005264:	b280      	uxth	r0, r0
}
 8005266:	4770      	bx	lr

08005268 <lptimer_enable>:
 *
 * @param[in] lptimer_peripheral lptimer base address (@ref lptim_reg_base)
 */
void lptimer_enable(uint32_t lptimer_peripheral)
{
	LPTIM_CR(lptimer_peripheral) |= LPTIM_CR_ENABLE;
 8005268:	2301      	movs	r3, #1
 800526a:	6902      	ldr	r2, [r0, #16]
 800526c:	4313      	orrs	r3, r2
 800526e:	6103      	str	r3, [r0, #16]
}
 8005270:	4770      	bx	lr

08005272 <lptimer_start_counter>:
 * @param[in] lptimer_peripheral lptimer base address (@ref lptim_reg_base)
 * @param[in] mode lptimer start mode (@ref LPTIM_CR_SNGSTRT or @ref LPTIM_CR_CNTSTRT)
 */
void lptimer_start_counter(uint32_t lptimer_peripheral, uint32_t mode)
{
	LPTIM_CR(lptimer_peripheral) |= mode;
 8005272:	6903      	ldr	r3, [r0, #16]
 8005274:	430b      	orrs	r3, r1
 8005276:	6103      	str	r3, [r0, #16]
}
 8005278:	4770      	bx	lr
	...

0800527c <lptimer_set_prescaler>:
 * @param[in] lptimer_peripheral lptimer base address (@ref lptim_reg_base)
 * @param[in] prescaler Clock prescaler (@ref lptim_cfgr_presc)
 */
void lptimer_set_prescaler(uint32_t lptimer_peripheral, uint32_t prescaler)
{
	uint32_t reg32 = LPTIM_CFGR(lptimer_peripheral);
 800527c:	68c3      	ldr	r3, [r0, #12]
	reg32 &= ~(LPTIM_CFGR_PRESC_MASK << LPTIM_CFGR_PRESC_SHIFT);
 800527e:	4a02      	ldr	r2, [pc, #8]	; (8005288 <lptimer_set_prescaler+0xc>)
 8005280:	4013      	ands	r3, r2
	LPTIM_CFGR(lptimer_peripheral) = reg32 | prescaler;
 8005282:	430b      	orrs	r3, r1
 8005284:	60c3      	str	r3, [r0, #12]
}
 8005286:	4770      	bx	lr
 8005288:	fffff1ff 	.word	0xfffff1ff

0800528c <lptimer_enable_trigger>:
 * @param[in] lptimer_peripheral lptimer base address (@ref lptim_reg_base)
 * @param[in] trigen Enable Trigger
 */
void lptimer_enable_trigger(uint32_t lptimer_peripheral, uint32_t trigen)
{
	uint32_t reg32 = LPTIM_CFGR(lptimer_peripheral);
 800528c:	68c3      	ldr	r3, [r0, #12]
	reg32 &= ~(LPTIM_CFGR_TRIGEN_MASK << LPTIM_CFGR_TRIGEN_SHIFT);
 800528e:	4a02      	ldr	r2, [pc, #8]	; (8005298 <lptimer_enable_trigger+0xc>)
 8005290:	4013      	ands	r3, r2
	LPTIM_CFGR(lptimer_peripheral) = reg32 | trigen;
 8005292:	430b      	orrs	r3, r1
 8005294:	60c3      	str	r3, [r0, #12]
}
 8005296:	4770      	bx	lr
 8005298:	fff1ffff 	.word	0xfff1ffff

0800529c <lptimer_set_period>:
 * @param[in] lptimer_peripheral lptimer base address (@ref lptim_reg_base)
 * @param[in] period_value Autoreload value. Must be greater that CMP value.
 */
void lptimer_set_period(uint32_t lptimer_peripheral, uint16_t period_value)
{
	LPTIM_ARR(lptimer_peripheral) = period_value;
 800529c:	6181      	str	r1, [r0, #24]
}
 800529e:	4770      	bx	lr

080052a0 <lptimer_set_internal_clock_source>:
 *
 * @param[in] lptimer_peripheral lptimer base address (@ref lptim_reg_base)
 */
void lptimer_set_internal_clock_source(uint32_t lptimer_peripheral)
{
	LPTIM_CFGR(lptimer_peripheral) &= ~LPTIM_CFGR_CKSEL;
 80052a0:	2201      	movs	r2, #1
 80052a2:	68c3      	ldr	r3, [r0, #12]
 80052a4:	4393      	bics	r3, r2
 80052a6:	60c3      	str	r3, [r0, #12]
}
 80052a8:	4770      	bx	lr
	...

080052ac <pwr_disable_backup_domain_write_protect>:
protected after a reset.
*/

void pwr_disable_backup_domain_write_protect(void)
{
	PWR_CR |= PWR_CR_DBP;
 80052ac:	2380      	movs	r3, #128	; 0x80
 80052ae:	4a03      	ldr	r2, [pc, #12]	; (80052bc <pwr_disable_backup_domain_write_protect+0x10>)
 80052b0:	005b      	lsls	r3, r3, #1
 80052b2:	6811      	ldr	r1, [r2, #0]
 80052b4:	430b      	orrs	r3, r1
 80052b6:	6013      	str	r3, [r2, #0]
}
 80052b8:	4770      	bx	lr
 80052ba:	46c0      	nop			; (mov r8, r8)
 80052bc:	40007000 	.word	0x40007000

080052c0 <pwr_enable_backup_domain_write_protect>:
This protects backup domain registers from inadvertent change.
*/

void pwr_enable_backup_domain_write_protect(void)
{
	PWR_CR &= ~PWR_CR_DBP;
 80052c0:	4a02      	ldr	r2, [pc, #8]	; (80052cc <pwr_enable_backup_domain_write_protect+0xc>)
 80052c2:	4903      	ldr	r1, [pc, #12]	; (80052d0 <pwr_enable_backup_domain_write_protect+0x10>)
 80052c4:	6813      	ldr	r3, [r2, #0]
 80052c6:	400b      	ands	r3, r1
 80052c8:	6013      	str	r3, [r2, #0]
}
 80052ca:	4770      	bx	lr
 80052cc:	40007000 	.word	0x40007000
 80052d0:	fffffeff 	.word	0xfffffeff

080052d4 <pwr_clear_standby_flag>:
This is set when the processor returns from a standby mode.
*/

void pwr_clear_standby_flag(void)
{
	PWR_CR |= PWR_CR_CSBF;
 80052d4:	2308      	movs	r3, #8
 80052d6:	4a02      	ldr	r2, [pc, #8]	; (80052e0 <pwr_clear_standby_flag+0xc>)
 80052d8:	6811      	ldr	r1, [r2, #0]
 80052da:	430b      	orrs	r3, r1
 80052dc:	6013      	str	r3, [r2, #0]
}
 80052de:	4770      	bx	lr
 80052e0:	40007000 	.word	0x40007000

080052e4 <pwr_clear_wakeup_flag>:
This is set when the processor receives a wakeup signal.
*/

void pwr_clear_wakeup_flag(void)
{
	PWR_CR |= PWR_CR_CWUF;
 80052e4:	2304      	movs	r3, #4
 80052e6:	4a02      	ldr	r2, [pc, #8]	; (80052f0 <pwr_clear_wakeup_flag+0xc>)
 80052e8:	6811      	ldr	r1, [r2, #0]
 80052ea:	430b      	orrs	r3, r1
 80052ec:	6013      	str	r3, [r2, #0]
}
 80052ee:	4770      	bx	lr
 80052f0:	40007000 	.word	0x40007000

080052f4 <rcc_osc_on>:
uint32_t rcc_ahb_frequency = 2097000;
uint32_t rcc_apb1_frequency = 2097000;
uint32_t rcc_apb2_frequency = 2097000;

void rcc_osc_on(enum rcc_osc osc)
{
 80052f4:	b500      	push	{lr}
 80052f6:	2806      	cmp	r0, #6
 80052f8:	d80b      	bhi.n	8005312 <rcc_osc_on+0x1e>
 80052fa:	f001 fb15 	bl	8006928 <__gnu_thumb1_case_uqi>
 80052fe:	1004      	.short	0x1004
 8005300:	1b0b1915 	.word	0x1b0b1915
 8005304:	1d          	.byte	0x1d
 8005305:	00          	.byte	0x00
	switch (osc) {
	case RCC_PLL:
		RCC_CR |= RCC_CR_PLLON;
 8005306:	2380      	movs	r3, #128	; 0x80
 8005308:	4a0c      	ldr	r2, [pc, #48]	; (800533c <rcc_osc_on+0x48>)
 800530a:	045b      	lsls	r3, r3, #17
 800530c:	6811      	ldr	r1, [r2, #0]
		break;
	case RCC_LSE:
		RCC_CSR |= RCC_CSR_LSEON;
		break;
	case RCC_LSI:
		RCC_CSR |= RCC_CSR_LSION;
 800530e:	430b      	orrs	r3, r1
 8005310:	6013      	str	r3, [r2, #0]
		break;
	}
}
 8005312:	bd00      	pop	{pc}
		RCC_CR |= RCC_CR_MSION;
 8005314:	4a09      	ldr	r2, [pc, #36]	; (800533c <rcc_osc_on+0x48>)
		RCC_CSR |= RCC_CSR_LSEON;
 8005316:	2380      	movs	r3, #128	; 0x80
 8005318:	6811      	ldr	r1, [r2, #0]
 800531a:	005b      	lsls	r3, r3, #1
 800531c:	e7f7      	b.n	800530e <rcc_osc_on+0x1a>
		RCC_CR |= RCC_CR_HSEON;
 800531e:	2380      	movs	r3, #128	; 0x80
 8005320:	4a06      	ldr	r2, [pc, #24]	; (800533c <rcc_osc_on+0x48>)
 8005322:	025b      	lsls	r3, r3, #9
 8005324:	6811      	ldr	r1, [r2, #0]
 8005326:	e7f2      	b.n	800530e <rcc_osc_on+0x1a>
		RCC_CRRCR |= RCC_CRRCR_HSI48ON;
 8005328:	4a05      	ldr	r2, [pc, #20]	; (8005340 <rcc_osc_on+0x4c>)
		RCC_CSR |= RCC_CSR_LSION;
 800532a:	2301      	movs	r3, #1
 800532c:	6811      	ldr	r1, [r2, #0]
 800532e:	e7ee      	b.n	800530e <rcc_osc_on+0x1a>
		RCC_CR |= RCC_CR_HSI16ON;
 8005330:	4a02      	ldr	r2, [pc, #8]	; (800533c <rcc_osc_on+0x48>)
 8005332:	e7fa      	b.n	800532a <rcc_osc_on+0x36>
		RCC_CSR |= RCC_CSR_LSEON;
 8005334:	4a03      	ldr	r2, [pc, #12]	; (8005344 <rcc_osc_on+0x50>)
 8005336:	e7ee      	b.n	8005316 <rcc_osc_on+0x22>
		RCC_CSR |= RCC_CSR_LSION;
 8005338:	4a02      	ldr	r2, [pc, #8]	; (8005344 <rcc_osc_on+0x50>)
 800533a:	e7f6      	b.n	800532a <rcc_osc_on+0x36>
 800533c:	40021000 	.word	0x40021000
 8005340:	40021008 	.word	0x40021008
 8005344:	40021050 	.word	0x40021050

08005348 <rcc_osc_off>:

void rcc_osc_off(enum rcc_osc osc)
{
 8005348:	b500      	push	{lr}
 800534a:	2806      	cmp	r0, #6
 800534c:	d80a      	bhi.n	8005364 <rcc_osc_off+0x1c>
 800534e:	f001 faeb 	bl	8006928 <__gnu_thumb1_case_uqi>
 8005352:	0e04      	.short	0x0e04
 8005354:	190a1712 	.word	0x190a1712
 8005358:	1b          	.byte	0x1b
 8005359:	00          	.byte	0x00
	switch (osc) {
	case RCC_PLL:
		RCC_CR &= ~RCC_CR_PLLON;
 800535a:	4a0c      	ldr	r2, [pc, #48]	; (800538c <rcc_osc_off+0x44>)
 800535c:	490c      	ldr	r1, [pc, #48]	; (8005390 <rcc_osc_off+0x48>)
 800535e:	6813      	ldr	r3, [r2, #0]
		break;
	case RCC_HSI16:
		RCC_CR &= ~RCC_CR_HSI16ON;
		break;
	case RCC_LSE:
		RCC_CSR &= ~RCC_CSR_LSEON;
 8005360:	400b      	ands	r3, r1
		break;
	case RCC_LSI:
		RCC_CSR &= ~RCC_CSR_LSION;
 8005362:	6013      	str	r3, [r2, #0]
		break;
	}
}
 8005364:	bd00      	pop	{pc}
		RCC_CR &= ~RCC_CR_MSION;
 8005366:	4a09      	ldr	r2, [pc, #36]	; (800538c <rcc_osc_off+0x44>)
		RCC_CSR &= ~RCC_CSR_LSEON;
 8005368:	6813      	ldr	r3, [r2, #0]
 800536a:	490a      	ldr	r1, [pc, #40]	; (8005394 <rcc_osc_off+0x4c>)
 800536c:	e7f8      	b.n	8005360 <rcc_osc_off+0x18>
		RCC_CR &= ~RCC_CR_HSEON;
 800536e:	4a07      	ldr	r2, [pc, #28]	; (800538c <rcc_osc_off+0x44>)
 8005370:	4909      	ldr	r1, [pc, #36]	; (8005398 <rcc_osc_off+0x50>)
 8005372:	6813      	ldr	r3, [r2, #0]
 8005374:	e7f4      	b.n	8005360 <rcc_osc_off+0x18>
		RCC_CRRCR &= ~RCC_CRRCR_HSI48ON;
 8005376:	4a09      	ldr	r2, [pc, #36]	; (800539c <rcc_osc_off+0x54>)
		RCC_CSR &= ~RCC_CSR_LSION;
 8005378:	2101      	movs	r1, #1
 800537a:	6813      	ldr	r3, [r2, #0]
 800537c:	438b      	bics	r3, r1
 800537e:	e7f0      	b.n	8005362 <rcc_osc_off+0x1a>
		RCC_CR &= ~RCC_CR_HSI16ON;
 8005380:	4a02      	ldr	r2, [pc, #8]	; (800538c <rcc_osc_off+0x44>)
 8005382:	e7f9      	b.n	8005378 <rcc_osc_off+0x30>
		RCC_CSR &= ~RCC_CSR_LSEON;
 8005384:	4a06      	ldr	r2, [pc, #24]	; (80053a0 <rcc_osc_off+0x58>)
 8005386:	e7ef      	b.n	8005368 <rcc_osc_off+0x20>
		RCC_CSR &= ~RCC_CSR_LSION;
 8005388:	4a05      	ldr	r2, [pc, #20]	; (80053a0 <rcc_osc_off+0x58>)
 800538a:	e7f5      	b.n	8005378 <rcc_osc_off+0x30>
 800538c:	40021000 	.word	0x40021000
 8005390:	feffffff 	.word	0xfeffffff
 8005394:	fffffeff 	.word	0xfffffeff
 8005398:	fffeffff 	.word	0xfffeffff
 800539c:	40021008 	.word	0x40021008
 80053a0:	40021050 	.word	0x40021050

080053a4 <rcc_is_osc_ready>:
	cm3_assert_not_reached();
}


bool rcc_is_osc_ready(enum rcc_osc osc)
{
 80053a4:	2300      	movs	r3, #0
 80053a6:	b500      	push	{lr}
 80053a8:	2806      	cmp	r0, #6
 80053aa:	d80a      	bhi.n	80053c2 <rcc_is_osc_ready+0x1e>
 80053ac:	3301      	adds	r3, #1
 80053ae:	f001 fabb 	bl	8006928 <__gnu_thumb1_case_uqi>
 80053b2:	0a04      	.short	0x0a04
 80053b4:	1a160e12 	.word	0x1a160e12
 80053b8:	1c          	.byte	0x1c
 80053b9:	00          	.byte	0x00
	switch (osc) {
	case RCC_PLL:
		return RCC_CR & RCC_CR_PLLRDY;
 80053ba:	4a0d      	ldr	r2, [pc, #52]	; (80053f0 <rcc_is_osc_ready+0x4c>)
 80053bc:	6810      	ldr	r0, [r2, #0]
 80053be:	0e40      	lsrs	r0, r0, #25
	case RCC_MSI:
		return RCC_CR & RCC_CR_MSIRDY;
	case RCC_LSE:
		return RCC_CSR & RCC_CSR_LSERDY;
	case RCC_LSI:
		return RCC_CSR & RCC_CSR_LSIRDY;
 80053c0:	4003      	ands	r3, r0
	}
	return false;
}
 80053c2:	0018      	movs	r0, r3
 80053c4:	bd00      	pop	{pc}
		return RCC_CR & RCC_CR_HSERDY;
 80053c6:	4a0a      	ldr	r2, [pc, #40]	; (80053f0 <rcc_is_osc_ready+0x4c>)
 80053c8:	6810      	ldr	r0, [r2, #0]
 80053ca:	0c40      	lsrs	r0, r0, #17
 80053cc:	e7f8      	b.n	80053c0 <rcc_is_osc_ready+0x1c>
		return RCC_CR & RCC_CR_HSI16RDY;
 80053ce:	4a08      	ldr	r2, [pc, #32]	; (80053f0 <rcc_is_osc_ready+0x4c>)
 80053d0:	6810      	ldr	r0, [r2, #0]
 80053d2:	0880      	lsrs	r0, r0, #2
 80053d4:	e7f4      	b.n	80053c0 <rcc_is_osc_ready+0x1c>
		return RCC_CRRCR & RCC_CRRCR_HSI48RDY;
 80053d6:	4a07      	ldr	r2, [pc, #28]	; (80053f4 <rcc_is_osc_ready+0x50>)
		return RCC_CSR & RCC_CSR_LSIRDY;
 80053d8:	6810      	ldr	r0, [r2, #0]
 80053da:	0840      	lsrs	r0, r0, #1
 80053dc:	e7f0      	b.n	80053c0 <rcc_is_osc_ready+0x1c>
		return RCC_CR & RCC_CR_MSIRDY;
 80053de:	4a04      	ldr	r2, [pc, #16]	; (80053f0 <rcc_is_osc_ready+0x4c>)
		return RCC_CSR & RCC_CSR_LSERDY;
 80053e0:	6810      	ldr	r0, [r2, #0]
 80053e2:	0a40      	lsrs	r0, r0, #9
 80053e4:	e7ec      	b.n	80053c0 <rcc_is_osc_ready+0x1c>
 80053e6:	4a04      	ldr	r2, [pc, #16]	; (80053f8 <rcc_is_osc_ready+0x54>)
 80053e8:	e7fa      	b.n	80053e0 <rcc_is_osc_ready+0x3c>
		return RCC_CSR & RCC_CSR_LSIRDY;
 80053ea:	4a03      	ldr	r2, [pc, #12]	; (80053f8 <rcc_is_osc_ready+0x54>)
 80053ec:	e7f4      	b.n	80053d8 <rcc_is_osc_ready+0x34>
 80053ee:	46c0      	nop			; (mov r8, r8)
 80053f0:	40021000 	.word	0x40021000
 80053f4:	40021008 	.word	0x40021008
 80053f8:	40021050 	.word	0x40021050

080053fc <rcc_wait_for_osc_ready>:

void rcc_wait_for_osc_ready(enum rcc_osc osc)
{
 80053fc:	b510      	push	{r4, lr}
 80053fe:	0004      	movs	r4, r0
	while (!rcc_is_osc_ready(osc));
 8005400:	0020      	movs	r0, r4
 8005402:	f7ff ffcf 	bl	80053a4 <rcc_is_osc_ready>
 8005406:	2800      	cmp	r0, #0
 8005408:	d0fa      	beq.n	8005400 <rcc_wait_for_osc_ready+0x4>
}
 800540a:	bd10      	pop	{r4, pc}

0800540c <rcc_set_hsi48_source_rc48>:
/*---------------------------------------------------------------------------*/
/** @brief RCC Set HSI48 clock source to the RC48 (CRS)
 */
void rcc_set_hsi48_source_rc48(void)
{
	RCC_CCIPR |= RCC_CCIPR_HSI48SEL;
 800540c:	2380      	movs	r3, #128	; 0x80
 800540e:	4a03      	ldr	r2, [pc, #12]	; (800541c <rcc_set_hsi48_source_rc48+0x10>)
 8005410:	04db      	lsls	r3, r3, #19
 8005412:	6811      	ldr	r1, [r2, #0]
 8005414:	430b      	orrs	r3, r1
 8005416:	6013      	str	r3, [r2, #0]
}
 8005418:	4770      	bx	lr
 800541a:	46c0      	nop			; (mov r8, r8)
 800541c:	4002104c 	.word	0x4002104c

08005420 <rcc_set_sysclk_source>:
 *
 * @param[in] osc Oscillator ID. Only HSE, HSI16, MSI and PLL have effect.
 */

void rcc_set_sysclk_source(enum rcc_osc osc)
{
 8005420:	b500      	push	{lr}
 8005422:	2804      	cmp	r0, #4
 8005424:	d812      	bhi.n	800544c <rcc_set_sysclk_source+0x2c>
 8005426:	f001 fa7f 	bl	8006928 <__gnu_thumb1_case_uqi>
 800542a:	0903      	.short	0x0903
 800542c:	1211      	.short	0x1211
 800542e:	19          	.byte	0x19
 800542f:	00          	.byte	0x00
	switch (osc) {
	case RCC_PLL:
		RCC_CFGR |=  RCC_CFGR_SW_PLL;
 8005430:	2303      	movs	r3, #3
 8005432:	4a0d      	ldr	r2, [pc, #52]	; (8005468 <rcc_set_sysclk_source+0x48>)
 8005434:	6811      	ldr	r1, [r2, #0]
 8005436:	430b      	orrs	r3, r1
		break;
	case RCC_HSI16:
		RCC_CFGR = (RCC_CFGR & ~RCC_CFGR_SW_MASK) | RCC_CFGR_SW_HSI16;
		break;
	case RCC_MSI:
		RCC_CFGR = (RCC_CFGR & ~RCC_CFGR_SW_MASK) | RCC_CFGR_SW_MSI;
 8005438:	6013      	str	r3, [r2, #0]
	case RCC_HSI48:
	case RCC_LSE:
	case RCC_LSI:
		break;
	}
}
 800543a:	e007      	b.n	800544c <rcc_set_sysclk_source+0x2c>
		RCC_CFGR = (RCC_CFGR & ~RCC_CFGR_SW_MASK) | RCC_CFGR_SW_HSE;
 800543c:	2203      	movs	r2, #3
 800543e:	490a      	ldr	r1, [pc, #40]	; (8005468 <rcc_set_sysclk_source+0x48>)
 8005440:	680b      	ldr	r3, [r1, #0]
 8005442:	4393      	bics	r3, r2
 8005444:	001a      	movs	r2, r3
 8005446:	2302      	movs	r3, #2
		RCC_CFGR = (RCC_CFGR & ~RCC_CFGR_SW_MASK) | RCC_CFGR_SW_HSI16;
 8005448:	4313      	orrs	r3, r2
 800544a:	600b      	str	r3, [r1, #0]
}
 800544c:	bd00      	pop	{pc}
		RCC_CFGR = (RCC_CFGR & ~RCC_CFGR_SW_MASK) | RCC_CFGR_SW_HSI16;
 800544e:	2203      	movs	r2, #3
 8005450:	4905      	ldr	r1, [pc, #20]	; (8005468 <rcc_set_sysclk_source+0x48>)
 8005452:	680b      	ldr	r3, [r1, #0]
 8005454:	4393      	bics	r3, r2
 8005456:	001a      	movs	r2, r3
 8005458:	2301      	movs	r3, #1
 800545a:	e7f5      	b.n	8005448 <rcc_set_sysclk_source+0x28>
		RCC_CFGR = (RCC_CFGR & ~RCC_CFGR_SW_MASK) | RCC_CFGR_SW_MSI;
 800545c:	2103      	movs	r1, #3
 800545e:	4a02      	ldr	r2, [pc, #8]	; (8005468 <rcc_set_sysclk_source+0x48>)
 8005460:	6813      	ldr	r3, [r2, #0]
 8005462:	438b      	bics	r3, r1
 8005464:	e7e8      	b.n	8005438 <rcc_set_sysclk_source+0x18>
 8005466:	46c0      	nop			; (mov r8, r8)
 8005468:	4002100c 	.word	0x4002100c

0800546c <rcc_set_ppre1>:
 * @param[in] ppre APB prescale factor @ref rcc_cfgr_apb1pre
 */

void rcc_set_ppre1(uint32_t ppre)
{
	uint32_t reg = RCC_CFGR
 800546c:	4a03      	ldr	r2, [pc, #12]	; (800547c <rcc_set_ppre1+0x10>)
 800546e:	4904      	ldr	r1, [pc, #16]	; (8005480 <rcc_set_ppre1+0x14>)
 8005470:	6813      	ldr	r3, [r2, #0]
		       & ~(RCC_CFGR_PPRE1_MASK << RCC_CFGR_PPRE1_SHIFT);
	RCC_CFGR = reg | (ppre << RCC_CFGR_PPRE1_SHIFT);
 8005472:	0200      	lsls	r0, r0, #8
	uint32_t reg = RCC_CFGR
 8005474:	400b      	ands	r3, r1
	RCC_CFGR = reg | (ppre << RCC_CFGR_PPRE1_SHIFT);
 8005476:	4318      	orrs	r0, r3
 8005478:	6010      	str	r0, [r2, #0]
}
 800547a:	4770      	bx	lr
 800547c:	4002100c 	.word	0x4002100c
 8005480:	fffff8ff 	.word	0xfffff8ff

08005484 <rcc_set_ppre2>:
 * @param[in] ppre APB prescale factor @ref rcc_cfgr_apb2pre
 */

void rcc_set_ppre2(uint32_t ppre)
{
	uint32_t reg = RCC_CFGR
 8005484:	4a03      	ldr	r2, [pc, #12]	; (8005494 <rcc_set_ppre2+0x10>)
 8005486:	4904      	ldr	r1, [pc, #16]	; (8005498 <rcc_set_ppre2+0x14>)
 8005488:	6813      	ldr	r3, [r2, #0]
		       & ~(RCC_CFGR_PPRE2_MASK << RCC_CFGR_PPRE2_SHIFT);
	RCC_CFGR = reg | (ppre << RCC_CFGR_PPRE2_SHIFT);
 800548a:	02c0      	lsls	r0, r0, #11
	uint32_t reg = RCC_CFGR
 800548c:	400b      	ands	r3, r1
	RCC_CFGR = reg | (ppre << RCC_CFGR_PPRE2_SHIFT);
 800548e:	4318      	orrs	r0, r3
 8005490:	6010      	str	r0, [r2, #0]
}
 8005492:	4770      	bx	lr
 8005494:	4002100c 	.word	0x4002100c
 8005498:	ffffc7ff 	.word	0xffffc7ff

0800549c <rcc_set_hpre>:
 * @param[in] hpre Unsigned int32. AHB prescale factor @ref rcc_cfgr_ahbpre
 */

void rcc_set_hpre(uint32_t hpre)
{
	uint32_t reg = RCC_CFGR & ~(RCC_CFGR_HPRE_MASK << RCC_CFGR_HPRE_SHIFT);
 800549c:	21f0      	movs	r1, #240	; 0xf0
 800549e:	4a03      	ldr	r2, [pc, #12]	; (80054ac <rcc_set_hpre+0x10>)
	RCC_CFGR = reg | (hpre << RCC_CFGR_HPRE_SHIFT);
 80054a0:	0100      	lsls	r0, r0, #4
	uint32_t reg = RCC_CFGR & ~(RCC_CFGR_HPRE_MASK << RCC_CFGR_HPRE_SHIFT);
 80054a2:	6813      	ldr	r3, [r2, #0]
 80054a4:	438b      	bics	r3, r1
	RCC_CFGR = reg | (hpre << RCC_CFGR_HPRE_SHIFT);
 80054a6:	4318      	orrs	r0, r3
 80054a8:	6010      	str	r0, [r2, #0]
}
 80054aa:	4770      	bx	lr
 80054ac:	4002100c 	.word	0x4002100c

080054b0 <rcc_set_peripheral_clk_sel>:
void rcc_set_peripheral_clk_sel(uint32_t periph, uint32_t sel)
{
	uint8_t shift;
	uint32_t mask;

	switch (periph) {
 80054b0:	4b13      	ldr	r3, [pc, #76]	; (8005500 <rcc_set_peripheral_clk_sel+0x50>)
{
 80054b2:	000a      	movs	r2, r1
 80054b4:	b510      	push	{r4, lr}
	switch (periph) {
 80054b6:	4298      	cmp	r0, r3
 80054b8:	d01c      	beq.n	80054f4 <rcc_set_peripheral_clk_sel+0x44>
 80054ba:	d80b      	bhi.n	80054d4 <rcc_set_peripheral_clk_sel+0x24>
 80054bc:	4b11      	ldr	r3, [pc, #68]	; (8005504 <rcc_set_peripheral_clk_sel+0x54>)
 80054be:	4298      	cmp	r0, r3
 80054c0:	d01a      	beq.n	80054f8 <rcc_set_peripheral_clk_sel+0x48>
 80054c2:	4911      	ldr	r1, [pc, #68]	; (8005508 <rcc_set_peripheral_clk_sel+0x58>)
			shift = RCC_CCIPR_I2C3SEL_SHIFT;
			mask = RCC_CCIPR_I2C3SEL_MASK;
			break;

		case I2C1_BASE:
			shift = RCC_CCIPR_I2C1SEL_SHIFT;
 80054c4:	230c      	movs	r3, #12
	switch (periph) {
 80054c6:	4288      	cmp	r0, r1
 80054c8:	d00b      	beq.n	80054e2 <rcc_set_peripheral_clk_sel+0x32>
 80054ca:	4910      	ldr	r1, [pc, #64]	; (800550c <rcc_set_peripheral_clk_sel+0x5c>)
			shift = RCC_CCIPR_LPUART1SEL_SHIFT;
			mask = RCC_CCIPR_LPUART1SEL_MASK;
			break;

		case USART2_BASE:
			shift = RCC_CCIPR_USART2SEL_SHIFT;
 80054cc:	3b0a      	subs	r3, #10
	switch (periph) {
 80054ce:	4288      	cmp	r0, r1
 80054d0:	d007      	beq.n	80054e2 <rcc_set_peripheral_clk_sel+0x32>
			return;
	}

	uint32_t reg32 = RCC_CCIPR & ~(mask << shift);
	RCC_CCIPR = reg32 | (sel << shift);
}
 80054d2:	bd10      	pop	{r4, pc}
	switch (periph) {
 80054d4:	4b0e      	ldr	r3, [pc, #56]	; (8005510 <rcc_set_peripheral_clk_sel+0x60>)
 80054d6:	4298      	cmp	r0, r3
 80054d8:	d010      	beq.n	80054fc <rcc_set_peripheral_clk_sel+0x4c>
 80054da:	4b0e      	ldr	r3, [pc, #56]	; (8005514 <rcc_set_peripheral_clk_sel+0x64>)
 80054dc:	4298      	cmp	r0, r3
 80054de:	d1f8      	bne.n	80054d2 <rcc_set_peripheral_clk_sel+0x22>
			shift = RCC_CCIPR_USART1SEL_SHIFT;
 80054e0:	2300      	movs	r3, #0
	uint32_t reg32 = RCC_CCIPR & ~(mask << shift);
 80054e2:	2003      	movs	r0, #3
 80054e4:	4098      	lsls	r0, r3
	RCC_CCIPR = reg32 | (sel << shift);
 80054e6:	409a      	lsls	r2, r3
	uint32_t reg32 = RCC_CCIPR & ~(mask << shift);
 80054e8:	4c0b      	ldr	r4, [pc, #44]	; (8005518 <rcc_set_peripheral_clk_sel+0x68>)
 80054ea:	6821      	ldr	r1, [r4, #0]
 80054ec:	4381      	bics	r1, r0
	RCC_CCIPR = reg32 | (sel << shift);
 80054ee:	4311      	orrs	r1, r2
 80054f0:	6021      	str	r1, [r4, #0]
 80054f2:	e7ee      	b.n	80054d2 <rcc_set_peripheral_clk_sel+0x22>
	switch (periph) {
 80054f4:	2310      	movs	r3, #16
 80054f6:	e7f4      	b.n	80054e2 <rcc_set_peripheral_clk_sel+0x32>
			shift = RCC_CCIPR_LPUART1SEL_SHIFT;
 80054f8:	230a      	movs	r3, #10
 80054fa:	e7f2      	b.n	80054e2 <rcc_set_peripheral_clk_sel+0x32>
			shift = RCC_CCIPR_LPTIM1SEL_SHIFT;
 80054fc:	2312      	movs	r3, #18
 80054fe:	e7f0      	b.n	80054e2 <rcc_set_peripheral_clk_sel+0x32>
 8005500:	40007800 	.word	0x40007800
 8005504:	40004800 	.word	0x40004800
 8005508:	40005400 	.word	0x40005400
 800550c:	40004400 	.word	0x40004400
 8005510:	40007c00 	.word	0x40007c00
 8005514:	40013800 	.word	0x40013800
 8005518:	4002104c 	.word	0x4002104c

0800551c <rcc_periph_clock_enable>:
 * For available constants, see #rcc_periph_clken (RCC_UART1 for example)
 */

void rcc_periph_clock_enable(enum rcc_periph_clken clken)
{
	_RCC_REG(clken) |= _RCC_BIT(clken);
 800551c:	4b05      	ldr	r3, [pc, #20]	; (8005534 <rcc_periph_clock_enable+0x18>)
 800551e:	0942      	lsrs	r2, r0, #5
 8005520:	18d2      	adds	r2, r2, r3
 8005522:	231f      	movs	r3, #31
 8005524:	4018      	ands	r0, r3
 8005526:	3b1e      	subs	r3, #30
 8005528:	4083      	lsls	r3, r0
 800552a:	6811      	ldr	r1, [r2, #0]
 800552c:	430b      	orrs	r3, r1
 800552e:	6013      	str	r3, [r2, #0]
}
 8005530:	4770      	bx	lr
 8005532:	46c0      	nop			; (mov r8, r8)
 8005534:	40021000 	.word	0x40021000

08005538 <rcc_periph_reset_pulse>:
 * For available constants, see #rcc_periph_rst (RST_UART1 for example)
 */

void rcc_periph_reset_pulse(enum rcc_periph_rst rst)
{
	_RCC_REG(rst) |= _RCC_BIT(rst);
 8005538:	4a06      	ldr	r2, [pc, #24]	; (8005554 <rcc_periph_reset_pulse+0x1c>)
 800553a:	0943      	lsrs	r3, r0, #5
 800553c:	189b      	adds	r3, r3, r2
 800553e:	221f      	movs	r2, #31
 8005540:	4010      	ands	r0, r2
 8005542:	3a1e      	subs	r2, #30
 8005544:	4082      	lsls	r2, r0
 8005546:	6819      	ldr	r1, [r3, #0]
 8005548:	4311      	orrs	r1, r2
 800554a:	6019      	str	r1, [r3, #0]
	_RCC_REG(rst) &= ~_RCC_BIT(rst);
 800554c:	6819      	ldr	r1, [r3, #0]
 800554e:	4391      	bics	r1, r2
 8005550:	6019      	str	r1, [r3, #0]
}
 8005552:	4770      	bx	lr
 8005554:	40021000 	.word	0x40021000

08005558 <rtc_unlock>:
/** @brief Unlock write access to the RTC registers

*/
void rtc_unlock(void)
{
	RTC_WPR = 0xca;
 8005558:	22ca      	movs	r2, #202	; 0xca
 800555a:	4b02      	ldr	r3, [pc, #8]	; (8005564 <rtc_unlock+0xc>)
 800555c:	601a      	str	r2, [r3, #0]
	RTC_WPR = 0x53;
 800555e:	3a77      	subs	r2, #119	; 0x77
 8005560:	601a      	str	r2, [r3, #0]
}
 8005562:	4770      	bx	lr
 8005564:	40002824 	.word	0x40002824

08005568 <rtc_lock>:
/** @brief Lock write access to the RTC registers

*/
void rtc_lock(void)
{
	RTC_WPR = 0xff;
 8005568:	22ff      	movs	r2, #255	; 0xff
 800556a:	4b01      	ldr	r3, [pc, #4]	; (8005570 <rtc_lock+0x8>)
 800556c:	601a      	str	r2, [r3, #0]
}
 800556e:	4770      	bx	lr
 8005570:	40002824 	.word	0x40002824

08005574 <rtc_clear_wakeup_flag>:

@details This function should be called first in the rtc_wkup_isr()
*/
void rtc_clear_wakeup_flag(void)
{
	RTC_ISR &= ~RTC_ISR_WUTF;
 8005574:	4a02      	ldr	r2, [pc, #8]	; (8005580 <rtc_clear_wakeup_flag+0xc>)
 8005576:	4903      	ldr	r1, [pc, #12]	; (8005584 <rtc_clear_wakeup_flag+0x10>)
 8005578:	6813      	ldr	r3, [r2, #0]
 800557a:	400b      	ands	r3, r1
 800557c:	6013      	str	r3, [r2, #0]
}
 800557e:	4770      	bx	lr
 8005580:	4000280c 	.word	0x4000280c
 8005584:	fffffbff 	.word	0xfffffbff

08005588 <spi_xfer>:
uint16_t spi_xfer(uint32_t spi, uint16_t data)
{
	spi_write(spi, data);

	/* Wait for transfer finished. */
	while (!(SPI_SR(spi) & SPI_SR_RXNE));
 8005588:	2301      	movs	r3, #1
	SPI_DR(spi) = data;
 800558a:	60c1      	str	r1, [r0, #12]
	while (!(SPI_SR(spi) & SPI_SR_RXNE));
 800558c:	6882      	ldr	r2, [r0, #8]
 800558e:	421a      	tst	r2, r3
 8005590:	d0fc      	beq.n	800558c <spi_xfer+0x4>

	/* Read the data (8 or 16 bits, depending on DFF bit) from DR. */
	return SPI_DR(spi);
 8005592:	68c0      	ldr	r0, [r0, #12]
 8005594:	b280      	uxth	r0, r0
}
 8005596:	4770      	bx	lr

08005598 <timer_enable_counter>:
tim_reg_base
*/

void timer_enable_counter(uint32_t timer_peripheral)
{
	TIM_CR1(timer_peripheral) |= TIM_CR1_CEN;
 8005598:	2301      	movs	r3, #1
 800559a:	6802      	ldr	r2, [r0, #0]
 800559c:	4313      	orrs	r3, r2
 800559e:	6003      	str	r3, [r0, #0]
}
 80055a0:	4770      	bx	lr

080055a2 <timer_disable_counter>:
tim_reg_base
*/

void timer_disable_counter(uint32_t timer_peripheral)
{
	TIM_CR1(timer_peripheral) &= ~TIM_CR1_CEN;
 80055a2:	2201      	movs	r2, #1
 80055a4:	6803      	ldr	r3, [r0, #0]
 80055a6:	4393      	bics	r3, r2
 80055a8:	6003      	str	r3, [r0, #0]
}
 80055aa:	4770      	bx	lr

080055ac <timer_set_prescaler>:
@param[in] value Unsigned int32. Prescaler values 0...0xFFFF.
*/

void timer_set_prescaler(uint32_t timer_peripheral, uint32_t value)
{
	TIM_PSC(timer_peripheral) = value;
 80055ac:	6281      	str	r1, [r0, #40]	; 0x28
}
 80055ae:	4770      	bx	lr

080055b0 <timer_get_counter>:
@returns Unsigned int32. Counter value.
*/

uint32_t timer_get_counter(uint32_t timer_peripheral)
{
	return TIM_CNT(timer_peripheral);
 80055b0:	6a40      	ldr	r0, [r0, #36]	; 0x24
}
 80055b2:	4770      	bx	lr

080055b4 <usart_set_baudrate>:
void usart_set_baudrate(uint32_t usart, uint32_t baud)
{
	uint32_t clock = rcc_apb1_frequency;

#if defined USART1
	if ((usart == USART1)
 80055b4:	4b10      	ldr	r3, [pc, #64]	; (80055f8 <usart_set_baudrate+0x44>)
{
 80055b6:	b570      	push	{r4, r5, r6, lr}
 80055b8:	0005      	movs	r5, r0
 80055ba:	000c      	movs	r4, r1
 80055bc:	084e      	lsrs	r6, r1, #1
	if ((usart == USART1)
 80055be:	4298      	cmp	r0, r3
 80055c0:	d107      	bne.n	80055d2 <usart_set_baudrate+0x1e>
#if defined USART6
		|| (usart == USART6)
#endif
		) {
		clock = rcc_apb2_frequency;
 80055c2:	4b0e      	ldr	r3, [pc, #56]	; (80055fc <usart_set_baudrate+0x48>)
 80055c4:	6818      	ldr	r0, [r3, #0]
			+ ((clock % baud) * 256 + baud / 2) / baud;
		return;
	}
#endif

	USART_BRR(usart) = (clock + baud / 2) / baud;
 80055c6:	0021      	movs	r1, r4
 80055c8:	1830      	adds	r0, r6, r0
 80055ca:	f001 f9b7 	bl	800693c <__udivsi3>
 80055ce:	60e8      	str	r0, [r5, #12]
 80055d0:	e010      	b.n	80055f4 <usart_set_baudrate+0x40>
	uint32_t clock = rcc_apb1_frequency;
 80055d2:	4b0b      	ldr	r3, [pc, #44]	; (8005600 <usart_set_baudrate+0x4c>)
 80055d4:	6818      	ldr	r0, [r3, #0]
	if (usart == LPUART1) {
 80055d6:	4b0b      	ldr	r3, [pc, #44]	; (8005604 <usart_set_baudrate+0x50>)
 80055d8:	429d      	cmp	r5, r3
 80055da:	d1f4      	bne.n	80055c6 <usart_set_baudrate+0x12>
		USART_BRR(usart) = (clock / baud) * 256
 80055dc:	f001 fa34 	bl	8006a48 <__aeabi_uidivmod>
 80055e0:	0005      	movs	r5, r0
			+ ((clock % baud) * 256 + baud / 2) / baud;
 80055e2:	0208      	lsls	r0, r1, #8
 80055e4:	1980      	adds	r0, r0, r6
 80055e6:	0021      	movs	r1, r4
 80055e8:	f001 f9a8 	bl	800693c <__udivsi3>
		USART_BRR(usart) = (clock / baud) * 256
 80055ec:	022d      	lsls	r5, r5, #8
 80055ee:	4b06      	ldr	r3, [pc, #24]	; (8005608 <usart_set_baudrate+0x54>)
			+ ((clock % baud) * 256 + baud / 2) / baud;
 80055f0:	1940      	adds	r0, r0, r5
		USART_BRR(usart) = (clock / baud) * 256
 80055f2:	6018      	str	r0, [r3, #0]
}
 80055f4:	bd70      	pop	{r4, r5, r6, pc}
 80055f6:	46c0      	nop			; (mov r8, r8)
 80055f8:	40013800 	.word	0x40013800
 80055fc:	200000d8 	.word	0x200000d8
 8005600:	200000d4 	.word	0x200000d4
 8005604:	40004800 	.word	0x40004800
 8005608:	4000480c 	.word	0x4000480c

0800560c <usart_set_databits>:
@param[in] bits unsigned 32 bit. Word length in bits 8 or 9.
*/

void usart_set_databits(uint32_t usart, uint32_t bits)
{
	if (bits == 8) {
 800560c:	2908      	cmp	r1, #8
 800560e:	d104      	bne.n	800561a <usart_set_databits+0xe>
		USART_CR1(usart) &= ~USART_CR1_M; /* 8 data bits */
 8005610:	6803      	ldr	r3, [r0, #0]
 8005612:	4a04      	ldr	r2, [pc, #16]	; (8005624 <usart_set_databits+0x18>)
 8005614:	4013      	ands	r3, r2
	} else {
		USART_CR1(usart) |= USART_CR1_M;  /* 9 data bits */
 8005616:	6003      	str	r3, [r0, #0]
	}
}
 8005618:	4770      	bx	lr
		USART_CR1(usart) |= USART_CR1_M;  /* 9 data bits */
 800561a:	2380      	movs	r3, #128	; 0x80
 800561c:	6802      	ldr	r2, [r0, #0]
 800561e:	015b      	lsls	r3, r3, #5
 8005620:	4313      	orrs	r3, r2
 8005622:	e7f8      	b.n	8005616 <usart_set_databits+0xa>
 8005624:	ffffefff 	.word	0xffffefff

08005628 <usart_set_stopbits>:

void usart_set_stopbits(uint32_t usart, uint32_t stopbits)
{
	uint32_t reg32;

	reg32 = USART_CR2(usart);
 8005628:	6843      	ldr	r3, [r0, #4]
	reg32 = (reg32 & ~USART_CR2_STOPBITS_MASK) | stopbits;
 800562a:	4a02      	ldr	r2, [pc, #8]	; (8005634 <usart_set_stopbits+0xc>)
 800562c:	4013      	ands	r3, r2
 800562e:	430b      	orrs	r3, r1
	USART_CR2(usart) = reg32;
 8005630:	6043      	str	r3, [r0, #4]
}
 8005632:	4770      	bx	lr
 8005634:	ffffcfff 	.word	0xffffcfff

08005638 <usart_set_parity>:

void usart_set_parity(uint32_t usart, uint32_t parity)
{
	uint32_t reg32;

	reg32 = USART_CR1(usart);
 8005638:	6803      	ldr	r3, [r0, #0]
	reg32 = (reg32 & ~USART_PARITY_MASK) | parity;
 800563a:	4a02      	ldr	r2, [pc, #8]	; (8005644 <usart_set_parity+0xc>)
 800563c:	4013      	ands	r3, r2
 800563e:	430b      	orrs	r3, r1
	USART_CR1(usart) = reg32;
 8005640:	6003      	str	r3, [r0, #0]
}
 8005642:	4770      	bx	lr
 8005644:	fffff9ff 	.word	0xfffff9ff

08005648 <usart_set_mode>:
void usart_set_mode(uint32_t usart, uint32_t mode)
{
	uint32_t reg32;

	reg32 = USART_CR1(usart);
	reg32 = (reg32 & ~USART_MODE_MASK) | mode;
 8005648:	220c      	movs	r2, #12
	reg32 = USART_CR1(usart);
 800564a:	6803      	ldr	r3, [r0, #0]
	reg32 = (reg32 & ~USART_MODE_MASK) | mode;
 800564c:	4393      	bics	r3, r2
 800564e:	430b      	orrs	r3, r1
	USART_CR1(usart) = reg32;
 8005650:	6003      	str	r3, [r0, #0]
}
 8005652:	4770      	bx	lr

08005654 <usart_set_flow_control>:

void usart_set_flow_control(uint32_t usart, uint32_t flowcontrol)
{
	uint32_t reg32;

	reg32 = USART_CR3(usart);
 8005654:	6883      	ldr	r3, [r0, #8]
	reg32 = (reg32 & ~USART_FLOWCONTROL_MASK) | flowcontrol;
 8005656:	4a02      	ldr	r2, [pc, #8]	; (8005660 <usart_set_flow_control+0xc>)
 8005658:	4013      	ands	r3, r2
 800565a:	430b      	orrs	r3, r1
	USART_CR3(usart) = reg32;
 800565c:	6083      	str	r3, [r0, #8]
}
 800565e:	4770      	bx	lr
 8005660:	fffffcff 	.word	0xfffffcff

08005664 <usart_enable>:
usart_reg_base
*/

void usart_enable(uint32_t usart)
{
	USART_CR1(usart) |= USART_CR1_UE;
 8005664:	2301      	movs	r3, #1
 8005666:	6802      	ldr	r2, [r0, #0]
 8005668:	4313      	orrs	r3, r2
 800566a:	6003      	str	r3, [r0, #0]
}
 800566c:	4770      	bx	lr

0800566e <usart_disable>:
usart_reg_base
*/

void usart_disable(uint32_t usart)
{
	USART_CR1(usart) &= ~USART_CR1_UE;
 800566e:	2201      	movs	r2, #1
 8005670:	6803      	ldr	r3, [r0, #0]
 8005672:	4393      	bics	r3, r2
 8005674:	6003      	str	r3, [r0, #0]
}
 8005676:	4770      	bx	lr

08005678 <usart_send_blocking>:
usart_reg_base
@param[in] data unsigned 16 bit.
*/

void usart_send_blocking(uint32_t usart, uint16_t data)
{
 8005678:	b570      	push	{r4, r5, r6, lr}
 800567a:	000d      	movs	r5, r1
 800567c:	0004      	movs	r4, r0
	usart_wait_send_ready(usart);
 800567e:	f000 f80d 	bl	800569c <usart_wait_send_ready>
	usart_send(usart, data);
 8005682:	0029      	movs	r1, r5
 8005684:	0020      	movs	r0, r4
 8005686:	f000 f801 	bl	800568c <usart_send>
}
 800568a:	bd70      	pop	{r4, r5, r6, pc}

0800568c <usart_send>:
 */

void usart_send(uint32_t usart, uint16_t data)
{
	/* Send data. */
	USART_TDR(usart) = (data & USART_TDR_MASK);
 800568c:	05c9      	lsls	r1, r1, #23
 800568e:	0dc9      	lsrs	r1, r1, #23
 8005690:	6281      	str	r1, [r0, #40]	; 0x28
}
 8005692:	4770      	bx	lr

08005694 <usart_recv>:
 */

uint16_t usart_recv(uint32_t usart)
{
	/* Receive data. */
	return USART_RDR(usart) & USART_RDR_MASK;
 8005694:	6a40      	ldr	r0, [r0, #36]	; 0x24
 8005696:	05c0      	lsls	r0, r0, #23
 8005698:	0dc0      	lsrs	r0, r0, #23
}
 800569a:	4770      	bx	lr

0800569c <usart_wait_send_ready>:
 */

void usart_wait_send_ready(uint32_t usart)
{
	/* Wait until the data has been transferred into the shift register. */
	while ((USART_ISR(usart) & USART_ISR_TXE) == 0);
 800569c:	2380      	movs	r3, #128	; 0x80
 800569e:	69c2      	ldr	r2, [r0, #28]
 80056a0:	421a      	tst	r2, r3
 80056a2:	d0fc      	beq.n	800569e <usart_wait_send_ready+0x2>
}
 80056a4:	4770      	bx	lr

080056a6 <usart_get_flag>:
 * @returns boolean: flag set.
 */

bool usart_get_flag(uint32_t usart, uint32_t flag)
{
	return ((USART_ISR(usart) & flag) != 0);
 80056a6:	69c0      	ldr	r0, [r0, #28]
 80056a8:	4008      	ands	r0, r1
 80056aa:	1e41      	subs	r1, r0, #1
 80056ac:	4188      	sbcs	r0, r1
 80056ae:	b2c0      	uxtb	r0, r0
}
 80056b0:	4770      	bx	lr
	...

080056b4 <usbd_init>:
usbd_device *usbd_init(const usbd_driver *driver,
		       const struct usb_device_descriptor *dev,
		       const struct usb_config_descriptor *conf,
		       const char * const *strings, int num_strings,
		       uint8_t *control_buffer, uint16_t control_buffer_size)
{
 80056b4:	b5f7      	push	{r0, r1, r2, r4, r5, r6, r7, lr}
 80056b6:	001d      	movs	r5, r3
 80056b8:	ab0a      	add	r3, sp, #40	; 0x28
 80056ba:	881b      	ldrh	r3, [r3, #0]
 80056bc:	0016      	movs	r6, r2
 80056be:	9301      	str	r3, [sp, #4]
	usbd_device *usbd_dev;

	usbd_dev = driver->init();
 80056c0:	6803      	ldr	r3, [r0, #0]
{
 80056c2:	000f      	movs	r7, r1
 80056c4:	0004      	movs	r4, r0
	usbd_dev = driver->init();
 80056c6:	4798      	blx	r3

	usbd_dev->driver = driver;
 80056c8:	0003      	movs	r3, r0
 80056ca:	33dc      	adds	r3, #220	; 0xdc
 80056cc:	601c      	str	r4, [r3, #0]
	usbd_dev->desc = dev;
	usbd_dev->config = conf;
	usbd_dev->strings = strings;
	usbd_dev->num_strings = num_strings;
 80056ce:	9b08      	ldr	r3, [sp, #32]
	usbd_dev->user_callback_ctr[0][USB_TRANSACTION_IN] =
	    _usbd_control_in;

	int i;
	for (i = 0; i < MAX_USER_SET_CONFIG_CALLBACK; i++) {
		usbd_dev->user_callback_set_config[i] = NULL;
 80056d0:	0002      	movs	r2, r0
	usbd_dev->num_strings = num_strings;
 80056d2:	60c3      	str	r3, [r0, #12]
	usbd_dev->ctrl_buf = control_buffer;
 80056d4:	9b09      	ldr	r3, [sp, #36]	; 0x24
		usbd_dev->user_callback_set_config[i] = NULL;
 80056d6:	32c8      	adds	r2, #200	; 0xc8
	usbd_dev->ctrl_buf = control_buffer;
 80056d8:	6103      	str	r3, [r0, #16]
	usbd_dev->ctrl_buf_len = control_buffer_size;
 80056da:	9b01      	ldr	r3, [sp, #4]
	usbd_dev->desc = dev;
 80056dc:	6007      	str	r7, [r0, #0]
	usbd_dev->ctrl_buf_len = control_buffer_size;
 80056de:	8283      	strh	r3, [r0, #20]
	usbd_dev->user_callback_ctr[0][USB_TRANSACTION_SETUP] =
 80056e0:	4b06      	ldr	r3, [pc, #24]	; (80056fc <usbd_init+0x48>)
	usbd_dev->config = conf;
 80056e2:	6046      	str	r6, [r0, #4]
	usbd_dev->user_callback_ctr[0][USB_TRANSACTION_SETUP] =
 80056e4:	6703      	str	r3, [r0, #112]	; 0x70
	usbd_dev->user_callback_ctr[0][USB_TRANSACTION_OUT] =
 80056e6:	4b06      	ldr	r3, [pc, #24]	; (8005700 <usbd_init+0x4c>)
	usbd_dev->strings = strings;
 80056e8:	6085      	str	r5, [r0, #8]
	usbd_dev->user_callback_ctr[0][USB_TRANSACTION_OUT] =
 80056ea:	66c3      	str	r3, [r0, #108]	; 0x6c
	usbd_dev->user_callback_ctr[0][USB_TRANSACTION_IN] =
 80056ec:	4b05      	ldr	r3, [pc, #20]	; (8005704 <usbd_init+0x50>)
 80056ee:	6683      	str	r3, [r0, #104]	; 0x68
		usbd_dev->user_callback_set_config[i] = NULL;
 80056f0:	2300      	movs	r3, #0
 80056f2:	6013      	str	r3, [r2, #0]
 80056f4:	6053      	str	r3, [r2, #4]
 80056f6:	6093      	str	r3, [r2, #8]
 80056f8:	60d3      	str	r3, [r2, #12]
	}

	return usbd_dev;
}
 80056fa:	bdfe      	pop	{r1, r2, r3, r4, r5, r6, r7, pc}
 80056fc:	08005933 	.word	0x08005933
 8005700:	0800599d 	.word	0x0800599d
 8005704:	08005a1f 	.word	0x08005a1f

08005708 <usbd_register_reset_callback>:

void usbd_register_reset_callback(usbd_device *usbd_dev, void (*callback)(void))
{
	usbd_dev->user_callback_reset = callback;
 8005708:	61c1      	str	r1, [r0, #28]
}
 800570a:	4770      	bx	lr

0800570c <usbd_ep_setup>:
	}
}

void usbd_ep_setup(usbd_device *usbd_dev, uint8_t addr, uint8_t type,
		   uint16_t max_size, usbd_endpoint_callback callback)
{
 800570c:	b537      	push	{r0, r1, r2, r4, r5, lr}
	usbd_dev->driver->ep_setup(usbd_dev, addr, type, max_size, callback);
 800570e:	0004      	movs	r4, r0
 8005710:	9d06      	ldr	r5, [sp, #24]
 8005712:	34dc      	adds	r4, #220	; 0xdc
 8005714:	6824      	ldr	r4, [r4, #0]
 8005716:	9500      	str	r5, [sp, #0]
 8005718:	68a4      	ldr	r4, [r4, #8]
 800571a:	47a0      	blx	r4
}
 800571c:	bd37      	pop	{r0, r1, r2, r4, r5, pc}

0800571e <_usbd_reset>:
{
 800571e:	b537      	push	{r0, r1, r2, r4, r5, lr}
	usbd_dev->current_address = 0;
 8005720:	2500      	movs	r5, #0
{
 8005722:	0004      	movs	r4, r0
	usbd_ep_setup(usbd_dev, 0, USB_ENDPOINT_ATTR_CONTROL, usbd_dev->desc->bMaxPacketSize0, NULL);
 8005724:	6803      	ldr	r3, [r0, #0]
	usbd_dev->current_address = 0;
 8005726:	82c5      	strh	r5, [r0, #22]
	usbd_ep_setup(usbd_dev, 0, USB_ENDPOINT_ATTR_CONTROL, usbd_dev->desc->bMaxPacketSize0, NULL);
 8005728:	79db      	ldrb	r3, [r3, #7]
 800572a:	002a      	movs	r2, r5
 800572c:	0029      	movs	r1, r5
 800572e:	9500      	str	r5, [sp, #0]
 8005730:	f7ff ffec 	bl	800570c <usbd_ep_setup>
	usbd_dev->driver->set_address(usbd_dev, 0);
 8005734:	0023      	movs	r3, r4
 8005736:	33dc      	adds	r3, #220	; 0xdc
 8005738:	681b      	ldr	r3, [r3, #0]
 800573a:	0029      	movs	r1, r5
 800573c:	685b      	ldr	r3, [r3, #4]
 800573e:	0020      	movs	r0, r4
 8005740:	4798      	blx	r3
	if (usbd_dev->user_callback_reset) {
 8005742:	69e3      	ldr	r3, [r4, #28]
 8005744:	42ab      	cmp	r3, r5
 8005746:	d000      	beq.n	800574a <_usbd_reset+0x2c>
		usbd_dev->user_callback_reset();
 8005748:	4798      	blx	r3
}
 800574a:	bd37      	pop	{r0, r1, r2, r4, r5, pc}

0800574c <usbd_ep_write_packet>:

uint16_t usbd_ep_write_packet(usbd_device *usbd_dev, uint8_t addr,
			 const void *buf, uint16_t len)
{
 800574c:	b510      	push	{r4, lr}
	return usbd_dev->driver->ep_write_packet(usbd_dev, addr, buf, len);
 800574e:	0004      	movs	r4, r0
 8005750:	34dc      	adds	r4, #220	; 0xdc
 8005752:	6824      	ldr	r4, [r4, #0]
 8005754:	69e4      	ldr	r4, [r4, #28]
 8005756:	47a0      	blx	r4
}
 8005758:	bd10      	pop	{r4, pc}

0800575a <usbd_ep_read_packet>:

uint16_t usbd_ep_read_packet(usbd_device *usbd_dev, uint8_t addr, void *buf,
			     uint16_t len)
{
 800575a:	b510      	push	{r4, lr}
	return usbd_dev->driver->ep_read_packet(usbd_dev, addr, buf, len);
 800575c:	0004      	movs	r4, r0
 800575e:	34dc      	adds	r4, #220	; 0xdc
 8005760:	6824      	ldr	r4, [r4, #0]
 8005762:	6a24      	ldr	r4, [r4, #32]
 8005764:	47a0      	blx	r4
}
 8005766:	bd10      	pop	{r4, pc}

08005768 <usbd_ep_stall_set>:

void usbd_ep_stall_set(usbd_device *usbd_dev, uint8_t addr, uint8_t stall)
{
	usbd_dev->driver->ep_stall_set(usbd_dev, addr, stall);
 8005768:	0003      	movs	r3, r0
{
 800576a:	b510      	push	{r4, lr}
	usbd_dev->driver->ep_stall_set(usbd_dev, addr, stall);
 800576c:	33dc      	adds	r3, #220	; 0xdc
 800576e:	681b      	ldr	r3, [r3, #0]
 8005770:	691b      	ldr	r3, [r3, #16]
 8005772:	4798      	blx	r3
}
 8005774:	bd10      	pop	{r4, pc}

08005776 <usbd_ep_stall_get>:

uint8_t usbd_ep_stall_get(usbd_device *usbd_dev, uint8_t addr)
{
	return usbd_dev->driver->ep_stall_get(usbd_dev, addr);
 8005776:	0003      	movs	r3, r0
{
 8005778:	b510      	push	{r4, lr}
	return usbd_dev->driver->ep_stall_get(usbd_dev, addr);
 800577a:	33dc      	adds	r3, #220	; 0xdc
 800577c:	681b      	ldr	r3, [r3, #0]
 800577e:	699b      	ldr	r3, [r3, #24]
 8005780:	4798      	blx	r3
}
 8005782:	bd10      	pop	{r4, pc}

08005784 <usbd_ep_nak_set>:

void usbd_ep_nak_set(usbd_device *usbd_dev, uint8_t addr, uint8_t nak)
{
	usbd_dev->driver->ep_nak_set(usbd_dev, addr, nak);
 8005784:	0003      	movs	r3, r0
{
 8005786:	b510      	push	{r4, lr}
	usbd_dev->driver->ep_nak_set(usbd_dev, addr, nak);
 8005788:	33dc      	adds	r3, #220	; 0xdc
 800578a:	681b      	ldr	r3, [r3, #0]
 800578c:	695b      	ldr	r3, [r3, #20]
 800578e:	4798      	blx	r3
}
 8005790:	bd10      	pop	{r4, pc}

08005792 <usb_control_send_chunk>:

	return -1;
}

static void usb_control_send_chunk(usbd_device *usbd_dev)
{
 8005792:	b570      	push	{r4, r5, r6, lr}
 8005794:	0005      	movs	r5, r0
	if (usbd_dev->desc->bMaxPacketSize0 <
 8005796:	6803      	ldr	r3, [r0, #0]
{
 8005798:	0004      	movs	r4, r0
	if (usbd_dev->desc->bMaxPacketSize0 <
 800579a:	79d9      	ldrb	r1, [r3, #7]
			usbd_dev->control_state.ctrl_len) {
 800579c:	8f83      	ldrh	r3, [r0, #60]	; 0x3c
 800579e:	6b82      	ldr	r2, [r0, #56]	; 0x38
 80057a0:	352c      	adds	r5, #44	; 0x2c
	if (usbd_dev->desc->bMaxPacketSize0 <
 80057a2:	4299      	cmp	r1, r3
 80057a4:	d20e      	bcs.n	80057c4 <usb_control_send_chunk+0x32>
		/* Data stage, normal transmission */
		usbd_ep_write_packet(usbd_dev, 0,
 80057a6:	000b      	movs	r3, r1
 80057a8:	2100      	movs	r1, #0
 80057aa:	f7ff ffcf 	bl	800574c <usbd_ep_write_packet>
				     usbd_dev->control_state.ctrl_buf,
				     usbd_dev->desc->bMaxPacketSize0);
		usbd_dev->control_state.state = DATA_IN;
 80057ae:	2302      	movs	r3, #2
 80057b0:	702b      	strb	r3, [r5, #0]
		usbd_dev->control_state.ctrl_buf +=
			usbd_dev->desc->bMaxPacketSize0;
 80057b2:	6823      	ldr	r3, [r4, #0]
 80057b4:	79d9      	ldrb	r1, [r3, #7]
		usbd_dev->control_state.ctrl_buf +=
 80057b6:	6ba3      	ldr	r3, [r4, #56]	; 0x38
 80057b8:	185a      	adds	r2, r3, r1
		usbd_dev->control_state.ctrl_len -=
 80057ba:	8fa3      	ldrh	r3, [r4, #60]	; 0x3c
		usbd_dev->control_state.ctrl_buf +=
 80057bc:	63a2      	str	r2, [r4, #56]	; 0x38
		usbd_dev->control_state.ctrl_len -=
 80057be:	1a5b      	subs	r3, r3, r1
 80057c0:	87a3      	strh	r3, [r4, #60]	; 0x3c
			DATA_IN : LAST_DATA_IN;
		usbd_dev->control_state.needs_zlp = false;
		usbd_dev->control_state.ctrl_len = 0;
		usbd_dev->control_state.ctrl_buf = NULL;
	}
}
 80057c2:	bd70      	pop	{r4, r5, r6, pc}
		usbd_ep_write_packet(usbd_dev, 0,
 80057c4:	2100      	movs	r1, #0
 80057c6:	f7ff ffc1 	bl	800574c <usbd_ep_write_packet>
			usbd_dev->control_state.needs_zlp ?
 80057ca:	0022      	movs	r2, r4
 80057cc:	3244      	adds	r2, #68	; 0x44
			DATA_IN : LAST_DATA_IN;
 80057ce:	7813      	ldrb	r3, [r2, #0]
 80057d0:	4259      	negs	r1, r3
 80057d2:	414b      	adcs	r3, r1
 80057d4:	3302      	adds	r3, #2
		usbd_dev->control_state.state =
 80057d6:	702b      	strb	r3, [r5, #0]
		usbd_dev->control_state.needs_zlp = false;
 80057d8:	2300      	movs	r3, #0
 80057da:	7013      	strb	r3, [r2, #0]
		usbd_dev->control_state.ctrl_len = 0;
 80057dc:	87a3      	strh	r3, [r4, #60]	; 0x3c
		usbd_dev->control_state.ctrl_buf = NULL;
 80057de:	63a3      	str	r3, [r4, #56]	; 0x38
}
 80057e0:	e7ef      	b.n	80057c2 <usb_control_send_chunk+0x30>

080057e2 <usb_control_request_dispatch>:
{
	int i, result = 0;
	struct user_control_callback *cb = usbd_dev->user_control_callback;

	/* Call user command hook function. */
	for (i = 0; i < MAX_USER_CONTROL_CALLBACK; i++) {
 80057e2:	0003      	movs	r3, r0
{
 80057e4:	b5f0      	push	{r4, r5, r6, r7, lr}
 80057e6:	0005      	movs	r5, r0
 80057e8:	0004      	movs	r4, r0
 80057ea:	000e      	movs	r6, r1
 80057ec:	b087      	sub	sp, #28
 80057ee:	3368      	adds	r3, #104	; 0x68
 80057f0:	3548      	adds	r5, #72	; 0x48
 80057f2:	9305      	str	r3, [sp, #20]
		if (cb[i].cb == NULL) {
 80057f4:	682b      	ldr	r3, [r5, #0]
 80057f6:	0027      	movs	r7, r4
 80057f8:	469c      	mov	ip, r3
 80057fa:	0023      	movs	r3, r4
 80057fc:	3338      	adds	r3, #56	; 0x38
 80057fe:	9304      	str	r3, [sp, #16]
 8005800:	4663      	mov	r3, ip
 8005802:	373c      	adds	r7, #60	; 0x3c
 8005804:	9703      	str	r7, [sp, #12]
 8005806:	2b00      	cmp	r3, #0
 8005808:	d107      	bne.n	800581a <usb_control_request_dispatch+0x38>
			}
		}
	}

	/* Try standard request if not already handled. */
	return _usbd_standard_request(usbd_dev, req,
 800580a:	0031      	movs	r1, r6
 800580c:	0020      	movs	r0, r4
 800580e:	9b03      	ldr	r3, [sp, #12]
 8005810:	9a04      	ldr	r2, [sp, #16]
 8005812:	f000 fc85 	bl	8006120 <_usbd_standard_request>
				      &(usbd_dev->control_state.ctrl_buf),
				      &(usbd_dev->control_state.ctrl_len));
}
 8005816:	b007      	add	sp, #28
 8005818:	bdf0      	pop	{r4, r5, r6, r7, pc}
		if ((req->bmRequestType & cb[i].type_mask) == cb[i].type) {
 800581a:	7831      	ldrb	r1, [r6, #0]
 800581c:	796b      	ldrb	r3, [r5, #5]
 800581e:	792a      	ldrb	r2, [r5, #4]
 8005820:	400b      	ands	r3, r1
 8005822:	429a      	cmp	r2, r3
 8005824:	d004      	beq.n	8005830 <usb_control_request_dispatch+0x4e>
	for (i = 0; i < MAX_USER_CONTROL_CALLBACK; i++) {
 8005826:	9b05      	ldr	r3, [sp, #20]
 8005828:	3508      	adds	r5, #8
 800582a:	429d      	cmp	r5, r3
 800582c:	d1e2      	bne.n	80057f4 <usb_control_request_dispatch+0x12>
 800582e:	e7ec      	b.n	800580a <usb_control_request_dispatch+0x28>
			result = cb[i].cb(usbd_dev, req,
 8005830:	0023      	movs	r3, r4
 8005832:	3340      	adds	r3, #64	; 0x40
 8005834:	9300      	str	r3, [sp, #0]
 8005836:	0031      	movs	r1, r6
 8005838:	0020      	movs	r0, r4
 800583a:	4667      	mov	r7, ip
 800583c:	9b03      	ldr	r3, [sp, #12]
 800583e:	9a04      	ldr	r2, [sp, #16]
 8005840:	47b8      	blx	r7
			if (result == USBD_REQ_HANDLED ||
 8005842:	2801      	cmp	r0, #1
 8005844:	d8ef      	bhi.n	8005826 <usb_control_request_dispatch+0x44>
 8005846:	e7e6      	b.n	8005816 <usb_control_request_dispatch+0x34>

08005848 <stall_transaction>:
{
 8005848:	b510      	push	{r4, lr}
	usbd_ep_stall_set(usbd_dev, 0, 1);
 800584a:	2201      	movs	r2, #1
{
 800584c:	0004      	movs	r4, r0
	usbd_ep_stall_set(usbd_dev, 0, 1);
 800584e:	2100      	movs	r1, #0
 8005850:	f7ff ff8a 	bl	8005768 <usbd_ep_stall_set>
	usbd_dev->control_state.state = IDLE;
 8005854:	2300      	movs	r3, #0
 8005856:	342c      	adds	r4, #44	; 0x2c
 8005858:	7023      	strb	r3, [r4, #0]
}
 800585a:	bd10      	pop	{r4, pc}

0800585c <usb_control_recv_chunk>:
{
 800585c:	b570      	push	{r4, r5, r6, lr}
	uint16_t packetsize = MIN(usbd_dev->desc->bMaxPacketSize0,
 800585e:	6803      	ldr	r3, [r0, #0]
 8005860:	8f82      	ldrh	r2, [r0, #60]	; 0x3c
 8005862:	8ec5      	ldrh	r5, [r0, #54]	; 0x36
 8005864:	79db      	ldrb	r3, [r3, #7]
{
 8005866:	0004      	movs	r4, r0
	uint16_t packetsize = MIN(usbd_dev->desc->bMaxPacketSize0,
 8005868:	1aad      	subs	r5, r5, r2
 800586a:	429d      	cmp	r5, r3
 800586c:	dd00      	ble.n	8005870 <usb_control_recv_chunk+0x14>
 800586e:	001d      	movs	r5, r3
				       usbd_dev->control_state.ctrl_buf +
 8005870:	6ba3      	ldr	r3, [r4, #56]	; 0x38
	uint16_t packetsize = MIN(usbd_dev->desc->bMaxPacketSize0,
 8005872:	b2ae      	uxth	r6, r5
				       usbd_dev->control_state.ctrl_buf +
 8005874:	189a      	adds	r2, r3, r2
	uint16_t size = usbd_ep_read_packet(usbd_dev, 0,
 8005876:	2100      	movs	r1, #0
 8005878:	0033      	movs	r3, r6
 800587a:	0020      	movs	r0, r4
 800587c:	f7ff ff6d 	bl	800575a <usbd_ep_read_packet>
	if (size != packetsize) {
 8005880:	4286      	cmp	r6, r0
 8005882:	d005      	beq.n	8005890 <usb_control_recv_chunk+0x34>
		stall_transaction(usbd_dev);
 8005884:	0020      	movs	r0, r4
 8005886:	f7ff ffdf 	bl	8005848 <stall_transaction>
		return -1;
 800588a:	2001      	movs	r0, #1
 800588c:	4240      	negs	r0, r0
}
 800588e:	bd70      	pop	{r4, r5, r6, pc}
	usbd_dev->control_state.ctrl_len += size;
 8005890:	8fa3      	ldrh	r3, [r4, #60]	; 0x3c
 8005892:	b2a8      	uxth	r0, r5
 8005894:	18f6      	adds	r6, r6, r3
 8005896:	87a6      	strh	r6, [r4, #60]	; 0x3c
	return packetsize;
 8005898:	e7f9      	b.n	800588e <usb_control_recv_chunk+0x32>

0800589a <usb_control_setup_read>:

/* Handle commands and read requests. */
static void usb_control_setup_read(usbd_device *usbd_dev,
		struct usb_setup_data *req)
{
 800589a:	b570      	push	{r4, r5, r6, lr}
	usbd_dev->control_state.ctrl_buf = usbd_dev->ctrl_buf;
 800589c:	6903      	ldr	r3, [r0, #16]
{
 800589e:	0004      	movs	r4, r0
	usbd_dev->control_state.ctrl_buf = usbd_dev->ctrl_buf;
 80058a0:	6383      	str	r3, [r0, #56]	; 0x38
	usbd_dev->control_state.ctrl_len = req->wLength;
 80058a2:	79cb      	ldrb	r3, [r1, #7]
 80058a4:	798a      	ldrb	r2, [r1, #6]
 80058a6:	021b      	lsls	r3, r3, #8
 80058a8:	4313      	orrs	r3, r2
 80058aa:	8783      	strh	r3, [r0, #60]	; 0x3c
{
 80058ac:	000d      	movs	r5, r1

	if (usb_control_request_dispatch(usbd_dev, req)) {
 80058ae:	f7ff ff98 	bl	80057e2 <usb_control_request_dispatch>
 80058b2:	2800      	cmp	r0, #0
 80058b4:	d021      	beq.n	80058fa <usb_control_setup_read+0x60>
		if (req->wLength) {
 80058b6:	79eb      	ldrb	r3, [r5, #7]
 80058b8:	79aa      	ldrb	r2, [r5, #6]
 80058ba:	021b      	lsls	r3, r3, #8
 80058bc:	4313      	orrs	r3, r2
 80058be:	d013      	beq.n	80058e8 <usb_control_setup_read+0x4e>
			usbd_dev->control_state.needs_zlp =
				needs_zlp(usbd_dev->control_state.ctrl_len,
 80058c0:	6822      	ldr	r2, [r4, #0]
 80058c2:	8fa0      	ldrh	r0, [r4, #60]	; 0x3c
 80058c4:	79d1      	ldrb	r1, [r2, #7]
	return false;
 80058c6:	2200      	movs	r2, #0
	if (len < wLength) {
 80058c8:	4283      	cmp	r3, r0
 80058ca:	d906      	bls.n	80058da <usb_control_setup_read+0x40>
		if (len && (len % ep_size == 0)) {
 80058cc:	4290      	cmp	r0, r2
 80058ce:	d004      	beq.n	80058da <usb_control_setup_read+0x40>
 80058d0:	f001 f9a4 	bl	8006c1c <__aeabi_idivmod>
 80058d4:	424a      	negs	r2, r1
 80058d6:	414a      	adcs	r2, r1
 80058d8:	b2d2      	uxtb	r2, r2
			usbd_dev->control_state.needs_zlp =
 80058da:	0023      	movs	r3, r4
 80058dc:	3344      	adds	r3, #68	; 0x44
					req->wLength,
					usbd_dev->desc->bMaxPacketSize0);
			/* Go to data out stage if handled. */
			usb_control_send_chunk(usbd_dev);
 80058de:	0020      	movs	r0, r4
			usbd_dev->control_state.needs_zlp =
 80058e0:	701a      	strb	r2, [r3, #0]
			usb_control_send_chunk(usbd_dev);
 80058e2:	f7ff ff56 	bl	8005792 <usb_control_send_chunk>
		}
	} else {
		/* Stall endpoint on failure. */
		stall_transaction(usbd_dev);
	}
}
 80058e6:	bd70      	pop	{r4, r5, r6, pc}
			usbd_ep_write_packet(usbd_dev, 0, NULL, 0);
 80058e8:	001a      	movs	r2, r3
 80058ea:	0019      	movs	r1, r3
 80058ec:	0020      	movs	r0, r4
 80058ee:	f7ff ff2d 	bl	800574c <usbd_ep_write_packet>
			usbd_dev->control_state.state = STATUS_IN;
 80058f2:	2304      	movs	r3, #4
 80058f4:	342c      	adds	r4, #44	; 0x2c
 80058f6:	7023      	strb	r3, [r4, #0]
}
 80058f8:	e7f5      	b.n	80058e6 <usb_control_setup_read+0x4c>
		stall_transaction(usbd_dev);
 80058fa:	0020      	movs	r0, r4
 80058fc:	f7ff ffa4 	bl	8005848 <stall_transaction>
}
 8005900:	e7f1      	b.n	80058e6 <usb_control_setup_read+0x4c>

08005902 <usbd_register_control_callback>:
{
 8005902:	b5f0      	push	{r4, r5, r6, r7, lr}
		if (usbd_dev->user_control_callback[i].cb) {
 8005904:	0007      	movs	r7, r0
{
 8005906:	0004      	movs	r4, r0
	for (i = 0; i < MAX_USER_CONTROL_CALLBACK; i++) {
 8005908:	2500      	movs	r5, #0
		if (usbd_dev->user_control_callback[i].cb) {
 800590a:	3748      	adds	r7, #72	; 0x48
 800590c:	00ee      	lsls	r6, r5, #3
 800590e:	59b8      	ldr	r0, [r7, r6]
 8005910:	2800      	cmp	r0, #0
 8005912:	d005      	beq.n	8005920 <usbd_register_control_callback+0x1e>
	for (i = 0; i < MAX_USER_CONTROL_CALLBACK; i++) {
 8005914:	3501      	adds	r5, #1
 8005916:	2d04      	cmp	r5, #4
 8005918:	d1f8      	bne.n	800590c <usbd_register_control_callback+0xa>
	return -1;
 800591a:	2001      	movs	r0, #1
 800591c:	4240      	negs	r0, r0
}
 800591e:	bdf0      	pop	{r4, r5, r6, r7, pc}
		usbd_dev->user_control_callback[i].type = type;
 8005920:	19a4      	adds	r4, r4, r6
 8005922:	0025      	movs	r5, r4
 8005924:	354c      	adds	r5, #76	; 0x4c
 8005926:	7029      	strb	r1, [r5, #0]
		usbd_dev->user_control_callback[i].type_mask = type_mask;
 8005928:	0021      	movs	r1, r4
 800592a:	314d      	adds	r1, #77	; 0x4d
 800592c:	700a      	strb	r2, [r1, #0]
		usbd_dev->user_control_callback[i].cb = callback;
 800592e:	64a3      	str	r3, [r4, #72]	; 0x48
		return 0;
 8005930:	e7f5      	b.n	800591e <usbd_register_control_callback+0x1c>

08005932 <_usbd_control_setup>:

/* Do not appear to belong to the API, so are omitted from docs */
/**@}*/

void _usbd_control_setup(usbd_device *usbd_dev, uint8_t ea)
{
 8005932:	b570      	push	{r4, r5, r6, lr}
	struct usb_setup_data *req = &usbd_dev->control_state.req;
	(void)ea;

	usbd_dev->control_state.complete = NULL;
 8005934:	2500      	movs	r5, #0
{
 8005936:	0004      	movs	r4, r0

	usbd_ep_nak_set(usbd_dev, 0, 1);
 8005938:	2201      	movs	r2, #1
 800593a:	0029      	movs	r1, r5
	usbd_dev->control_state.complete = NULL;
 800593c:	6405      	str	r5, [r0, #64]	; 0x40
	struct usb_setup_data *req = &usbd_dev->control_state.req;
 800593e:	0006      	movs	r6, r0
	usbd_ep_nak_set(usbd_dev, 0, 1);
 8005940:	f7ff ff20 	bl	8005784 <usbd_ep_nak_set>

	if (req->wLength == 0) {
 8005944:	0023      	movs	r3, r4
 8005946:	3336      	adds	r3, #54	; 0x36
 8005948:	781a      	ldrb	r2, [r3, #0]
 800594a:	3301      	adds	r3, #1
 800594c:	781b      	ldrb	r3, [r3, #0]
	struct usb_setup_data *req = &usbd_dev->control_state.req;
 800594e:	3630      	adds	r6, #48	; 0x30
	if (req->wLength == 0) {
 8005950:	021b      	lsls	r3, r3, #8
 8005952:	4313      	orrs	r3, r2
 8005954:	42ab      	cmp	r3, r5
 8005956:	d104      	bne.n	8005962 <_usbd_control_setup+0x30>
		usb_control_setup_read(usbd_dev, req);
	} else if (req->bmRequestType & 0x80) {
		usb_control_setup_read(usbd_dev, req);
 8005958:	0031      	movs	r1, r6
 800595a:	0020      	movs	r0, r4
 800595c:	f7ff ff9d 	bl	800589a <usb_control_setup_read>
	} else {
		usb_control_setup_write(usbd_dev, req);
	}
}
 8005960:	bd70      	pop	{r4, r5, r6, pc}
	} else if (req->bmRequestType & 0x80) {
 8005962:	7832      	ldrb	r2, [r6, #0]
 8005964:	2a7f      	cmp	r2, #127	; 0x7f
 8005966:	d8f7      	bhi.n	8005958 <_usbd_control_setup+0x26>
	if (req->wLength > usbd_dev->ctrl_buf_len) {
 8005968:	8aa2      	ldrh	r2, [r4, #20]
 800596a:	429a      	cmp	r2, r3
 800596c:	d203      	bcs.n	8005976 <_usbd_control_setup+0x44>
		stall_transaction(usbd_dev);
 800596e:	0020      	movs	r0, r4
 8005970:	f7ff ff6a 	bl	8005848 <stall_transaction>
		return;
 8005974:	e7f4      	b.n	8005960 <_usbd_control_setup+0x2e>
		usbd_dev->control_state.state = LAST_DATA_OUT;
 8005976:	0029      	movs	r1, r5
	usbd_dev->control_state.ctrl_buf = usbd_dev->ctrl_buf;
 8005978:	6922      	ldr	r2, [r4, #16]
	usbd_dev->control_state.ctrl_len = 0;
 800597a:	87a5      	strh	r5, [r4, #60]	; 0x3c
	usbd_dev->control_state.ctrl_buf = usbd_dev->ctrl_buf;
 800597c:	63a2      	str	r2, [r4, #56]	; 0x38
	if (req->wLength > usbd_dev->desc->bMaxPacketSize0) {
 800597e:	6822      	ldr	r2, [r4, #0]
	usbd_ep_nak_set(usbd_dev, 0, 0);
 8005980:	0020      	movs	r0, r4
	if (req->wLength > usbd_dev->desc->bMaxPacketSize0) {
 8005982:	79d2      	ldrb	r2, [r2, #7]
		usbd_dev->control_state.state = LAST_DATA_OUT;
 8005984:	429a      	cmp	r2, r3
 8005986:	4169      	adcs	r1, r5
 8005988:	0022      	movs	r2, r4
 800598a:	000b      	movs	r3, r1
 800598c:	322c      	adds	r2, #44	; 0x2c
 800598e:	3305      	adds	r3, #5
 8005990:	7013      	strb	r3, [r2, #0]
	usbd_ep_nak_set(usbd_dev, 0, 0);
 8005992:	0029      	movs	r1, r5
 8005994:	002a      	movs	r2, r5
 8005996:	f7ff fef5 	bl	8005784 <usbd_ep_nak_set>
}
 800599a:	e7e1      	b.n	8005960 <_usbd_control_setup+0x2e>

0800599c <_usbd_control_out>:

void _usbd_control_out(usbd_device *usbd_dev, uint8_t ea)
{
 800599c:	b570      	push	{r4, r5, r6, lr}
	(void)ea;

	switch (usbd_dev->control_state.state) {
 800599e:	0005      	movs	r5, r0
 80059a0:	352c      	adds	r5, #44	; 0x2c
 80059a2:	782b      	ldrb	r3, [r5, #0]
{
 80059a4:	0004      	movs	r4, r0
	switch (usbd_dev->control_state.state) {
 80059a6:	2b06      	cmp	r3, #6
 80059a8:	d011      	beq.n	80059ce <_usbd_control_out+0x32>
 80059aa:	2b07      	cmp	r3, #7
 80059ac:	d026      	beq.n	80059fc <_usbd_control_out+0x60>
 80059ae:	2b05      	cmp	r3, #5
 80059b0:	d121      	bne.n	80059f6 <_usbd_control_out+0x5a>
	case DATA_OUT:
		if (usb_control_recv_chunk(usbd_dev) < 0) {
 80059b2:	f7ff ff53 	bl	800585c <usb_control_recv_chunk>
 80059b6:	2800      	cmp	r0, #0
 80059b8:	db08      	blt.n	80059cc <_usbd_control_out+0x30>
			break;
		}
		if ((usbd_dev->control_state.req.wLength -
					usbd_dev->control_state.ctrl_len) <=
 80059ba:	8fa2      	ldrh	r2, [r4, #60]	; 0x3c
		if ((usbd_dev->control_state.req.wLength -
 80059bc:	8ee3      	ldrh	r3, [r4, #54]	; 0x36
 80059be:	1a9b      	subs	r3, r3, r2
					usbd_dev->desc->bMaxPacketSize0) {
 80059c0:	6822      	ldr	r2, [r4, #0]
 80059c2:	79d2      	ldrb	r2, [r2, #7]
		if ((usbd_dev->control_state.req.wLength -
 80059c4:	4293      	cmp	r3, r2
 80059c6:	dc01      	bgt.n	80059cc <_usbd_control_out+0x30>
			usbd_dev->control_state.state = LAST_DATA_OUT;
 80059c8:	2306      	movs	r3, #6
		 */
		if (usb_control_request_dispatch(usbd_dev,
					&(usbd_dev->control_state.req))) {
			/* Go to status stage on success. */
			usbd_ep_write_packet(usbd_dev, 0, NULL, 0);
			usbd_dev->control_state.state = STATUS_IN;
 80059ca:	702b      	strb	r3, [r5, #0]
		usbd_dev->control_state.complete = NULL;
		break;
	default:
		stall_transaction(usbd_dev);
	}
}
 80059cc:	bd70      	pop	{r4, r5, r6, pc}
		if (usb_control_recv_chunk(usbd_dev) < 0) {
 80059ce:	f7ff ff45 	bl	800585c <usb_control_recv_chunk>
 80059d2:	2800      	cmp	r0, #0
 80059d4:	dbfa      	blt.n	80059cc <_usbd_control_out+0x30>
		if (usb_control_request_dispatch(usbd_dev,
 80059d6:	0021      	movs	r1, r4
 80059d8:	0020      	movs	r0, r4
 80059da:	3130      	adds	r1, #48	; 0x30
 80059dc:	f7ff ff01 	bl	80057e2 <usb_control_request_dispatch>
 80059e0:	2800      	cmp	r0, #0
 80059e2:	d007      	beq.n	80059f4 <_usbd_control_out+0x58>
			usbd_ep_write_packet(usbd_dev, 0, NULL, 0);
 80059e4:	2300      	movs	r3, #0
 80059e6:	0020      	movs	r0, r4
 80059e8:	001a      	movs	r2, r3
 80059ea:	0019      	movs	r1, r3
 80059ec:	f7ff feae 	bl	800574c <usbd_ep_write_packet>
			usbd_dev->control_state.state = STATUS_IN;
 80059f0:	2304      	movs	r3, #4
 80059f2:	e7ea      	b.n	80059ca <_usbd_control_out+0x2e>
			stall_transaction(usbd_dev);
 80059f4:	0020      	movs	r0, r4
		stall_transaction(usbd_dev);
 80059f6:	f7ff ff27 	bl	8005848 <stall_transaction>
}
 80059fa:	e7e7      	b.n	80059cc <_usbd_control_out+0x30>
		usbd_ep_read_packet(usbd_dev, 0, NULL, 0);
 80059fc:	2300      	movs	r3, #0
 80059fe:	001a      	movs	r2, r3
 8005a00:	0019      	movs	r1, r3
 8005a02:	f7ff feaa 	bl	800575a <usbd_ep_read_packet>
		usbd_dev->control_state.state = IDLE;
 8005a06:	2300      	movs	r3, #0
 8005a08:	702b      	strb	r3, [r5, #0]
		if (usbd_dev->control_state.complete) {
 8005a0a:	6c23      	ldr	r3, [r4, #64]	; 0x40
 8005a0c:	2b00      	cmp	r3, #0
 8005a0e:	d003      	beq.n	8005a18 <_usbd_control_out+0x7c>
			usbd_dev->control_state.complete(usbd_dev,
 8005a10:	0021      	movs	r1, r4
 8005a12:	0020      	movs	r0, r4
 8005a14:	3130      	adds	r1, #48	; 0x30
 8005a16:	4798      	blx	r3
		usbd_dev->control_state.complete = NULL;
 8005a18:	2300      	movs	r3, #0
 8005a1a:	6423      	str	r3, [r4, #64]	; 0x40
		break;
 8005a1c:	e7d6      	b.n	80059cc <_usbd_control_out+0x30>

08005a1e <_usbd_control_in>:

void _usbd_control_in(usbd_device *usbd_dev, uint8_t ea)
{
 8005a1e:	b570      	push	{r4, r5, r6, lr}
	(void)ea;
	struct usb_setup_data *req = &(usbd_dev->control_state.req);

	switch (usbd_dev->control_state.state) {
 8005a20:	0005      	movs	r5, r0
 8005a22:	352c      	adds	r5, #44	; 0x2c
 8005a24:	782b      	ldrb	r3, [r5, #0]
{
 8005a26:	0004      	movs	r4, r0
	switch (usbd_dev->control_state.state) {
 8005a28:	2b03      	cmp	r3, #3
 8005a2a:	d006      	beq.n	8005a3a <_usbd_control_in+0x1c>
 8005a2c:	2b04      	cmp	r3, #4
 8005a2e:	d00b      	beq.n	8005a48 <_usbd_control_in+0x2a>
 8005a30:	2b02      	cmp	r3, #2
 8005a32:	d121      	bne.n	8005a78 <_usbd_control_in+0x5a>
	case DATA_IN:
		usb_control_send_chunk(usbd_dev);
 8005a34:	f7ff fead 	bl	8005792 <usb_control_send_chunk>
		usbd_dev->control_state.state = IDLE;
		break;
	default:
		stall_transaction(usbd_dev);
	}
}
 8005a38:	bd70      	pop	{r4, r5, r6, pc}
		usbd_dev->control_state.state = STATUS_OUT;
 8005a3a:	2307      	movs	r3, #7
		usbd_ep_nak_set(usbd_dev, 0, 0);
 8005a3c:	2200      	movs	r2, #0
		usbd_dev->control_state.state = STATUS_OUT;
 8005a3e:	702b      	strb	r3, [r5, #0]
		usbd_ep_nak_set(usbd_dev, 0, 0);
 8005a40:	0011      	movs	r1, r2
 8005a42:	f7ff fe9f 	bl	8005784 <usbd_ep_nak_set>
		break;
 8005a46:	e7f7      	b.n	8005a38 <_usbd_control_in+0x1a>
		if (usbd_dev->control_state.complete) {
 8005a48:	0006      	movs	r6, r0
 8005a4a:	6c03      	ldr	r3, [r0, #64]	; 0x40
 8005a4c:	3630      	adds	r6, #48	; 0x30
 8005a4e:	2b00      	cmp	r3, #0
 8005a50:	d001      	beq.n	8005a56 <_usbd_control_in+0x38>
			usbd_dev->control_state.complete(usbd_dev,
 8005a52:	0031      	movs	r1, r6
 8005a54:	4798      	blx	r3
		if ((req->bmRequestType == 0) &&
 8005a56:	7833      	ldrb	r3, [r6, #0]
 8005a58:	2b00      	cmp	r3, #0
 8005a5a:	d10a      	bne.n	8005a72 <_usbd_control_in+0x54>
 8005a5c:	7873      	ldrb	r3, [r6, #1]
 8005a5e:	2b05      	cmp	r3, #5
 8005a60:	d107      	bne.n	8005a72 <_usbd_control_in+0x54>
			usbd_dev->driver->set_address(usbd_dev, req->wValue);
 8005a62:	0023      	movs	r3, r4
 8005a64:	3332      	adds	r3, #50	; 0x32
 8005a66:	7819      	ldrb	r1, [r3, #0]
 8005a68:	33aa      	adds	r3, #170	; 0xaa
 8005a6a:	681b      	ldr	r3, [r3, #0]
 8005a6c:	0020      	movs	r0, r4
 8005a6e:	685b      	ldr	r3, [r3, #4]
 8005a70:	4798      	blx	r3
		usbd_dev->control_state.state = IDLE;
 8005a72:	2300      	movs	r3, #0
 8005a74:	702b      	strb	r3, [r5, #0]
		break;
 8005a76:	e7df      	b.n	8005a38 <_usbd_control_in+0x1a>
		stall_transaction(usbd_dev);
 8005a78:	f7ff fee6 	bl	8005848 <stall_transaction>
}
 8005a7c:	e7dc      	b.n	8005a38 <_usbd_control_in+0x1a>

08005a7e <usb_standard_set_address>:

static enum usbd_request_return_codes
usb_standard_set_address(usbd_device *usbd_dev,
			 struct usb_setup_data *req, uint8_t **buf,
			 uint16_t *len)
{
 8005a7e:	b510      	push	{r4, lr}
	(void)req;
	(void)buf;
	(void)len;

	/* The actual address is only latched at the STATUS IN stage. */
	if ((req->bmRequestType != 0) || (req->wValue >= 128)) {
 8005a80:	780c      	ldrb	r4, [r1, #0]
 8005a82:	2c00      	cmp	r4, #0
 8005a84:	d114      	bne.n	8005ab0 <usb_standard_set_address+0x32>
 8005a86:	78cb      	ldrb	r3, [r1, #3]
 8005a88:	788a      	ldrb	r2, [r1, #2]
 8005a8a:	021b      	lsls	r3, r3, #8
 8005a8c:	4313      	orrs	r3, r2
 8005a8e:	2b7f      	cmp	r3, #127	; 0x7f
 8005a90:	d80c      	bhi.n	8005aac <usb_standard_set_address+0x2e>
		return USBD_REQ_NOTSUPP;
	}

	usbd_dev->current_address = req->wValue;
 8005a92:	7583      	strb	r3, [r0, #22]

	/*
	 * Special workaround for STM32F10[57] that require the address
	 * to be set here. This is undocumented!
	 */
	if (usbd_dev->driver->set_address_before_status) {
 8005a94:	0003      	movs	r3, r0
 8005a96:	33dc      	adds	r3, #220	; 0xdc
 8005a98:	681b      	ldr	r3, [r3, #0]
		usbd_dev->driver->set_address(usbd_dev, req->wValue);
	}

	return USBD_REQ_HANDLED;
 8005a9a:	3401      	adds	r4, #1
	if (usbd_dev->driver->set_address_before_status) {
 8005a9c:	001a      	movs	r2, r3
 8005a9e:	3230      	adds	r2, #48	; 0x30
 8005aa0:	7812      	ldrb	r2, [r2, #0]
 8005aa2:	2a00      	cmp	r2, #0
 8005aa4:	d002      	beq.n	8005aac <usb_standard_set_address+0x2e>
		usbd_dev->driver->set_address(usbd_dev, req->wValue);
 8005aa6:	7889      	ldrb	r1, [r1, #2]
 8005aa8:	685b      	ldr	r3, [r3, #4]
 8005aaa:	4798      	blx	r3
}
 8005aac:	0020      	movs	r0, r4
 8005aae:	bd10      	pop	{r4, pc}
		return USBD_REQ_NOTSUPP;
 8005ab0:	2400      	movs	r4, #0
 8005ab2:	e7fb      	b.n	8005aac <usb_standard_set_address+0x2e>

08005ab4 <usb_standard_set_configuration>:

static enum usbd_request_return_codes
usb_standard_set_configuration(usbd_device *usbd_dev,
			       struct usb_setup_data *req,
			       uint8_t **buf, uint16_t *len)
{
 8005ab4:	b5f8      	push	{r3, r4, r5, r6, r7, lr}

	(void)req;
	(void)buf;
	(void)len;

	if (req->wValue > 0) {
 8005ab6:	78ca      	ldrb	r2, [r1, #3]
 8005ab8:	788b      	ldrb	r3, [r1, #2]
 8005aba:	0212      	lsls	r2, r2, #8
{
 8005abc:	0004      	movs	r4, r0
 8005abe:	000d      	movs	r5, r1
	if (req->wValue > 0) {
 8005ac0:	431a      	orrs	r2, r3
 8005ac2:	d010      	beq.n	8005ae6 <usb_standard_set_configuration+0x32>
		for (i = 0; i < usbd_dev->desc->bNumConfigurations; i++) {
 8005ac4:	6803      	ldr	r3, [r0, #0]
			if (req->wValue
			    == usbd_dev->config[i].bConfigurationValue) {
 8005ac6:	260d      	movs	r6, #13
		for (i = 0; i < usbd_dev->desc->bNumConfigurations; i++) {
 8005ac8:	7c58      	ldrb	r0, [r3, #17]
 8005aca:	2300      	movs	r3, #0
 8005acc:	4298      	cmp	r0, r3
 8005ace:	d801      	bhi.n	8005ad4 <usb_standard_set_configuration+0x20>
				found_index = i;
				break;
			}
		}
		if (found_index < 0) {
			return USBD_REQ_NOTSUPP;
 8005ad0:	2000      	movs	r0, #0
			}
		}
	}

	return USBD_REQ_HANDLED;
}
 8005ad2:	bdf8      	pop	{r3, r4, r5, r6, r7, pc}
			    == usbd_dev->config[i].bConfigurationValue) {
 8005ad4:	0031      	movs	r1, r6
 8005ad6:	4359      	muls	r1, r3
 8005ad8:	6867      	ldr	r7, [r4, #4]
 8005ada:	1879      	adds	r1, r7, r1
			if (req->wValue
 8005adc:	7949      	ldrb	r1, [r1, #5]
 8005ade:	4291      	cmp	r1, r2
 8005ae0:	d003      	beq.n	8005aea <usb_standard_set_configuration+0x36>
		for (i = 0; i < usbd_dev->desc->bNumConfigurations; i++) {
 8005ae2:	3301      	adds	r3, #1
 8005ae4:	e7f2      	b.n	8005acc <usb_standard_set_configuration+0x18>
	int found_index = -1;
 8005ae6:	2301      	movs	r3, #1
 8005ae8:	425b      	negs	r3, r3
	usbd_dev->current_config = found_index + 1;
 8005aea:	3301      	adds	r3, #1
 8005aec:	b2db      	uxtb	r3, r3
 8005aee:	75e3      	strb	r3, [r4, #23]
	if (usbd_dev->current_config > 0) {
 8005af0:	2b00      	cmp	r3, #0
 8005af2:	d10c      	bne.n	8005b0e <usb_standard_set_configuration+0x5a>
	usbd_dev->driver->ep_reset(usbd_dev);
 8005af4:	0023      	movs	r3, r4
	if (usbd_dev->user_callback_set_config[0]) {
 8005af6:	0026      	movs	r6, r4
	usbd_dev->driver->ep_reset(usbd_dev);
 8005af8:	33dc      	adds	r3, #220	; 0xdc
 8005afa:	681b      	ldr	r3, [r3, #0]
 8005afc:	0020      	movs	r0, r4
 8005afe:	68db      	ldr	r3, [r3, #12]
	if (usbd_dev->user_callback_set_config[0]) {
 8005b00:	36c8      	adds	r6, #200	; 0xc8
	usbd_dev->driver->ep_reset(usbd_dev);
 8005b02:	4798      	blx	r3
	if (usbd_dev->user_callback_set_config[0]) {
 8005b04:	6833      	ldr	r3, [r6, #0]
 8005b06:	2b00      	cmp	r3, #0
 8005b08:	d11c      	bne.n	8005b44 <usb_standard_set_configuration+0x90>
	return USBD_REQ_HANDLED;
 8005b0a:	2001      	movs	r0, #1
 8005b0c:	e7e1      	b.n	8005ad2 <usb_standard_set_configuration+0x1e>
		cfg = &usbd_dev->config[usbd_dev->current_config - 1];
 8005b0e:	220d      	movs	r2, #13
 8005b10:	4353      	muls	r3, r2
 8005b12:	6862      	ldr	r2, [r4, #4]
 8005b14:	3b0d      	subs	r3, #13
 8005b16:	18d3      	adds	r3, r2, r3
		for (i = 0; i < cfg->bNumInterfaces; i++) {
 8005b18:	2200      	movs	r2, #0
				*cfg->interface[i].cur_altsetting = 0;
 8005b1a:	0016      	movs	r6, r2
		for (i = 0; i < cfg->bNumInterfaces; i++) {
 8005b1c:	7919      	ldrb	r1, [r3, #4]
 8005b1e:	4291      	cmp	r1, r2
 8005b20:	d9e8      	bls.n	8005af4 <usb_standard_set_configuration+0x40>
			if (cfg->interface[i].cur_altsetting) {
 8005b22:	7a98      	ldrb	r0, [r3, #10]
 8005b24:	7a59      	ldrb	r1, [r3, #9]
 8005b26:	0200      	lsls	r0, r0, #8
 8005b28:	4308      	orrs	r0, r1
 8005b2a:	7ad9      	ldrb	r1, [r3, #11]
 8005b2c:	0409      	lsls	r1, r1, #16
 8005b2e:	4308      	orrs	r0, r1
 8005b30:	7b19      	ldrb	r1, [r3, #12]
 8005b32:	0609      	lsls	r1, r1, #24
 8005b34:	4301      	orrs	r1, r0
 8005b36:	0110      	lsls	r0, r2, #4
 8005b38:	5841      	ldr	r1, [r0, r1]
 8005b3a:	2900      	cmp	r1, #0
 8005b3c:	d000      	beq.n	8005b40 <usb_standard_set_configuration+0x8c>
				*cfg->interface[i].cur_altsetting = 0;
 8005b3e:	700e      	strb	r6, [r1, #0]
		for (i = 0; i < cfg->bNumInterfaces; i++) {
 8005b40:	3201      	adds	r2, #1
 8005b42:	e7eb      	b.n	8005b1c <usb_standard_set_configuration+0x68>
			usbd_dev->user_control_callback[i].cb = NULL;
 8005b44:	2300      	movs	r3, #0
 8005b46:	0027      	movs	r7, r4
 8005b48:	64a3      	str	r3, [r4, #72]	; 0x48
 8005b4a:	6523      	str	r3, [r4, #80]	; 0x50
 8005b4c:	65a3      	str	r3, [r4, #88]	; 0x58
 8005b4e:	6623      	str	r3, [r4, #96]	; 0x60
		for (i = 0; i < MAX_USER_SET_CONFIG_CALLBACK; i++) {
 8005b50:	37d8      	adds	r7, #216	; 0xd8
			if (usbd_dev->user_callback_set_config[i]) {
 8005b52:	6833      	ldr	r3, [r6, #0]
 8005b54:	2b00      	cmp	r3, #0
 8005b56:	d005      	beq.n	8005b64 <usb_standard_set_configuration+0xb0>
				usbd_dev->user_callback_set_config[i](usbd_dev,
 8005b58:	78e9      	ldrb	r1, [r5, #3]
 8005b5a:	78aa      	ldrb	r2, [r5, #2]
 8005b5c:	0209      	lsls	r1, r1, #8
 8005b5e:	0020      	movs	r0, r4
 8005b60:	4311      	orrs	r1, r2
 8005b62:	4798      	blx	r3
		for (i = 0; i < MAX_USER_SET_CONFIG_CALLBACK; i++) {
 8005b64:	3604      	adds	r6, #4
 8005b66:	42b7      	cmp	r7, r6
 8005b68:	d1f3      	bne.n	8005b52 <usb_standard_set_configuration+0x9e>
 8005b6a:	e7ce      	b.n	8005b0a <usb_standard_set_configuration+0x56>

08005b6c <usb_standard_get_configuration>:
			       struct usb_setup_data *req,
			       uint8_t **buf, uint16_t *len)
{
	(void)req;

	if (*len > 1) {
 8005b6c:	8819      	ldrh	r1, [r3, #0]
{
 8005b6e:	b510      	push	{r4, lr}
	if (*len > 1) {
 8005b70:	2901      	cmp	r1, #1
 8005b72:	d901      	bls.n	8005b78 <usb_standard_get_configuration+0xc>
		*len = 1;
 8005b74:	2101      	movs	r1, #1
 8005b76:	8019      	strh	r1, [r3, #0]
	}
	if (usbd_dev->current_config > 0) {
 8005b78:	7dc1      	ldrb	r1, [r0, #23]
 8005b7a:	6814      	ldr	r4, [r2, #0]
 8005b7c:	2900      	cmp	r1, #0
 8005b7e:	d008      	beq.n	8005b92 <usb_standard_get_configuration+0x26>
		const struct usb_config_descriptor *cfg =
			&usbd_dev->config[usbd_dev->current_config - 1];
		(*buf)[0] = cfg->bConfigurationValue;
 8005b80:	220d      	movs	r2, #13
 8005b82:	4351      	muls	r1, r2
 8005b84:	6843      	ldr	r3, [r0, #4]
 8005b86:	185b      	adds	r3, r3, r1
 8005b88:	3b0d      	subs	r3, #13
 8005b8a:	795b      	ldrb	r3, [r3, #5]
 8005b8c:	7023      	strb	r3, [r4, #0]
	} else {
		(*buf)[0] = 0;
	}

	return USBD_REQ_HANDLED;
}
 8005b8e:	2001      	movs	r0, #1
 8005b90:	bd10      	pop	{r4, pc}
		(*buf)[0] = 0;
 8005b92:	7021      	strb	r1, [r4, #0]
 8005b94:	e7fb      	b.n	8005b8e <usb_standard_get_configuration+0x22>

08005b96 <usb_standard_get_interface>:

static enum usbd_request_return_codes
usb_standard_get_interface(usbd_device *usbd_dev,
			   struct usb_setup_data *req,
			   uint8_t **buf, uint16_t *len)
{
 8005b96:	b570      	push	{r4, r5, r6, lr}
	uint8_t *cur_altsetting;
	const struct usb_config_descriptor *cfx =
		&usbd_dev->config[usbd_dev->current_config - 1];
 8005b98:	240d      	movs	r4, #13
 8005b9a:	7dc5      	ldrb	r5, [r0, #23]
	const struct usb_config_descriptor *cfx =
 8005b9c:	6840      	ldr	r0, [r0, #4]
		&usbd_dev->config[usbd_dev->current_config - 1];
 8005b9e:	436c      	muls	r4, r5
 8005ba0:	3c0d      	subs	r4, #13
	const struct usb_config_descriptor *cfx =
 8005ba2:	1904      	adds	r4, r0, r4

	if (req->wIndex >= cfx->bNumInterfaces) {
 8005ba4:	794d      	ldrb	r5, [r1, #5]
 8005ba6:	7908      	ldrb	r0, [r1, #4]
 8005ba8:	7926      	ldrb	r6, [r4, #4]
 8005baa:	022d      	lsls	r5, r5, #8
 8005bac:	4305      	orrs	r5, r0
		return USBD_REQ_NOTSUPP;
 8005bae:	2000      	movs	r0, #0
	if (req->wIndex >= cfx->bNumInterfaces) {
 8005bb0:	42ae      	cmp	r6, r5
 8005bb2:	d917      	bls.n	8005be4 <usb_standard_get_interface+0x4e>
	}

	*len = 1;
 8005bb4:	3001      	adds	r0, #1
 8005bb6:	8018      	strh	r0, [r3, #0]
	cur_altsetting = cfx->interface[req->wIndex].cur_altsetting;
 8005bb8:	7aa3      	ldrb	r3, [r4, #10]
 8005bba:	7a60      	ldrb	r0, [r4, #9]
 8005bbc:	021b      	lsls	r3, r3, #8
 8005bbe:	4303      	orrs	r3, r0
 8005bc0:	7ae0      	ldrb	r0, [r4, #11]
 8005bc2:	0400      	lsls	r0, r0, #16
 8005bc4:	4303      	orrs	r3, r0
 8005bc6:	7b20      	ldrb	r0, [r4, #12]
 8005bc8:	790c      	ldrb	r4, [r1, #4]
 8005bca:	0600      	lsls	r0, r0, #24
 8005bcc:	4318      	orrs	r0, r3
 8005bce:	794b      	ldrb	r3, [r1, #5]
 8005bd0:	021b      	lsls	r3, r3, #8
 8005bd2:	4323      	orrs	r3, r4
 8005bd4:	011b      	lsls	r3, r3, #4
 8005bd6:	581b      	ldr	r3, [r3, r0]
	(*buf)[0] = (cur_altsetting) ? *cur_altsetting : 0;
 8005bd8:	1e19      	subs	r1, r3, #0
 8005bda:	d000      	beq.n	8005bde <usb_standard_get_interface+0x48>
 8005bdc:	7819      	ldrb	r1, [r3, #0]

	return USBD_REQ_HANDLED;
 8005bde:	2001      	movs	r0, #1
	(*buf)[0] = (cur_altsetting) ? *cur_altsetting : 0;
 8005be0:	6813      	ldr	r3, [r2, #0]
 8005be2:	7019      	strb	r1, [r3, #0]
}
 8005be4:	bd70      	pop	{r4, r5, r6, pc}

08005be6 <usb_standard_device_get_status>:
	(void)usbd_dev;
	(void)req;

	/* bit 0: self powered */
	/* bit 1: remote wakeup */
	if (*len > 2) {
 8005be6:	8819      	ldrh	r1, [r3, #0]
 8005be8:	2902      	cmp	r1, #2
 8005bea:	d901      	bls.n	8005bf0 <usb_standard_device_get_status+0xa>
		*len = 2;
 8005bec:	2102      	movs	r1, #2
 8005bee:	8019      	strh	r1, [r3, #0]
	}
	(*buf)[0] = 0;
 8005bf0:	2300      	movs	r3, #0
 8005bf2:	6811      	ldr	r1, [r2, #0]
	(*buf)[1] = 0;

	return USBD_REQ_HANDLED;
}
 8005bf4:	2001      	movs	r0, #1
	(*buf)[0] = 0;
 8005bf6:	700b      	strb	r3, [r1, #0]
	(*buf)[1] = 0;
 8005bf8:	6812      	ldr	r2, [r2, #0]
 8005bfa:	7053      	strb	r3, [r2, #1]
}
 8005bfc:	4770      	bx	lr

08005bfe <usb_standard_endpoint_get_status>:

static enum usbd_request_return_codes
usb_standard_endpoint_get_status(usbd_device *usbd_dev,
				 struct usb_setup_data *req,
				 uint8_t **buf, uint16_t *len)
{
 8005bfe:	b510      	push	{r4, lr}
 8005c00:	0014      	movs	r4, r2
	(void)req;

	if (*len > 2) {
 8005c02:	881a      	ldrh	r2, [r3, #0]
 8005c04:	2a02      	cmp	r2, #2
 8005c06:	d901      	bls.n	8005c0c <usb_standard_endpoint_get_status+0xe>
		*len = 2;
 8005c08:	2202      	movs	r2, #2
 8005c0a:	801a      	strh	r2, [r3, #0]
	}
	(*buf)[0] = usbd_ep_stall_get(usbd_dev, req->wIndex) ? 1 : 0;
 8005c0c:	7909      	ldrb	r1, [r1, #4]
 8005c0e:	f7ff fdb2 	bl	8005776 <usbd_ep_stall_get>
 8005c12:	1e43      	subs	r3, r0, #1
 8005c14:	4198      	sbcs	r0, r3
	(*buf)[1] = 0;
 8005c16:	2200      	movs	r2, #0
	(*buf)[0] = usbd_ep_stall_get(usbd_dev, req->wIndex) ? 1 : 0;
 8005c18:	6823      	ldr	r3, [r4, #0]
 8005c1a:	7018      	strb	r0, [r3, #0]
	(*buf)[1] = 0;
 8005c1c:	6823      	ldr	r3, [r4, #0]

	return USBD_REQ_HANDLED;
}
 8005c1e:	2001      	movs	r0, #1
	(*buf)[1] = 0;
 8005c20:	705a      	strb	r2, [r3, #1]
}
 8005c22:	bd10      	pop	{r4, pc}

08005c24 <usb_standard_endpoint_stall>:

static enum usbd_request_return_codes
usb_standard_endpoint_stall(usbd_device *usbd_dev,
			    struct usb_setup_data *req,
			    uint8_t **buf, uint16_t *len)
{
 8005c24:	b510      	push	{r4, lr}
	(void)buf;
	(void)len;

	usbd_ep_stall_set(usbd_dev, req->wIndex, 1);
 8005c26:	2201      	movs	r2, #1
 8005c28:	7909      	ldrb	r1, [r1, #4]
 8005c2a:	f7ff fd9d 	bl	8005768 <usbd_ep_stall_set>

	return USBD_REQ_HANDLED;
}
 8005c2e:	2001      	movs	r0, #1
 8005c30:	bd10      	pop	{r4, pc}

08005c32 <usb_standard_endpoint_unstall>:

static enum usbd_request_return_codes
usb_standard_endpoint_unstall(usbd_device *usbd_dev,
			      struct usb_setup_data *req,
			      uint8_t **buf, uint16_t *len)
{
 8005c32:	b510      	push	{r4, lr}
	(void)buf;
	(void)len;

	usbd_ep_stall_set(usbd_dev, req->wIndex, 0);
 8005c34:	2200      	movs	r2, #0
 8005c36:	7909      	ldrb	r1, [r1, #4]
 8005c38:	f7ff fd96 	bl	8005768 <usbd_ep_stall_set>

	return USBD_REQ_HANDLED;
}
 8005c3c:	2001      	movs	r0, #1
 8005c3e:	bd10      	pop	{r4, pc}

08005c40 <usb_standard_set_interface>:
{
 8005c40:	b570      	push	{r4, r5, r6, lr}
		&usbd_dev->config[usbd_dev->current_config - 1];
 8005c42:	260d      	movs	r6, #13
{
 8005c44:	001d      	movs	r5, r3
		&usbd_dev->config[usbd_dev->current_config - 1];
 8005c46:	7dc3      	ldrb	r3, [r0, #23]
	if (req->wIndex >= cfx->bNumInterfaces) {
 8005c48:	794c      	ldrb	r4, [r1, #5]
		&usbd_dev->config[usbd_dev->current_config - 1];
 8005c4a:	435e      	muls	r6, r3
	const struct usb_config_descriptor *cfx =
 8005c4c:	6843      	ldr	r3, [r0, #4]
		&usbd_dev->config[usbd_dev->current_config - 1];
 8005c4e:	3e0d      	subs	r6, #13
	const struct usb_config_descriptor *cfx =
 8005c50:	199e      	adds	r6, r3, r6
	if (req->wIndex >= cfx->bNumInterfaces) {
 8005c52:	790b      	ldrb	r3, [r1, #4]
 8005c54:	0224      	lsls	r4, r4, #8
 8005c56:	431c      	orrs	r4, r3
 8005c58:	7933      	ldrb	r3, [r6, #4]
		return USBD_REQ_NOTSUPP;
 8005c5a:	2200      	movs	r2, #0
	if (req->wIndex >= cfx->bNumInterfaces) {
 8005c5c:	42a3      	cmp	r3, r4
 8005c5e:	d92b      	bls.n	8005cb8 <usb_standard_set_interface+0x78>
	iface = &cfx->interface[req->wIndex];
 8005c60:	7ab2      	ldrb	r2, [r6, #10]
 8005c62:	7a73      	ldrb	r3, [r6, #9]
 8005c64:	0212      	lsls	r2, r2, #8
 8005c66:	431a      	orrs	r2, r3
 8005c68:	7af3      	ldrb	r3, [r6, #11]
 8005c6a:	0124      	lsls	r4, r4, #4
 8005c6c:	041b      	lsls	r3, r3, #16
 8005c6e:	431a      	orrs	r2, r3
 8005c70:	7b33      	ldrb	r3, [r6, #12]
 8005c72:	061b      	lsls	r3, r3, #24
 8005c74:	4313      	orrs	r3, r2
 8005c76:	191b      	adds	r3, r3, r4
	if (req->wValue >= iface->num_altsetting) {
 8005c78:	78cc      	ldrb	r4, [r1, #3]
 8005c7a:	788a      	ldrb	r2, [r1, #2]
 8005c7c:	791e      	ldrb	r6, [r3, #4]
 8005c7e:	0224      	lsls	r4, r4, #8
 8005c80:	4314      	orrs	r4, r2
		return USBD_REQ_NOTSUPP;
 8005c82:	2200      	movs	r2, #0
	if (req->wValue >= iface->num_altsetting) {
 8005c84:	42a6      	cmp	r6, r4
 8005c86:	d917      	bls.n	8005cb8 <usb_standard_set_interface+0x78>
	if (iface->cur_altsetting) {
 8005c88:	681a      	ldr	r2, [r3, #0]
 8005c8a:	2a00      	cmp	r2, #0
 8005c8c:	d012      	beq.n	8005cb4 <usb_standard_set_interface+0x74>
		*iface->cur_altsetting = req->wValue;
 8005c8e:	7014      	strb	r4, [r2, #0]
	if (usbd_dev->user_callback_set_altsetting) {
 8005c90:	0003      	movs	r3, r0
 8005c92:	33d8      	adds	r3, #216	; 0xd8
 8005c94:	681b      	ldr	r3, [r3, #0]
 8005c96:	2b00      	cmp	r3, #0
 8005c98:	d008      	beq.n	8005cac <usb_standard_set_interface+0x6c>
			usbd_dev->user_callback_set_altsetting(usbd_dev,
 8005c9a:	78ca      	ldrb	r2, [r1, #3]
 8005c9c:	788c      	ldrb	r4, [r1, #2]
 8005c9e:	0212      	lsls	r2, r2, #8
 8005ca0:	4322      	orrs	r2, r4
 8005ca2:	790c      	ldrb	r4, [r1, #4]
 8005ca4:	7949      	ldrb	r1, [r1, #5]
 8005ca6:	0209      	lsls	r1, r1, #8
 8005ca8:	4321      	orrs	r1, r4
 8005caa:	4798      	blx	r3
	*len = 0;
 8005cac:	2300      	movs	r3, #0
 8005cae:	2201      	movs	r2, #1
 8005cb0:	802b      	strh	r3, [r5, #0]
	return USBD_REQ_HANDLED;
 8005cb2:	e001      	b.n	8005cb8 <usb_standard_set_interface+0x78>
	} else if (req->wValue > 0) {
 8005cb4:	2c00      	cmp	r4, #0
 8005cb6:	d0eb      	beq.n	8005c90 <usb_standard_set_interface+0x50>
}
 8005cb8:	0010      	movs	r0, r2
 8005cba:	bd70      	pop	{r4, r5, r6, pc}

08005cbc <usb_standard_get_descriptor>:
{
 8005cbc:	b5f0      	push	{r4, r5, r6, r7, lr}
 8005cbe:	b08f      	sub	sp, #60	; 0x3c
 8005cc0:	9305      	str	r3, [sp, #20]
 8005cc2:	0014      	movs	r4, r2
	descr_idx = usb_descriptor_index(req->wValue);
 8005cc4:	78ca      	ldrb	r2, [r1, #3]
 8005cc6:	788b      	ldrb	r3, [r1, #2]
 8005cc8:	0212      	lsls	r2, r2, #8
 8005cca:	4313      	orrs	r3, r2
{
 8005ccc:	0006      	movs	r6, r0
	return wValue >> 8;
 8005cce:	0a12      	lsrs	r2, r2, #8
	switch (usb_descriptor_type(req->wValue)) {
 8005cd0:	2a02      	cmp	r2, #2
 8005cd2:	d013      	beq.n	8005cfc <usb_standard_get_descriptor+0x40>
 8005cd4:	2a03      	cmp	r2, #3
 8005cd6:	d100      	bne.n	8005cda <usb_standard_get_descriptor+0x1e>
 8005cd8:	e152      	b.n	8005f80 <usb_standard_get_descriptor+0x2c4>
 8005cda:	2000      	movs	r0, #0
 8005cdc:	2a01      	cmp	r2, #1
 8005cde:	d10b      	bne.n	8005cf8 <usb_standard_get_descriptor+0x3c>
		*buf = (uint8_t *) usbd_dev->desc;
 8005ce0:	6833      	ldr	r3, [r6, #0]
		*len = MIN(*len, usbd_dev->desc->bLength);
 8005ce2:	7819      	ldrb	r1, [r3, #0]
		*buf = (uint8_t *) usbd_dev->desc;
 8005ce4:	6023      	str	r3, [r4, #0]
		*len = MIN(*len, usbd_dev->desc->bLength);
 8005ce6:	9b05      	ldr	r3, [sp, #20]
 8005ce8:	881a      	ldrh	r2, [r3, #0]
 8005cea:	1c0b      	adds	r3, r1, #0
 8005cec:	4291      	cmp	r1, r2
 8005cee:	d900      	bls.n	8005cf2 <usb_standard_get_descriptor+0x36>
 8005cf0:	1c13      	adds	r3, r2, #0
 8005cf2:	9a05      	ldr	r2, [sp, #20]
 8005cf4:	8013      	strh	r3, [r2, #0]
		return USBD_REQ_HANDLED;
 8005cf6:	2001      	movs	r0, #1
}
 8005cf8:	b00f      	add	sp, #60	; 0x3c
 8005cfa:	bdf0      	pop	{r4, r5, r6, r7, pc}
		*buf = usbd_dev->ctrl_buf;
 8005cfc:	6902      	ldr	r2, [r0, #16]
	const struct usb_config_descriptor *cfg = &usbd_dev->config[index];
 8005cfe:	b2db      	uxtb	r3, r3
		*buf = usbd_dev->ctrl_buf;
 8005d00:	6022      	str	r2, [r4, #0]
 8005d02:	9206      	str	r2, [sp, #24]
		*len = build_config_descriptor(usbd_dev, descr_idx, *buf, *len);
 8005d04:	9a05      	ldr	r2, [sp, #20]
 8005d06:	8814      	ldrh	r4, [r2, #0]
	const struct usb_config_descriptor *cfg = &usbd_dev->config[index];
 8005d08:	220d      	movs	r2, #13
 8005d0a:	4353      	muls	r3, r2
 8005d0c:	6842      	ldr	r2, [r0, #4]
 8005d0e:	18d1      	adds	r1, r2, r3
	memcpy(buf, cfg, count = MIN(len, cfg->bLength));
 8005d10:	5cd3      	ldrb	r3, [r2, r3]
	const struct usb_config_descriptor *cfg = &usbd_dev->config[index];
 8005d12:	9104      	str	r1, [sp, #16]
	memcpy(buf, cfg, count = MIN(len, cfg->bLength));
 8005d14:	1c1f      	adds	r7, r3, #0
 8005d16:	42a3      	cmp	r3, r4
 8005d18:	d900      	bls.n	8005d1c <usb_standard_get_descriptor+0x60>
 8005d1a:	1c27      	adds	r7, r4, #0
 8005d1c:	b2bb      	uxth	r3, r7
 8005d1e:	001a      	movs	r2, r3
 8005d20:	9904      	ldr	r1, [sp, #16]
 8005d22:	9806      	ldr	r0, [sp, #24]
 8005d24:	9303      	str	r3, [sp, #12]
 8005d26:	f000 fd6b 	bl	8006800 <memcpy>
	buf += count;
 8005d2a:	9a03      	ldr	r2, [sp, #12]
 8005d2c:	9b06      	ldr	r3, [sp, #24]
 8005d2e:	4694      	mov	ip, r2
	len -= count;
 8005d30:	1aa4      	subs	r4, r4, r2
	buf += count;
 8005d32:	4463      	add	r3, ip
 8005d34:	9302      	str	r3, [sp, #8]
	len -= count;
 8005d36:	b2a3      	uxth	r3, r4
 8005d38:	9301      	str	r3, [sp, #4]
	totallen += cfg->bLength;
 8005d3a:	9b04      	ldr	r3, [sp, #16]
 8005d3c:	781a      	ldrb	r2, [r3, #0]
 8005d3e:	ab0c      	add	r3, sp, #48	; 0x30
 8005d40:	80da      	strh	r2, [r3, #6]
	for (i = 0; i < cfg->bNumInterfaces; i++) {
 8005d42:	2300      	movs	r3, #0
 8005d44:	9307      	str	r3, [sp, #28]
 8005d46:	9b04      	ldr	r3, [sp, #16]
 8005d48:	791a      	ldrb	r2, [r3, #4]
 8005d4a:	466b      	mov	r3, sp
 8005d4c:	8b9b      	ldrh	r3, [r3, #28]
 8005d4e:	429a      	cmp	r2, r3
 8005d50:	d80a      	bhi.n	8005d68 <usb_standard_get_descriptor+0xac>
	memcpy((tmpbuf + 2), &totallen, sizeof(uint16_t));
 8005d52:	9806      	ldr	r0, [sp, #24]
 8005d54:	ab0c      	add	r3, sp, #48	; 0x30
 8005d56:	2202      	movs	r2, #2
 8005d58:	1d99      	adds	r1, r3, #6
 8005d5a:	3002      	adds	r0, #2
 8005d5c:	f000 fd50 	bl	8006800 <memcpy>
		*len = build_config_descriptor(usbd_dev, descr_idx, *buf, *len);
 8005d60:	9b05      	ldr	r3, [sp, #20]
 8005d62:	9a03      	ldr	r2, [sp, #12]
 8005d64:	801a      	strh	r2, [r3, #0]
		return USBD_REQ_HANDLED;
 8005d66:	e7c6      	b.n	8005cf6 <usb_standard_get_descriptor+0x3a>
		if (cfg->interface[i].iface_assoc) {
 8005d68:	9b07      	ldr	r3, [sp, #28]
 8005d6a:	9a04      	ldr	r2, [sp, #16]
 8005d6c:	011b      	lsls	r3, r3, #4
 8005d6e:	930b      	str	r3, [sp, #44]	; 0x2c
 8005d70:	9b04      	ldr	r3, [sp, #16]
 8005d72:	7a92      	ldrb	r2, [r2, #10]
 8005d74:	7a5b      	ldrb	r3, [r3, #9]
 8005d76:	0212      	lsls	r2, r2, #8
 8005d78:	431a      	orrs	r2, r3
 8005d7a:	9b04      	ldr	r3, [sp, #16]
 8005d7c:	7adb      	ldrb	r3, [r3, #11]
 8005d7e:	041b      	lsls	r3, r3, #16
 8005d80:	431a      	orrs	r2, r3
 8005d82:	9b04      	ldr	r3, [sp, #16]
 8005d84:	7b1b      	ldrb	r3, [r3, #12]
 8005d86:	061b      	lsls	r3, r3, #24
 8005d88:	4313      	orrs	r3, r2
 8005d8a:	9a0b      	ldr	r2, [sp, #44]	; 0x2c
 8005d8c:	189b      	adds	r3, r3, r2
 8005d8e:	689c      	ldr	r4, [r3, #8]
 8005d90:	2c00      	cmp	r4, #0
 8005d92:	d01d      	beq.n	8005dd0 <usb_standard_get_descriptor+0x114>
			memcpy(buf, assoc, count = MIN(len, assoc->bLength));
 8005d94:	7823      	ldrb	r3, [r4, #0]
 8005d96:	9a01      	ldr	r2, [sp, #4]
 8005d98:	1c1f      	adds	r7, r3, #0
 8005d9a:	4293      	cmp	r3, r2
 8005d9c:	d901      	bls.n	8005da2 <usb_standard_get_descriptor+0xe6>
 8005d9e:	466b      	mov	r3, sp
 8005da0:	889f      	ldrh	r7, [r3, #4]
 8005da2:	b2bf      	uxth	r7, r7
 8005da4:	003a      	movs	r2, r7
 8005da6:	0021      	movs	r1, r4
 8005da8:	9802      	ldr	r0, [sp, #8]
 8005daa:	f000 fd29 	bl	8006800 <memcpy>
			buf += count;
 8005dae:	9b02      	ldr	r3, [sp, #8]
 8005db0:	19db      	adds	r3, r3, r7
 8005db2:	9302      	str	r3, [sp, #8]
			len -= count;
 8005db4:	9b01      	ldr	r3, [sp, #4]
 8005db6:	1bdb      	subs	r3, r3, r7
 8005db8:	b29b      	uxth	r3, r3
 8005dba:	9301      	str	r3, [sp, #4]
			total += count;
 8005dbc:	9b03      	ldr	r3, [sp, #12]
 8005dbe:	18ff      	adds	r7, r7, r3
 8005dc0:	b2bb      	uxth	r3, r7
 8005dc2:	9303      	str	r3, [sp, #12]
			totallen += assoc->bLength;
 8005dc4:	ab0c      	add	r3, sp, #48	; 0x30
 8005dc6:	1d9a      	adds	r2, r3, #6
 8005dc8:	8811      	ldrh	r1, [r2, #0]
 8005dca:	7823      	ldrb	r3, [r4, #0]
 8005dcc:	185b      	adds	r3, r3, r1
 8005dce:	8013      	strh	r3, [r2, #0]
{
 8005dd0:	2300      	movs	r3, #0
		for (j = 0; j < cfg->interface[i].num_altsetting; j++) {
 8005dd2:	9a04      	ldr	r2, [sp, #16]
 8005dd4:	9308      	str	r3, [sp, #32]
 8005dd6:	9b04      	ldr	r3, [sp, #16]
 8005dd8:	7a92      	ldrb	r2, [r2, #10]
 8005dda:	7a5b      	ldrb	r3, [r3, #9]
 8005ddc:	0212      	lsls	r2, r2, #8
 8005dde:	431a      	orrs	r2, r3
 8005de0:	9b04      	ldr	r3, [sp, #16]
 8005de2:	7adb      	ldrb	r3, [r3, #11]
 8005de4:	041b      	lsls	r3, r3, #16
 8005de6:	431a      	orrs	r2, r3
 8005de8:	9b04      	ldr	r3, [sp, #16]
 8005dea:	7b1b      	ldrb	r3, [r3, #12]
 8005dec:	061b      	lsls	r3, r3, #24
 8005dee:	4313      	orrs	r3, r2
 8005df0:	9a0b      	ldr	r2, [sp, #44]	; 0x2c
 8005df2:	189b      	adds	r3, r3, r2
 8005df4:	466a      	mov	r2, sp
 8005df6:	7919      	ldrb	r1, [r3, #4]
 8005df8:	8c12      	ldrh	r2, [r2, #32]
 8005dfa:	4291      	cmp	r1, r2
 8005dfc:	d802      	bhi.n	8005e04 <usb_standard_get_descriptor+0x148>
	for (i = 0; i < cfg->bNumInterfaces; i++) {
 8005dfe:	9b07      	ldr	r3, [sp, #28]
 8005e00:	3301      	adds	r3, #1
 8005e02:	e79f      	b.n	8005d44 <usb_standard_get_descriptor+0x88>
			const struct usb_interface_descriptor *iface =
 8005e04:	68da      	ldr	r2, [r3, #12]
 8005e06:	2315      	movs	r3, #21
 8005e08:	9908      	ldr	r1, [sp, #32]
 8005e0a:	434b      	muls	r3, r1
 8005e0c:	18d4      	adds	r4, r2, r3
			memcpy(buf, iface, count = MIN(len, iface->bLength));
 8005e0e:	5cd3      	ldrb	r3, [r2, r3]
 8005e10:	9a01      	ldr	r2, [sp, #4]
 8005e12:	1c1f      	adds	r7, r3, #0
 8005e14:	4293      	cmp	r3, r2
 8005e16:	d901      	bls.n	8005e1c <usb_standard_get_descriptor+0x160>
 8005e18:	466b      	mov	r3, sp
 8005e1a:	889f      	ldrh	r7, [r3, #4]
 8005e1c:	b2bf      	uxth	r7, r7
 8005e1e:	003a      	movs	r2, r7
 8005e20:	0021      	movs	r1, r4
 8005e22:	9802      	ldr	r0, [sp, #8]
 8005e24:	f000 fcec 	bl	8006800 <memcpy>
			buf += count;
 8005e28:	9b02      	ldr	r3, [sp, #8]
			totallen += iface->bLength;
 8005e2a:	7826      	ldrb	r6, [r4, #0]
			buf += count;
 8005e2c:	19db      	adds	r3, r3, r7
 8005e2e:	9302      	str	r3, [sp, #8]
			len -= count;
 8005e30:	9b01      	ldr	r3, [sp, #4]
 8005e32:	1bdb      	subs	r3, r3, r7
 8005e34:	b29b      	uxth	r3, r3
 8005e36:	9301      	str	r3, [sp, #4]
			total += count;
 8005e38:	9b03      	ldr	r3, [sp, #12]
 8005e3a:	18ff      	adds	r7, r7, r3
 8005e3c:	b2bb      	uxth	r3, r7
 8005e3e:	9303      	str	r3, [sp, #12]
			totallen += iface->bLength;
 8005e40:	ab0c      	add	r3, sp, #48	; 0x30
 8005e42:	88da      	ldrh	r2, [r3, #6]
 8005e44:	18b6      	adds	r6, r6, r2
 8005e46:	b2b6      	uxth	r6, r6
 8005e48:	80de      	strh	r6, [r3, #6]
			if (iface->extra) {
 8005e4a:	7ba3      	ldrb	r3, [r4, #14]
 8005e4c:	7b61      	ldrb	r1, [r4, #13]
 8005e4e:	021b      	lsls	r3, r3, #8
 8005e50:	430b      	orrs	r3, r1
 8005e52:	7be1      	ldrb	r1, [r4, #15]
 8005e54:	0409      	lsls	r1, r1, #16
 8005e56:	430b      	orrs	r3, r1
 8005e58:	7c21      	ldrb	r1, [r4, #16]
 8005e5a:	0609      	lsls	r1, r1, #24
 8005e5c:	4319      	orrs	r1, r3
 8005e5e:	d024      	beq.n	8005eaa <usb_standard_get_descriptor+0x1ee>
				       count = MIN(len, iface->extralen));
 8005e60:	7ca3      	ldrb	r3, [r4, #18]
 8005e62:	7c65      	ldrb	r5, [r4, #17]
 8005e64:	021b      	lsls	r3, r3, #8
 8005e66:	432b      	orrs	r3, r5
 8005e68:	7ce5      	ldrb	r5, [r4, #19]
 8005e6a:	042d      	lsls	r5, r5, #16
 8005e6c:	432b      	orrs	r3, r5
 8005e6e:	7d25      	ldrb	r5, [r4, #20]
 8005e70:	062d      	lsls	r5, r5, #24
 8005e72:	431d      	orrs	r5, r3
 8005e74:	9b01      	ldr	r3, [sp, #4]
 8005e76:	429d      	cmp	r5, r3
 8005e78:	dd00      	ble.n	8005e7c <usb_standard_get_descriptor+0x1c0>
 8005e7a:	001d      	movs	r5, r3
 8005e7c:	b2af      	uxth	r7, r5
				memcpy(buf, iface->extra,
 8005e7e:	003a      	movs	r2, r7
 8005e80:	9802      	ldr	r0, [sp, #8]
 8005e82:	f000 fcbd 	bl	8006800 <memcpy>
				buf += count;
 8005e86:	9b02      	ldr	r3, [sp, #8]
 8005e88:	19db      	adds	r3, r3, r7
 8005e8a:	9302      	str	r3, [sp, #8]
				len -= count;
 8005e8c:	9b01      	ldr	r3, [sp, #4]
 8005e8e:	1bdb      	subs	r3, r3, r7
 8005e90:	b29b      	uxth	r3, r3
 8005e92:	9301      	str	r3, [sp, #4]
				total += count;
 8005e94:	9b03      	ldr	r3, [sp, #12]
 8005e96:	19df      	adds	r7, r3, r7
 8005e98:	b2bb      	uxth	r3, r7
 8005e9a:	9303      	str	r3, [sp, #12]
				totallen += iface->extralen;
 8005e9c:	7ca3      	ldrb	r3, [r4, #18]
 8005e9e:	7c62      	ldrb	r2, [r4, #17]
 8005ea0:	021b      	lsls	r3, r3, #8
 8005ea2:	4313      	orrs	r3, r2
 8005ea4:	199e      	adds	r6, r3, r6
 8005ea6:	ab0c      	add	r3, sp, #48	; 0x30
 8005ea8:	80de      	strh	r6, [r3, #6]
{
 8005eaa:	2300      	movs	r3, #0
 8005eac:	9309      	str	r3, [sp, #36]	; 0x24
			for (k = 0; k < iface->bNumEndpoints; k++) {
 8005eae:	466b      	mov	r3, sp
 8005eb0:	7922      	ldrb	r2, [r4, #4]
 8005eb2:	8c9b      	ldrh	r3, [r3, #36]	; 0x24
 8005eb4:	429a      	cmp	r2, r3
 8005eb6:	d802      	bhi.n	8005ebe <usb_standard_get_descriptor+0x202>
		for (j = 0; j < cfg->interface[i].num_altsetting; j++) {
 8005eb8:	9b08      	ldr	r3, [sp, #32]
 8005eba:	3301      	adds	r3, #1
 8005ebc:	e789      	b.n	8005dd2 <usb_standard_get_descriptor+0x116>
				    &iface->endpoint[k];
 8005ebe:	7aa2      	ldrb	r2, [r4, #10]
 8005ec0:	7a63      	ldrb	r3, [r4, #9]
 8005ec2:	0212      	lsls	r2, r2, #8
 8005ec4:	431a      	orrs	r2, r3
 8005ec6:	7ae3      	ldrb	r3, [r4, #11]
				const struct usb_endpoint_descriptor *ep =
 8005ec8:	9909      	ldr	r1, [sp, #36]	; 0x24
				    &iface->endpoint[k];
 8005eca:	041b      	lsls	r3, r3, #16
 8005ecc:	431a      	orrs	r2, r3
 8005ece:	7b23      	ldrb	r3, [r4, #12]
 8005ed0:	061b      	lsls	r3, r3, #24
 8005ed2:	4313      	orrs	r3, r2
				const struct usb_endpoint_descriptor *ep =
 8005ed4:	220f      	movs	r2, #15
 8005ed6:	434a      	muls	r2, r1
 8005ed8:	189d      	adds	r5, r3, r2
				memcpy(buf, ep, count = MIN(len, ep->bLength));
 8005eda:	5c9b      	ldrb	r3, [r3, r2]
 8005edc:	9a01      	ldr	r2, [sp, #4]
 8005ede:	1c1f      	adds	r7, r3, #0
 8005ee0:	4293      	cmp	r3, r2
 8005ee2:	d901      	bls.n	8005ee8 <usb_standard_get_descriptor+0x22c>
 8005ee4:	466b      	mov	r3, sp
 8005ee6:	889f      	ldrh	r7, [r3, #4]
 8005ee8:	b2bf      	uxth	r7, r7
 8005eea:	003a      	movs	r2, r7
 8005eec:	0029      	movs	r1, r5
 8005eee:	9802      	ldr	r0, [sp, #8]
 8005ef0:	f000 fc86 	bl	8006800 <memcpy>
				buf += count;
 8005ef4:	9b02      	ldr	r3, [sp, #8]
				totallen += ep->bLength;
 8005ef6:	aa0c      	add	r2, sp, #48	; 0x30
				buf += count;
 8005ef8:	19db      	adds	r3, r3, r7
 8005efa:	9302      	str	r3, [sp, #8]
				len -= count;
 8005efc:	9b01      	ldr	r3, [sp, #4]
				totallen += ep->bLength;
 8005efe:	88d1      	ldrh	r1, [r2, #6]
				len -= count;
 8005f00:	1bdb      	subs	r3, r3, r7
 8005f02:	b29b      	uxth	r3, r3
 8005f04:	9301      	str	r3, [sp, #4]
				total += count;
 8005f06:	9b03      	ldr	r3, [sp, #12]
 8005f08:	18ff      	adds	r7, r7, r3
 8005f0a:	b2bb      	uxth	r3, r7
 8005f0c:	9303      	str	r3, [sp, #12]
				totallen += ep->bLength;
 8005f0e:	782b      	ldrb	r3, [r5, #0]
 8005f10:	185b      	adds	r3, r3, r1
 8005f12:	b29b      	uxth	r3, r3
 8005f14:	930a      	str	r3, [sp, #40]	; 0x28
 8005f16:	80d3      	strh	r3, [r2, #6]
				if (ep->extra) {
 8005f18:	7a2b      	ldrb	r3, [r5, #8]
 8005f1a:	79e9      	ldrb	r1, [r5, #7]
 8005f1c:	021b      	lsls	r3, r3, #8
 8005f1e:	430b      	orrs	r3, r1
 8005f20:	7a69      	ldrb	r1, [r5, #9]
 8005f22:	0409      	lsls	r1, r1, #16
 8005f24:	430b      	orrs	r3, r1
 8005f26:	7aa9      	ldrb	r1, [r5, #10]
 8005f28:	0609      	lsls	r1, r1, #24
 8005f2a:	4319      	orrs	r1, r3
 8005f2c:	d025      	beq.n	8005f7a <usb_standard_get_descriptor+0x2be>
					       count = MIN(len, ep->extralen));
 8005f2e:	7b2b      	ldrb	r3, [r5, #12]
 8005f30:	7aee      	ldrb	r6, [r5, #11]
 8005f32:	021b      	lsls	r3, r3, #8
 8005f34:	4333      	orrs	r3, r6
 8005f36:	7b6e      	ldrb	r6, [r5, #13]
 8005f38:	0436      	lsls	r6, r6, #16
 8005f3a:	4333      	orrs	r3, r6
 8005f3c:	7bae      	ldrb	r6, [r5, #14]
 8005f3e:	0636      	lsls	r6, r6, #24
 8005f40:	431e      	orrs	r6, r3
 8005f42:	9b01      	ldr	r3, [sp, #4]
 8005f44:	429e      	cmp	r6, r3
 8005f46:	dd00      	ble.n	8005f4a <usb_standard_get_descriptor+0x28e>
 8005f48:	001e      	movs	r6, r3
 8005f4a:	b2b7      	uxth	r7, r6
					memcpy(buf, ep->extra,
 8005f4c:	003a      	movs	r2, r7
 8005f4e:	9802      	ldr	r0, [sp, #8]
 8005f50:	f000 fc56 	bl	8006800 <memcpy>
					buf += count;
 8005f54:	9b02      	ldr	r3, [sp, #8]
 8005f56:	19db      	adds	r3, r3, r7
 8005f58:	9302      	str	r3, [sp, #8]
					len -= count;
 8005f5a:	9b01      	ldr	r3, [sp, #4]
 8005f5c:	1bdb      	subs	r3, r3, r7
 8005f5e:	b29b      	uxth	r3, r3
 8005f60:	9301      	str	r3, [sp, #4]
					total += count;
 8005f62:	9b03      	ldr	r3, [sp, #12]
 8005f64:	19df      	adds	r7, r3, r7
 8005f66:	b2bb      	uxth	r3, r7
 8005f68:	9303      	str	r3, [sp, #12]
					totallen += ep->extralen;
 8005f6a:	7b2b      	ldrb	r3, [r5, #12]
 8005f6c:	7aea      	ldrb	r2, [r5, #11]
 8005f6e:	021b      	lsls	r3, r3, #8
 8005f70:	4313      	orrs	r3, r2
 8005f72:	9a0a      	ldr	r2, [sp, #40]	; 0x28
 8005f74:	189b      	adds	r3, r3, r2
 8005f76:	aa0c      	add	r2, sp, #48	; 0x30
 8005f78:	80d3      	strh	r3, [r2, #6]
			for (k = 0; k < iface->bNumEndpoints; k++) {
 8005f7a:	9b09      	ldr	r3, [sp, #36]	; 0x24
 8005f7c:	3301      	adds	r3, #1
 8005f7e:	e795      	b.n	8005eac <usb_standard_get_descriptor+0x1f0>
 8005f80:	b2db      	uxtb	r3, r3
		sd = (struct usb_string_descriptor *)usbd_dev->ctrl_buf;
 8005f82:	6905      	ldr	r5, [r0, #16]
		if (descr_idx == 0) {
 8005f84:	2b00      	cmp	r3, #0
 8005f86:	d110      	bne.n	8005faa <usb_standard_get_descriptor+0x2ee>
			sd->wData[0] = USB_LANGID_ENGLISH_US;
 8005f88:	3309      	adds	r3, #9
 8005f8a:	70ab      	strb	r3, [r5, #2]
 8005f8c:	3b05      	subs	r3, #5
 8005f8e:	70eb      	strb	r3, [r5, #3]
			*len = MIN(*len, sd->bLength);
 8005f90:	9a05      	ldr	r2, [sp, #20]
			sd->bLength = sizeof(sd->bLength) +
 8005f92:	702b      	strb	r3, [r5, #0]
			*len = MIN(*len, sd->bLength);
 8005f94:	8811      	ldrh	r1, [r2, #0]
 8005f96:	1c0a      	adds	r2, r1, #0
 8005f98:	4299      	cmp	r1, r3
 8005f9a:	d900      	bls.n	8005f9e <usb_standard_get_descriptor+0x2e2>
 8005f9c:	1c1a      	adds	r2, r3, #0
 8005f9e:	9b05      	ldr	r3, [sp, #20]
 8005fa0:	801a      	strh	r2, [r3, #0]
		sd->bDescriptorType = USB_DT_STRING;
 8005fa2:	2303      	movs	r3, #3
 8005fa4:	706b      	strb	r3, [r5, #1]
		*buf = (uint8_t *)sd;
 8005fa6:	6025      	str	r5, [r4, #0]
 8005fa8:	e6a5      	b.n	8005cf6 <usb_standard_get_descriptor+0x3a>
			if (!usbd_dev->strings) {
 8005faa:	6887      	ldr	r7, [r0, #8]
			array_idx = descr_idx - 1;
 8005fac:	3b01      	subs	r3, #1
				return USBD_REQ_NOTSUPP;
 8005fae:	1e38      	subs	r0, r7, #0
			if (!usbd_dev->strings) {
 8005fb0:	d100      	bne.n	8005fb4 <usb_standard_get_descriptor+0x2f8>
 8005fb2:	e6a1      	b.n	8005cf8 <usb_standard_get_descriptor+0x3c>
			if (array_idx >= usbd_dev->num_strings) {
 8005fb4:	68f2      	ldr	r2, [r6, #12]
				return USBD_REQ_NOTSUPP;
 8005fb6:	2000      	movs	r0, #0
			if (array_idx >= usbd_dev->num_strings) {
 8005fb8:	429a      	cmp	r2, r3
 8005fba:	dc00      	bgt.n	8005fbe <usb_standard_get_descriptor+0x302>
 8005fbc:	e69c      	b.n	8005cf8 <usb_standard_get_descriptor+0x3c>
			if (req->wIndex != USB_LANGID_ENGLISH_US) {
 8005fbe:	794a      	ldrb	r2, [r1, #5]
 8005fc0:	7908      	ldrb	r0, [r1, #4]
 8005fc2:	4913      	ldr	r1, [pc, #76]	; (8006010 <usb_standard_get_descriptor+0x354>)
 8005fc4:	0212      	lsls	r2, r2, #8
 8005fc6:	4302      	orrs	r2, r0
				return USBD_REQ_NOTSUPP;
 8005fc8:	2000      	movs	r0, #0
			if (req->wIndex != USB_LANGID_ENGLISH_US) {
 8005fca:	428a      	cmp	r2, r1
 8005fcc:	d000      	beq.n	8005fd0 <usb_standard_get_descriptor+0x314>
 8005fce:	e693      	b.n	8005cf8 <usb_standard_get_descriptor+0x3c>
			sd->bLength = strlen(usbd_dev->strings[array_idx]) * 2 +
 8005fd0:	009b      	lsls	r3, r3, #2
 8005fd2:	59de      	ldr	r6, [r3, r7]
 8005fd4:	0030      	movs	r0, r6
 8005fd6:	f000 fc8d 	bl	80068f4 <strlen>
				      sizeof(sd->bLength) +
 8005fda:	3001      	adds	r0, #1
			sd->bLength = strlen(usbd_dev->strings[array_idx]) * 2 +
 8005fdc:	0040      	lsls	r0, r0, #1
			*len = MIN(*len, sd->bLength);
 8005fde:	9b05      	ldr	r3, [sp, #20]
			sd->bLength = strlen(usbd_dev->strings[array_idx]) * 2 +
 8005fe0:	b2c0      	uxtb	r0, r0
 8005fe2:	7028      	strb	r0, [r5, #0]
			*len = MIN(*len, sd->bLength);
 8005fe4:	881a      	ldrh	r2, [r3, #0]
 8005fe6:	1c13      	adds	r3, r2, #0
 8005fe8:	4282      	cmp	r2, r0
 8005fea:	d900      	bls.n	8005fee <usb_standard_get_descriptor+0x332>
 8005fec:	1c03      	adds	r3, r0, #0
 8005fee:	9a05      	ldr	r2, [sp, #20]
 8005ff0:	8013      	strh	r3, [r2, #0]
			for (i = 0; i < (*len / 2) - 1; i++) {
 8005ff2:	2300      	movs	r3, #0
 8005ff4:	9a05      	ldr	r2, [sp, #20]
 8005ff6:	8812      	ldrh	r2, [r2, #0]
 8005ff8:	0852      	lsrs	r2, r2, #1
 8005ffa:	3a01      	subs	r2, #1
 8005ffc:	429a      	cmp	r2, r3
 8005ffe:	ddd0      	ble.n	8005fa2 <usb_standard_get_descriptor+0x2e6>
				sd->wData[i] =
 8006000:	5cf1      	ldrb	r1, [r6, r3]
 8006002:	005a      	lsls	r2, r3, #1
 8006004:	18aa      	adds	r2, r5, r2
 8006006:	7091      	strb	r1, [r2, #2]
 8006008:	2100      	movs	r1, #0
			for (i = 0; i < (*len / 2) - 1; i++) {
 800600a:	3301      	adds	r3, #1
				sd->wData[i] =
 800600c:	70d1      	strb	r1, [r2, #3]
			for (i = 0; i < (*len / 2) - 1; i++) {
 800600e:	e7f1      	b.n	8005ff4 <usb_standard_get_descriptor+0x338>
 8006010:	00000409 	.word	0x00000409

08006014 <usb_standard_interface_get_status>:
 8006014:	8819      	ldrh	r1, [r3, #0]
 8006016:	2902      	cmp	r1, #2
 8006018:	d901      	bls.n	800601e <usb_standard_interface_get_status+0xa>
 800601a:	2102      	movs	r1, #2
 800601c:	8019      	strh	r1, [r3, #0]
 800601e:	2300      	movs	r3, #0
 8006020:	6811      	ldr	r1, [r2, #0]
 8006022:	2001      	movs	r0, #1
 8006024:	700b      	strb	r3, [r1, #0]
 8006026:	6812      	ldr	r2, [r2, #0]
 8006028:	7053      	strb	r3, [r2, #1]
 800602a:	4770      	bx	lr

0800602c <usbd_register_set_config_callback>:
{
 800602c:	b510      	push	{r4, lr}
		if (usbd_dev->user_callback_set_config[i]) {
 800602e:	0004      	movs	r4, r0
{
 8006030:	0002      	movs	r2, r0
	for (i = 0; i < MAX_USER_SET_CONFIG_CALLBACK; i++) {
 8006032:	2300      	movs	r3, #0
		if (usbd_dev->user_callback_set_config[i]) {
 8006034:	34c8      	adds	r4, #200	; 0xc8
 8006036:	0098      	lsls	r0, r3, #2
 8006038:	5820      	ldr	r0, [r4, r0]
 800603a:	2800      	cmp	r0, #0
 800603c:	d007      	beq.n	800604e <usbd_register_set_config_callback+0x22>
			if (usbd_dev->user_callback_set_config[i] == callback) {
 800603e:	4288      	cmp	r0, r1
 8006040:	d009      	beq.n	8006056 <usbd_register_set_config_callback+0x2a>
	for (i = 0; i < MAX_USER_SET_CONFIG_CALLBACK; i++) {
 8006042:	3301      	adds	r3, #1
 8006044:	2b04      	cmp	r3, #4
 8006046:	d1f6      	bne.n	8006036 <usbd_register_set_config_callback+0xa>
	return -1;
 8006048:	2001      	movs	r0, #1
 800604a:	4240      	negs	r0, r0
}
 800604c:	bd10      	pop	{r4, pc}
		usbd_dev->user_callback_set_config[i] = callback;
 800604e:	3332      	adds	r3, #50	; 0x32
 8006050:	009b      	lsls	r3, r3, #2
 8006052:	5099      	str	r1, [r3, r2]
		return 0;
 8006054:	e7fa      	b.n	800604c <usbd_register_set_config_callback+0x20>
				return 0;
 8006056:	2000      	movs	r0, #0
 8006058:	e7f8      	b.n	800604c <usbd_register_set_config_callback+0x20>
	...

0800605c <_usbd_standard_request_device>:

enum usbd_request_return_codes
_usbd_standard_request_device(usbd_device *usbd_dev,
			      struct usb_setup_data *req, uint8_t **buf,
			      uint16_t *len)
{
 800605c:	b570      	push	{r4, r5, r6, lr}
 800605e:	0005      	movs	r5, r0
 8006060:	7848      	ldrb	r0, [r1, #1]
 8006062:	2809      	cmp	r0, #9
 8006064:	d812      	bhi.n	800608c <_usbd_standard_request_device+0x30>
 8006066:	f000 fc5f 	bl	8006928 <__gnu_thumb1_case_uqi>
 800606a:	110d      	.short	0x110d
 800606c:	0f111111 	.word	0x0f111111
 8006070:	0509110b 	.word	0x0509110b
	enum usbd_request_return_codes (*command)(usbd_device *usbd_dev,
		struct usb_setup_data *req,
		uint8_t **buf, uint16_t *len) = NULL;

	switch (req->bRequest) {
 8006074:	4c06      	ldr	r4, [pc, #24]	; (8006090 <_usbd_standard_request_device+0x34>)

	if (!command) {
		return USBD_REQ_NOTSUPP;
	}

	return command(usbd_dev, req, buf, len);
 8006076:	0028      	movs	r0, r5
 8006078:	47a0      	blx	r4
}
 800607a:	bd70      	pop	{r4, r5, r6, pc}
		command = usb_standard_get_configuration;
 800607c:	4c05      	ldr	r4, [pc, #20]	; (8006094 <_usbd_standard_request_device+0x38>)
		break;
 800607e:	e7fa      	b.n	8006076 <_usbd_standard_request_device+0x1a>
		command = usb_standard_get_descriptor;
 8006080:	4c05      	ldr	r4, [pc, #20]	; (8006098 <_usbd_standard_request_device+0x3c>)
		break;
 8006082:	e7f8      	b.n	8006076 <_usbd_standard_request_device+0x1a>
		command = usb_standard_device_get_status;
 8006084:	4c05      	ldr	r4, [pc, #20]	; (800609c <_usbd_standard_request_device+0x40>)
		break;
 8006086:	e7f6      	b.n	8006076 <_usbd_standard_request_device+0x1a>
		command = usb_standard_set_address;
 8006088:	4c05      	ldr	r4, [pc, #20]	; (80060a0 <_usbd_standard_request_device+0x44>)
 800608a:	e7f4      	b.n	8006076 <_usbd_standard_request_device+0x1a>
	switch (req->bRequest) {
 800608c:	2000      	movs	r0, #0
 800608e:	e7f4      	b.n	800607a <_usbd_standard_request_device+0x1e>
 8006090:	08005ab5 	.word	0x08005ab5
 8006094:	08005b6d 	.word	0x08005b6d
 8006098:	08005cbd 	.word	0x08005cbd
 800609c:	08005be7 	.word	0x08005be7
 80060a0:	08005a7f 	.word	0x08005a7f

080060a4 <_usbd_standard_request_interface>:

enum usbd_request_return_codes
_usbd_standard_request_interface(usbd_device *usbd_dev,
				 struct usb_setup_data *req, uint8_t **buf,
				 uint16_t *len)
{
 80060a4:	b570      	push	{r4, r5, r6, lr}
	enum usbd_request_return_codes (*command)(usbd_device *usbd_dev,
		struct usb_setup_data *req,
		uint8_t **buf, uint16_t *len) = NULL;

	switch (req->bRequest) {
 80060a6:	784c      	ldrb	r4, [r1, #1]
{
 80060a8:	0005      	movs	r5, r0
	switch (req->bRequest) {
 80060aa:	2c0a      	cmp	r4, #10
 80060ac:	d008      	beq.n	80060c0 <_usbd_standard_request_interface+0x1c>
 80060ae:	2c0b      	cmp	r4, #11
 80060b0:	d008      	beq.n	80060c4 <_usbd_standard_request_interface+0x20>
 80060b2:	2000      	movs	r0, #0
 80060b4:	4284      	cmp	r4, r0
 80060b6:	d102      	bne.n	80060be <_usbd_standard_request_interface+0x1a>
		break;
	case USB_REQ_SET_INTERFACE:
		command = usb_standard_set_interface;
		break;
	case USB_REQ_GET_STATUS:
		command = usb_standard_interface_get_status;
 80060b8:	4c03      	ldr	r4, [pc, #12]	; (80060c8 <_usbd_standard_request_interface+0x24>)

	if (!command) {
		return USBD_REQ_NOTSUPP;
	}

	return command(usbd_dev, req, buf, len);
 80060ba:	0028      	movs	r0, r5
 80060bc:	47a0      	blx	r4
}
 80060be:	bd70      	pop	{r4, r5, r6, pc}
		command = usb_standard_get_interface;
 80060c0:	4c02      	ldr	r4, [pc, #8]	; (80060cc <_usbd_standard_request_interface+0x28>)
 80060c2:	e7fa      	b.n	80060ba <_usbd_standard_request_interface+0x16>
	switch (req->bRequest) {
 80060c4:	4c02      	ldr	r4, [pc, #8]	; (80060d0 <_usbd_standard_request_interface+0x2c>)
 80060c6:	e7f8      	b.n	80060ba <_usbd_standard_request_interface+0x16>
 80060c8:	08006015 	.word	0x08006015
 80060cc:	08005b97 	.word	0x08005b97
 80060d0:	08005c41 	.word	0x08005c41

080060d4 <_usbd_standard_request_endpoint>:

enum usbd_request_return_codes
_usbd_standard_request_endpoint(usbd_device *usbd_dev,
				struct usb_setup_data *req, uint8_t **buf,
				uint16_t *len)
{
 80060d4:	b570      	push	{r4, r5, r6, lr}
 80060d6:	0005      	movs	r5, r0
	enum usbd_request_return_codes (*command) (usbd_device *usbd_dev,
		struct usb_setup_data *req,
		uint8_t **buf, uint16_t *len) = NULL;

	switch (req->bRequest) {
 80060d8:	7848      	ldrb	r0, [r1, #1]
 80060da:	2801      	cmp	r0, #1
 80060dc:	d005      	beq.n	80060ea <_usbd_standard_request_endpoint+0x16>
 80060de:	2803      	cmp	r0, #3
 80060e0:	d00c      	beq.n	80060fc <_usbd_standard_request_endpoint+0x28>
 80060e2:	2800      	cmp	r0, #0
 80060e4:	d013      	beq.n	800610e <_usbd_standard_request_endpoint+0x3a>
		 */
		break;
	}

	if (!command) {
		return USBD_REQ_NOTSUPP;
 80060e6:	2000      	movs	r0, #0
	}

	return command(usbd_dev, req, buf, len);
}
 80060e8:	bd70      	pop	{r4, r5, r6, pc}
		if (req->wValue == USB_FEAT_ENDPOINT_HALT) {
 80060ea:	78c8      	ldrb	r0, [r1, #3]
 80060ec:	788c      	ldrb	r4, [r1, #2]
 80060ee:	0200      	lsls	r0, r0, #8
 80060f0:	4320      	orrs	r0, r4
			command = usb_standard_endpoint_unstall;
 80060f2:	4c08      	ldr	r4, [pc, #32]	; (8006114 <_usbd_standard_request_endpoint+0x40>)
		if (req->wValue == USB_FEAT_ENDPOINT_HALT) {
 80060f4:	d1f7      	bne.n	80060e6 <_usbd_standard_request_endpoint+0x12>
	return command(usbd_dev, req, buf, len);
 80060f6:	0028      	movs	r0, r5
 80060f8:	47a0      	blx	r4
 80060fa:	e7f5      	b.n	80060e8 <_usbd_standard_request_endpoint+0x14>
		if (req->wValue == USB_FEAT_ENDPOINT_HALT) {
 80060fc:	78cc      	ldrb	r4, [r1, #3]
 80060fe:	7888      	ldrb	r0, [r1, #2]
 8006100:	0224      	lsls	r4, r4, #8
 8006102:	4304      	orrs	r4, r0
		return USBD_REQ_NOTSUPP;
 8006104:	2000      	movs	r0, #0
		if (req->wValue == USB_FEAT_ENDPOINT_HALT) {
 8006106:	4284      	cmp	r4, r0
 8006108:	d1ee      	bne.n	80060e8 <_usbd_standard_request_endpoint+0x14>
			command = usb_standard_endpoint_stall;
 800610a:	4c03      	ldr	r4, [pc, #12]	; (8006118 <_usbd_standard_request_endpoint+0x44>)
 800610c:	e7f3      	b.n	80060f6 <_usbd_standard_request_endpoint+0x22>
	switch (req->bRequest) {
 800610e:	4c03      	ldr	r4, [pc, #12]	; (800611c <_usbd_standard_request_endpoint+0x48>)
 8006110:	e7f1      	b.n	80060f6 <_usbd_standard_request_endpoint+0x22>
 8006112:	46c0      	nop			; (mov r8, r8)
 8006114:	08005c33 	.word	0x08005c33
 8006118:	08005c25 	.word	0x08005c25
 800611c:	08005bff 	.word	0x08005bff

08006120 <_usbd_standard_request>:

enum usbd_request_return_codes
_usbd_standard_request(usbd_device *usbd_dev, struct usb_setup_data *req,
		       uint8_t **buf, uint16_t *len)
{
 8006120:	b570      	push	{r4, r5, r6, lr}
	/* FIXME: Have class/vendor requests as well. */
	if ((req->bmRequestType & USB_REQ_TYPE_TYPE) != USB_REQ_TYPE_STANDARD) {
 8006122:	780d      	ldrb	r5, [r1, #0]
 8006124:	2660      	movs	r6, #96	; 0x60
 8006126:	002c      	movs	r4, r5
 8006128:	4034      	ands	r4, r6
 800612a:	4235      	tst	r5, r6
 800612c:	d112      	bne.n	8006154 <_usbd_standard_request+0x34>
		return USBD_REQ_NOTSUPP;
	}

	switch (req->bmRequestType & USB_REQ_TYPE_RECIPIENT) {
 800612e:	3e41      	subs	r6, #65	; 0x41
 8006130:	4035      	ands	r5, r6
 8006132:	2d01      	cmp	r5, #1
 8006134:	d008      	beq.n	8006148 <_usbd_standard_request+0x28>
 8006136:	2d02      	cmp	r5, #2
 8006138:	d009      	beq.n	800614e <_usbd_standard_request+0x2e>
 800613a:	2d00      	cmp	r5, #0
 800613c:	d102      	bne.n	8006144 <_usbd_standard_request+0x24>
	case USB_REQ_TYPE_DEVICE:
		return _usbd_standard_request_device(usbd_dev, req, buf, len);
 800613e:	f7ff ff8d 	bl	800605c <_usbd_standard_request_device>
	case USB_REQ_TYPE_INTERFACE:
		return _usbd_standard_request_interface(usbd_dev, req,
							buf, len);
	case USB_REQ_TYPE_ENDPOINT:
		return _usbd_standard_request_endpoint(usbd_dev, req, buf, len);
 8006142:	0004      	movs	r4, r0
	default:
		return USBD_REQ_NOTSUPP;
	}
}
 8006144:	0020      	movs	r0, r4
 8006146:	bd70      	pop	{r4, r5, r6, pc}
		return _usbd_standard_request_interface(usbd_dev, req,
 8006148:	f7ff ffac 	bl	80060a4 <_usbd_standard_request_interface>
 800614c:	e7f9      	b.n	8006142 <_usbd_standard_request+0x22>
		return _usbd_standard_request_endpoint(usbd_dev, req, buf, len);
 800614e:	f7ff ffc1 	bl	80060d4 <_usbd_standard_request_endpoint>
 8006152:	e7f6      	b.n	8006142 <_usbd_standard_request+0x22>
		return USBD_REQ_NOTSUPP;
 8006154:	2400      	movs	r4, #0
 8006156:	e7f5      	b.n	8006144 <_usbd_standard_request+0x24>

08006158 <st_usbfs_set_address>:

void st_usbfs_set_address(usbd_device *dev, uint8_t addr)
{
	(void)dev;
	/* Set device address and enable. */
	SET_REG(USB_DADDR_REG, (addr & USB_DADDR_ADDR) | USB_DADDR_EF);
 8006158:	2380      	movs	r3, #128	; 0x80
 800615a:	4319      	orrs	r1, r3
 800615c:	4b01      	ldr	r3, [pc, #4]	; (8006164 <st_usbfs_set_address+0xc>)
 800615e:	6019      	str	r1, [r3, #0]
}
 8006160:	4770      	bx	lr
 8006162:	46c0      	nop			; (mov r8, r8)
 8006164:	40005c4c 	.word	0x40005c4c

08006168 <st_usbfs_set_ep_rx_bufsize>:
	 *	0		0		0			??? "Not allowed" according to RM0091, RM0008
	 *	1		0		1			2
	 *	61		0		31			62
	 *	63		1		1			64
	 */
	if (size > 62) {
 8006168:	2a3e      	cmp	r2, #62	; 0x3e
 800616a:	d910      	bls.n	800618e <st_usbfs_set_ep_rx_bufsize+0x26>
		/* Round up, div by 32 and sub 1 == (size + 31)/32 - 1 == (size-1)/32)*/
		size = ((size - 1) >> 5) & 0x1F;
		realsize = (size + 1) << 5;
		/* Set BL_SIZE bit (no macro for this) */
		size |= (1<<5);
 800616c:	2320      	movs	r3, #32
		size = ((size - 1) >> 5) & 0x1F;
 800616e:	3a01      	subs	r2, #1
 8006170:	0592      	lsls	r2, r2, #22
 8006172:	0ed2      	lsrs	r2, r2, #27
		realsize = (size + 1) << 5;
 8006174:	0150      	lsls	r0, r2, #5
 8006176:	3020      	adds	r0, #32
		size |= (1<<5);
 8006178:	431a      	orrs	r2, r3
		/* round up and div by 2 */
		size = (size + 1) >> 1;
		realsize = size << 1;
	}
	/* write to the BL_SIZE and NUM_BLOCK fields */
	USB_SET_EP_RX_COUNT(ep, size << 10);
 800617a:	4b07      	ldr	r3, [pc, #28]	; (8006198 <st_usbfs_set_ep_rx_bufsize+0x30>)
 800617c:	00c9      	lsls	r1, r1, #3
 800617e:	681b      	ldr	r3, [r3, #0]
 8006180:	0292      	lsls	r2, r2, #10
 8006182:	b29b      	uxth	r3, r3
 8006184:	18c9      	adds	r1, r1, r3
 8006186:	4b05      	ldr	r3, [pc, #20]	; (800619c <st_usbfs_set_ep_rx_bufsize+0x34>)
 8006188:	18c9      	adds	r1, r1, r3
 800618a:	800a      	strh	r2, [r1, #0]
	return realsize;
}
 800618c:	4770      	bx	lr
		size = (size + 1) >> 1;
 800618e:	3201      	adds	r2, #1
 8006190:	0852      	lsrs	r2, r2, #1
		realsize = size << 1;
 8006192:	0050      	lsls	r0, r2, #1
 8006194:	b280      	uxth	r0, r0
 8006196:	e7f0      	b.n	800617a <st_usbfs_set_ep_rx_bufsize+0x12>
 8006198:	40005c50 	.word	0x40005c50
 800619c:	40006006 	.word	0x40006006

080061a0 <st_usbfs_ep_setup>:

void st_usbfs_ep_setup(usbd_device *dev, uint8_t addr, uint8_t type,
		uint16_t max_size,
		void (*callback) (usbd_device *usbd_dev,
		uint8_t ep))
{
 80061a0:	b5f0      	push	{r4, r5, r6, r7, lr}
 80061a2:	0005      	movs	r5, r0
	/* Translate USB standard type codes to STM32. */
	const uint16_t typelookup[] = {
 80061a4:	4837      	ldr	r0, [pc, #220]	; (8006284 <st_usbfs_ep_setup+0xe4>)
{
 80061a6:	b085      	sub	sp, #20
	const uint16_t typelookup[] = {
 80061a8:	9002      	str	r0, [sp, #8]
 80061aa:	20c0      	movs	r0, #192	; 0xc0
		[USB_ENDPOINT_ATTR_ISOCHRONOUS] = USB_EP_TYPE_ISO,
		[USB_ENDPOINT_ATTR_BULK] = USB_EP_TYPE_BULK,
		[USB_ENDPOINT_ATTR_INTERRUPT] = USB_EP_TYPE_INTERRUPT,
	};
	uint8_t dir = addr & 0x80;
	addr &= 0x7f;
 80061ac:	267f      	movs	r6, #127	; 0x7f
	const uint16_t typelookup[] = {
 80061ae:	04c0      	lsls	r0, r0, #19
 80061b0:	9003      	str	r0, [sp, #12]
	addr &= 0x7f;
 80061b2:	400e      	ands	r6, r1

	/* Assign address. */
	USB_SET_EP_ADDR(addr, addr);
 80061b4:	4834      	ldr	r0, [pc, #208]	; (8006288 <st_usbfs_ep_setup+0xe8>)
 80061b6:	00b4      	lsls	r4, r6, #2
 80061b8:	1824      	adds	r4, r4, r0
 80061ba:	6820      	ldr	r0, [r4, #0]
 80061bc:	4f33      	ldr	r7, [pc, #204]	; (800628c <st_usbfs_ep_setup+0xec>)
	USB_SET_EP_TYPE(addr, typelookup[type]);
 80061be:	0052      	lsls	r2, r2, #1
	USB_SET_EP_ADDR(addr, addr);
 80061c0:	4038      	ands	r0, r7
 80061c2:	4330      	orrs	r0, r6
 80061c4:	b280      	uxth	r0, r0
 80061c6:	6020      	str	r0, [r4, #0]
	USB_SET_EP_TYPE(addr, typelookup[type]);
 80061c8:	6827      	ldr	r7, [r4, #0]
 80061ca:	4831      	ldr	r0, [pc, #196]	; (8006290 <st_usbfs_ep_setup+0xf0>)
 80061cc:	4038      	ands	r0, r7
 80061ce:	af02      	add	r7, sp, #8
 80061d0:	5bd2      	ldrh	r2, [r2, r7]
 80061d2:	4f30      	ldr	r7, [pc, #192]	; (8006294 <st_usbfs_ep_setup+0xf4>)
 80061d4:	4310      	orrs	r0, r2
 80061d6:	b280      	uxth	r0, r0
 80061d8:	b24a      	sxtb	r2, r1
 80061da:	6020      	str	r0, [r4, #0]

	if (dir || (addr == 0)) {
 80061dc:	4694      	mov	ip, r2
 80061de:	482e      	ldr	r0, [pc, #184]	; (8006298 <st_usbfs_ep_setup+0xf8>)
 80061e0:	2a00      	cmp	r2, #0
 80061e2:	db22      	blt.n	800622a <st_usbfs_ep_setup+0x8a>
 80061e4:	2e00      	cmp	r6, #0
 80061e6:	d020      	beq.n	800622a <st_usbfs_ep_setup+0x8a>
		dev->pm_top += max_size;
	}

	if (!dir) {
		uint16_t realsize;
		USB_SET_EP_RX_ADDR(addr, dev->pm_top);
 80061e8:	6800      	ldr	r0, [r0, #0]
 80061ea:	00f2      	lsls	r2, r6, #3
 80061ec:	b280      	uxth	r0, r0
 80061ee:	1812      	adds	r2, r2, r0
 80061f0:	482a      	ldr	r0, [pc, #168]	; (800629c <st_usbfs_ep_setup+0xfc>)
 80061f2:	8b29      	ldrh	r1, [r5, #24]
 80061f4:	1812      	adds	r2, r2, r0
 80061f6:	8011      	strh	r1, [r2, #0]
		realsize = st_usbfs_set_ep_rx_bufsize(dev, addr, max_size);
 80061f8:	0028      	movs	r0, r5
 80061fa:	001a      	movs	r2, r3
 80061fc:	0031      	movs	r1, r6
 80061fe:	f7ff ffb3 	bl	8006168 <st_usbfs_set_ep_rx_bufsize>
		if (callback) {
 8006202:	9b0a      	ldr	r3, [sp, #40]	; 0x28
 8006204:	2b00      	cmp	r3, #0
 8006206:	d136      	bne.n	8006276 <st_usbfs_ep_setup+0xd6>
			dev->user_callback_ctr[addr][USB_TRANSACTION_OUT] =
			    (void *)callback;
		}
		USB_CLR_EP_RX_DTOG(addr);
 8006208:	6823      	ldr	r3, [r4, #0]
 800620a:	4a25      	ldr	r2, [pc, #148]	; (80062a0 <st_usbfs_ep_setup+0x100>)
 800620c:	4013      	ands	r3, r2
 800620e:	6023      	str	r3, [r4, #0]
		USB_SET_EP_RX_STAT(addr, USB_EP_RX_STAT_VALID);
 8006210:	6823      	ldr	r3, [r4, #0]
 8006212:	4a24      	ldr	r2, [pc, #144]	; (80062a4 <st_usbfs_ep_setup+0x104>)
 8006214:	401a      	ands	r2, r3
 8006216:	23c0      	movs	r3, #192	; 0xc0
 8006218:	019b      	lsls	r3, r3, #6
 800621a:	4053      	eors	r3, r2
 800621c:	433b      	orrs	r3, r7
 800621e:	b29b      	uxth	r3, r3
 8006220:	6023      	str	r3, [r4, #0]
		dev->pm_top += realsize;
 8006222:	8b2b      	ldrh	r3, [r5, #24]
 8006224:	18c0      	adds	r0, r0, r3
 8006226:	8328      	strh	r0, [r5, #24]
	}
}
 8006228:	e023      	b.n	8006272 <st_usbfs_ep_setup+0xd2>
		USB_SET_EP_TX_ADDR(addr, dev->pm_top);
 800622a:	6802      	ldr	r2, [r0, #0]
 800622c:	8b29      	ldrh	r1, [r5, #24]
 800622e:	b292      	uxth	r2, r2
 8006230:	9101      	str	r1, [sp, #4]
 8006232:	00f1      	lsls	r1, r6, #3
 8006234:	1889      	adds	r1, r1, r2
 8006236:	4a1c      	ldr	r2, [pc, #112]	; (80062a8 <st_usbfs_ep_setup+0x108>)
 8006238:	1889      	adds	r1, r1, r2
 800623a:	9a01      	ldr	r2, [sp, #4]
 800623c:	800a      	strh	r2, [r1, #0]
		if (callback) {
 800623e:	9a0a      	ldr	r2, [sp, #40]	; 0x28
 8006240:	2a00      	cmp	r2, #0
 8006242:	d004      	beq.n	800624e <st_usbfs_ep_setup+0xae>
			dev->user_callback_ctr[addr][USB_TRANSACTION_IN] =
 8006244:	220c      	movs	r2, #12
 8006246:	4372      	muls	r2, r6
 8006248:	990a      	ldr	r1, [sp, #40]	; 0x28
 800624a:	18aa      	adds	r2, r5, r2
 800624c:	6691      	str	r1, [r2, #104]	; 0x68
		USB_CLR_EP_TX_DTOG(addr);
 800624e:	6822      	ldr	r2, [r4, #0]
 8006250:	4916      	ldr	r1, [pc, #88]	; (80062ac <st_usbfs_ep_setup+0x10c>)
 8006252:	400a      	ands	r2, r1
 8006254:	6022      	str	r2, [r4, #0]
		USB_SET_EP_TX_STAT(addr, USB_EP_TX_STAT_NAK);
 8006256:	6822      	ldr	r2, [r4, #0]
 8006258:	4915      	ldr	r1, [pc, #84]	; (80062b0 <st_usbfs_ep_setup+0x110>)
 800625a:	4011      	ands	r1, r2
 800625c:	2220      	movs	r2, #32
 800625e:	404a      	eors	r2, r1
 8006260:	433a      	orrs	r2, r7
 8006262:	b292      	uxth	r2, r2
 8006264:	6022      	str	r2, [r4, #0]
		dev->pm_top += max_size;
 8006266:	8b2a      	ldrh	r2, [r5, #24]
 8006268:	189a      	adds	r2, r3, r2
 800626a:	832a      	strh	r2, [r5, #24]
	if (!dir) {
 800626c:	4662      	mov	r2, ip
 800626e:	2a00      	cmp	r2, #0
 8006270:	daba      	bge.n	80061e8 <st_usbfs_ep_setup+0x48>
}
 8006272:	b005      	add	sp, #20
 8006274:	bdf0      	pop	{r4, r5, r6, r7, pc}
			dev->user_callback_ctr[addr][USB_TRANSACTION_OUT] =
 8006276:	230c      	movs	r3, #12
 8006278:	435e      	muls	r6, r3
 800627a:	9b0a      	ldr	r3, [sp, #40]	; 0x28
 800627c:	19ae      	adds	r6, r5, r6
 800627e:	66f3      	str	r3, [r6, #108]	; 0x6c
 8006280:	e7c2      	b.n	8006208 <st_usbfs_ep_setup+0x68>
 8006282:	46c0      	nop			; (mov r8, r8)
 8006284:	04000200 	.word	0x04000200
 8006288:	40005c00 	.word	0x40005c00
 800628c:	ffff8f80 	.word	0xffff8f80
 8006290:	ffff898f 	.word	0xffff898f
 8006294:	ffff8080 	.word	0xffff8080
 8006298:	40005c50 	.word	0x40005c50
 800629c:	40006004 	.word	0x40006004
 80062a0:	0000cf8f 	.word	0x0000cf8f
 80062a4:	0000bf8f 	.word	0x0000bf8f
 80062a8:	40006000 	.word	0x40006000
 80062ac:	00008fcf 	.word	0x00008fcf
 80062b0:	00008fbf 	.word	0x00008fbf

080062b4 <st_usbfs_endpoints_reset>:

void st_usbfs_endpoints_reset(usbd_device *dev)
{
 80062b4:	b570      	push	{r4, r5, r6, lr}
 80062b6:	4a0b      	ldr	r2, [pc, #44]	; (80062e4 <st_usbfs_endpoints_reset+0x30>)
	int i;

	/* Reset all endpoints. */
	for (i = 1; i < 8; i++) {
		USB_SET_EP_TX_STAT(i, USB_EP_TX_STAT_DISABLED);
 80062b8:	4e0b      	ldr	r6, [pc, #44]	; (80062e8 <st_usbfs_endpoints_reset+0x34>)
 80062ba:	490c      	ldr	r1, [pc, #48]	; (80062ec <st_usbfs_endpoints_reset+0x38>)
		USB_SET_EP_RX_STAT(i, USB_EP_RX_STAT_DISABLED);
 80062bc:	4d0c      	ldr	r5, [pc, #48]	; (80062f0 <st_usbfs_endpoints_reset+0x3c>)
	for (i = 1; i < 8; i++) {
 80062be:	4c0d      	ldr	r4, [pc, #52]	; (80062f4 <st_usbfs_endpoints_reset+0x40>)
		USB_SET_EP_TX_STAT(i, USB_EP_TX_STAT_DISABLED);
 80062c0:	6813      	ldr	r3, [r2, #0]
 80062c2:	4033      	ands	r3, r6
 80062c4:	430b      	orrs	r3, r1
 80062c6:	b29b      	uxth	r3, r3
 80062c8:	6013      	str	r3, [r2, #0]
		USB_SET_EP_RX_STAT(i, USB_EP_RX_STAT_DISABLED);
 80062ca:	6813      	ldr	r3, [r2, #0]
 80062cc:	402b      	ands	r3, r5
 80062ce:	430b      	orrs	r3, r1
 80062d0:	b29b      	uxth	r3, r3
 80062d2:	c208      	stmia	r2!, {r3}
	for (i = 1; i < 8; i++) {
 80062d4:	42a2      	cmp	r2, r4
 80062d6:	d1f3      	bne.n	80062c0 <st_usbfs_endpoints_reset+0xc>
	}
	dev->pm_top = USBD_PM_TOP + (2 * dev->desc->bMaxPacketSize0);
 80062d8:	6803      	ldr	r3, [r0, #0]
 80062da:	79db      	ldrb	r3, [r3, #7]
 80062dc:	3320      	adds	r3, #32
 80062de:	005b      	lsls	r3, r3, #1
 80062e0:	8303      	strh	r3, [r0, #24]
}
 80062e2:	bd70      	pop	{r4, r5, r6, pc}
 80062e4:	40005c04 	.word	0x40005c04
 80062e8:	ffff8fbf 	.word	0xffff8fbf
 80062ec:	ffff8080 	.word	0xffff8080
 80062f0:	ffffbf8f 	.word	0xffffbf8f
 80062f4:	40005c20 	.word	0x40005c20

080062f8 <st_usbfs_ep_stall_set>:

void st_usbfs_ep_stall_set(usbd_device *dev, uint8_t addr,
				   uint8_t stall)
{
 80062f8:	b530      	push	{r4, r5, lr}
 80062fa:	4822      	ldr	r0, [pc, #136]	; (8006384 <st_usbfs_ep_stall_set+0x8c>)
	(void)dev;
	if (addr == 0) {
 80062fc:	2900      	cmp	r1, #0
 80062fe:	d126      	bne.n	800634e <st_usbfs_ep_stall_set+0x56>
		USB_SET_EP_TX_STAT(addr, stall ? USB_EP_TX_STAT_STALL :
 8006300:	4c21      	ldr	r4, [pc, #132]	; (8006388 <st_usbfs_ep_stall_set+0x90>)
 8006302:	4d22      	ldr	r5, [pc, #136]	; (800638c <st_usbfs_ep_stall_set+0x94>)
 8006304:	6823      	ldr	r3, [r4, #0]
 8006306:	401d      	ands	r5, r3
 8006308:	2310      	movs	r3, #16
 800630a:	2a00      	cmp	r2, #0
 800630c:	d100      	bne.n	8006310 <st_usbfs_ep_stall_set+0x18>
 800630e:	18db      	adds	r3, r3, r3
 8006310:	406b      	eors	r3, r5
 8006312:	b21b      	sxth	r3, r3
 8006314:	4303      	orrs	r3, r0
 8006316:	b29b      	uxth	r3, r3
 8006318:	6023      	str	r3, [r4, #0]
		if (!stall) {
			USB_CLR_EP_TX_DTOG(addr);
		}
	} else {
		/* Reset to DATA0 if clearing stall condition. */
		if (!stall) {
 800631a:	4b1b      	ldr	r3, [pc, #108]	; (8006388 <st_usbfs_ep_stall_set+0x90>)
 800631c:	0089      	lsls	r1, r1, #2
 800631e:	18c9      	adds	r1, r1, r3
 8006320:	2a00      	cmp	r2, #0
 8006322:	d103      	bne.n	800632c <st_usbfs_ep_stall_set+0x34>
			USB_CLR_EP_RX_DTOG(addr);
 8006324:	680b      	ldr	r3, [r1, #0]
 8006326:	4c1a      	ldr	r4, [pc, #104]	; (8006390 <st_usbfs_ep_stall_set+0x98>)
 8006328:	4023      	ands	r3, r4
 800632a:	600b      	str	r3, [r1, #0]
		}

		USB_SET_EP_RX_STAT(addr, stall ? USB_EP_RX_STAT_STALL :
 800632c:	680c      	ldr	r4, [r1, #0]
 800632e:	4b19      	ldr	r3, [pc, #100]	; (8006394 <st_usbfs_ep_stall_set+0x9c>)
 8006330:	401c      	ands	r4, r3
 8006332:	0013      	movs	r3, r2
 8006334:	1e5a      	subs	r2, r3, #1
 8006336:	4193      	sbcs	r3, r2
 8006338:	425a      	negs	r2, r3
 800633a:	23c0      	movs	r3, #192	; 0xc0
 800633c:	0352      	lsls	r2, r2, #13
 800633e:	019b      	lsls	r3, r3, #6
 8006340:	18d2      	adds	r2, r2, r3
 8006342:	4062      	eors	r2, r4
 8006344:	b212      	sxth	r2, r2
 8006346:	4302      	orrs	r2, r0
 8006348:	b292      	uxth	r2, r2
 800634a:	600a      	str	r2, [r1, #0]
				   USB_EP_RX_STAT_VALID);
	}
}
 800634c:	e019      	b.n	8006382 <st_usbfs_ep_stall_set+0x8a>
	if (addr & 0x80) {
 800634e:	b24b      	sxtb	r3, r1
 8006350:	2b00      	cmp	r3, #0
 8006352:	dae2      	bge.n	800631a <st_usbfs_ep_stall_set+0x22>
		USB_SET_EP_TX_STAT(addr, stall ? USB_EP_TX_STAT_STALL :
 8006354:	237f      	movs	r3, #127	; 0x7f
 8006356:	4019      	ands	r1, r3
 8006358:	4b0b      	ldr	r3, [pc, #44]	; (8006388 <st_usbfs_ep_stall_set+0x90>)
 800635a:	0089      	lsls	r1, r1, #2
 800635c:	18c9      	adds	r1, r1, r3
 800635e:	680b      	ldr	r3, [r1, #0]
 8006360:	4c0a      	ldr	r4, [pc, #40]	; (800638c <st_usbfs_ep_stall_set+0x94>)
 8006362:	401c      	ands	r4, r3
 8006364:	2310      	movs	r3, #16
 8006366:	2a00      	cmp	r2, #0
 8006368:	d100      	bne.n	800636c <st_usbfs_ep_stall_set+0x74>
 800636a:	18db      	adds	r3, r3, r3
 800636c:	4063      	eors	r3, r4
 800636e:	b21b      	sxth	r3, r3
 8006370:	4318      	orrs	r0, r3
 8006372:	b280      	uxth	r0, r0
 8006374:	6008      	str	r0, [r1, #0]
		if (!stall) {
 8006376:	2a00      	cmp	r2, #0
 8006378:	d103      	bne.n	8006382 <st_usbfs_ep_stall_set+0x8a>
			USB_CLR_EP_TX_DTOG(addr);
 800637a:	680b      	ldr	r3, [r1, #0]
 800637c:	4a06      	ldr	r2, [pc, #24]	; (8006398 <st_usbfs_ep_stall_set+0xa0>)
 800637e:	4013      	ands	r3, r2
 8006380:	600b      	str	r3, [r1, #0]
}
 8006382:	bd30      	pop	{r4, r5, pc}
 8006384:	ffff8080 	.word	0xffff8080
 8006388:	40005c00 	.word	0x40005c00
 800638c:	00008fbf 	.word	0x00008fbf
 8006390:	0000cf8f 	.word	0x0000cf8f
 8006394:	0000bf8f 	.word	0x0000bf8f
 8006398:	00008fcf 	.word	0x00008fcf

0800639c <st_usbfs_ep_stall_get>:

uint8_t st_usbfs_ep_stall_get(usbd_device *dev, uint8_t addr)
{
	(void)dev;
	if (addr & 0x80) {
 800639c:	b24b      	sxtb	r3, r1
 800639e:	2b00      	cmp	r3, #0
 80063a0:	da0c      	bge.n	80063bc <st_usbfs_ep_stall_get+0x20>
		if ((*USB_EP_REG(addr & 0x7F) & USB_EP_TX_STAT) ==
 80063a2:	237f      	movs	r3, #127	; 0x7f
 80063a4:	4019      	ands	r1, r3
 80063a6:	4b0a      	ldr	r3, [pc, #40]	; (80063d0 <st_usbfs_ep_stall_get+0x34>)
 80063a8:	0089      	lsls	r1, r1, #2
 80063aa:	18c9      	adds	r1, r1, r3
 80063ac:	2330      	movs	r3, #48	; 0x30
 80063ae:	6808      	ldr	r0, [r1, #0]
 80063b0:	4018      	ands	r0, r3
 80063b2:	3810      	subs	r0, #16
		    USB_EP_TX_STAT_STALL) {
			return 1;
		}
	} else {
		if ((*USB_EP_REG(addr) & USB_EP_RX_STAT) ==
 80063b4:	4243      	negs	r3, r0
 80063b6:	4158      	adcs	r0, r3
			return 1;
 80063b8:	b2c0      	uxtb	r0, r0
		    USB_EP_RX_STAT_STALL) {
			return 1;
		}
	}
	return 0;
}
 80063ba:	4770      	bx	lr
		if ((*USB_EP_REG(addr) & USB_EP_RX_STAT) ==
 80063bc:	4b04      	ldr	r3, [pc, #16]	; (80063d0 <st_usbfs_ep_stall_get+0x34>)
 80063be:	0089      	lsls	r1, r1, #2
 80063c0:	18c9      	adds	r1, r1, r3
 80063c2:	23c0      	movs	r3, #192	; 0xc0
 80063c4:	6808      	ldr	r0, [r1, #0]
 80063c6:	019b      	lsls	r3, r3, #6
 80063c8:	4018      	ands	r0, r3
 80063ca:	4b02      	ldr	r3, [pc, #8]	; (80063d4 <st_usbfs_ep_stall_get+0x38>)
 80063cc:	18c0      	adds	r0, r0, r3
 80063ce:	e7f1      	b.n	80063b4 <st_usbfs_ep_stall_get+0x18>
 80063d0:	40005c00 	.word	0x40005c00
 80063d4:	fffff000 	.word	0xfffff000

080063d8 <st_usbfs_ep_nak_set>:

void st_usbfs_ep_nak_set(usbd_device *dev, uint8_t addr, uint8_t nak)
{
	(void)dev;
	/* It does not make sense to force NAK on IN endpoints. */
	if (addr & 0x80) {
 80063d8:	b24b      	sxtb	r3, r1
{
 80063da:	b510      	push	{r4, lr}
	if (addr & 0x80) {
 80063dc:	2b00      	cmp	r3, #0
 80063de:	db11      	blt.n	8006404 <st_usbfs_ep_nak_set+0x2c>
		return;
	}

	st_usbfs_force_nak[addr] = nak;
 80063e0:	4b0c      	ldr	r3, [pc, #48]	; (8006414 <st_usbfs_ep_nak_set+0x3c>)
 80063e2:	4c0d      	ldr	r4, [pc, #52]	; (8006418 <st_usbfs_ep_nak_set+0x40>)
 80063e4:	545a      	strb	r2, [r3, r1]

	if (nak) {
 80063e6:	4b0d      	ldr	r3, [pc, #52]	; (800641c <st_usbfs_ep_nak_set+0x44>)
 80063e8:	0089      	lsls	r1, r1, #2
 80063ea:	480d      	ldr	r0, [pc, #52]	; (8006420 <st_usbfs_ep_nak_set+0x48>)
 80063ec:	18c9      	adds	r1, r1, r3
 80063ee:	2a00      	cmp	r2, #0
 80063f0:	d009      	beq.n	8006406 <st_usbfs_ep_nak_set+0x2e>
		USB_SET_EP_RX_STAT(addr, USB_EP_RX_STAT_NAK);
 80063f2:	2380      	movs	r3, #128	; 0x80
 80063f4:	680a      	ldr	r2, [r1, #0]
 80063f6:	019b      	lsls	r3, r3, #6
 80063f8:	4022      	ands	r2, r4
 80063fa:	b292      	uxth	r2, r2
	} else {
		USB_SET_EP_RX_STAT(addr, USB_EP_RX_STAT_VALID);
 80063fc:	4053      	eors	r3, r2
 80063fe:	4303      	orrs	r3, r0
 8006400:	b29b      	uxth	r3, r3
 8006402:	600b      	str	r3, [r1, #0]
	}
}
 8006404:	bd10      	pop	{r4, pc}
		USB_SET_EP_RX_STAT(addr, USB_EP_RX_STAT_VALID);
 8006406:	22c0      	movs	r2, #192	; 0xc0
 8006408:	680b      	ldr	r3, [r1, #0]
 800640a:	0192      	lsls	r2, r2, #6
 800640c:	4023      	ands	r3, r4
 800640e:	b29b      	uxth	r3, r3
 8006410:	e7f4      	b.n	80063fc <st_usbfs_ep_nak_set+0x24>
 8006412:	46c0      	nop			; (mov r8, r8)
 8006414:	2000056c 	.word	0x2000056c
 8006418:	ffffbf8f 	.word	0xffffbf8f
 800641c:	40005c00 	.word	0x40005c00
 8006420:	ffff8080 	.word	0xffff8080

08006424 <st_usbfs_ep_write_packet>:

uint16_t st_usbfs_ep_write_packet(usbd_device *dev, uint8_t addr,
				     const void *buf, uint16_t len)
{
 8006424:	b5f8      	push	{r3, r4, r5, r6, r7, lr}
 8006426:	000c      	movs	r4, r1
 8006428:	001d      	movs	r5, r3
	(void)dev;
	addr &= 0x7F;
 800642a:	237f      	movs	r3, #127	; 0x7f
{
 800642c:	0011      	movs	r1, r2

	if ((*USB_EP_REG(addr) & USB_EP_TX_STAT) == USB_EP_TX_STAT_VALID) {
 800642e:	2230      	movs	r2, #48	; 0x30
	addr &= 0x7F;
 8006430:	401c      	ands	r4, r3
	if ((*USB_EP_REG(addr) & USB_EP_TX_STAT) == USB_EP_TX_STAT_VALID) {
 8006432:	4b13      	ldr	r3, [pc, #76]	; (8006480 <st_usbfs_ep_write_packet+0x5c>)
 8006434:	00a6      	lsls	r6, r4, #2
 8006436:	18f6      	adds	r6, r6, r3
 8006438:	6833      	ldr	r3, [r6, #0]
 800643a:	4013      	ands	r3, r2
 800643c:	4293      	cmp	r3, r2
 800643e:	d01c      	beq.n	800647a <st_usbfs_ep_write_packet+0x56>
		return 0;
	}

	st_usbfs_copy_to_pm(USB_GET_EP_TX_BUFF(addr), buf, len);
 8006440:	4810      	ldr	r0, [pc, #64]	; (8006484 <st_usbfs_ep_write_packet+0x60>)
 8006442:	4f11      	ldr	r7, [pc, #68]	; (8006488 <st_usbfs_ep_write_packet+0x64>)
 8006444:	0002      	movs	r2, r0
 8006446:	683b      	ldr	r3, [r7, #0]
 8006448:	00e4      	lsls	r4, r4, #3
 800644a:	b29b      	uxth	r3, r3
 800644c:	18e3      	adds	r3, r4, r3
 800644e:	181b      	adds	r3, r3, r0
 8006450:	8818      	ldrh	r0, [r3, #0]
 8006452:	1880      	adds	r0, r0, r2
 8006454:	002a      	movs	r2, r5
 8006456:	f000 f921 	bl	800669c <st_usbfs_copy_to_pm>
	USB_SET_EP_TX_COUNT(addr, len);
 800645a:	6839      	ldr	r1, [r7, #0]
 800645c:	4b0b      	ldr	r3, [pc, #44]	; (800648c <st_usbfs_ep_write_packet+0x68>)
 800645e:	b289      	uxth	r1, r1
 8006460:	1864      	adds	r4, r4, r1
	USB_SET_EP_TX_STAT(addr, USB_EP_TX_STAT_VALID);
 8006462:	4a0b      	ldr	r2, [pc, #44]	; (8006490 <st_usbfs_ep_write_packet+0x6c>)
	USB_SET_EP_TX_COUNT(addr, len);
 8006464:	18e4      	adds	r4, r4, r3
	USB_SET_EP_TX_STAT(addr, USB_EP_TX_STAT_VALID);
 8006466:	6833      	ldr	r3, [r6, #0]
	USB_SET_EP_TX_COUNT(addr, len);
 8006468:	8025      	strh	r5, [r4, #0]
	USB_SET_EP_TX_STAT(addr, USB_EP_TX_STAT_VALID);
 800646a:	4013      	ands	r3, r2
 800646c:	2230      	movs	r2, #48	; 0x30
 800646e:	4053      	eors	r3, r2
 8006470:	4a08      	ldr	r2, [pc, #32]	; (8006494 <st_usbfs_ep_write_packet+0x70>)
 8006472:	4313      	orrs	r3, r2
 8006474:	6033      	str	r3, [r6, #0]

	return len;
}
 8006476:	0028      	movs	r0, r5
 8006478:	bdf8      	pop	{r3, r4, r5, r6, r7, pc}
		return 0;
 800647a:	2500      	movs	r5, #0
 800647c:	e7fb      	b.n	8006476 <st_usbfs_ep_write_packet+0x52>
 800647e:	46c0      	nop			; (mov r8, r8)
 8006480:	40005c00 	.word	0x40005c00
 8006484:	40006000 	.word	0x40006000
 8006488:	40005c50 	.word	0x40005c50
 800648c:	40006002 	.word	0x40006002
 8006490:	00008fbf 	.word	0x00008fbf
 8006494:	00008080 	.word	0x00008080

08006498 <st_usbfs_ep_read_packet>:

uint16_t st_usbfs_ep_read_packet(usbd_device *dev, uint8_t addr,
					 void *buf, uint16_t len)
{
 8006498:	0010      	movs	r0, r2
	(void)dev;
	if ((*USB_EP_REG(addr) & USB_EP_RX_STAT) == USB_EP_RX_STAT_VALID) {
 800649a:	22c0      	movs	r2, #192	; 0xc0
{
 800649c:	b5f8      	push	{r3, r4, r5, r6, r7, lr}
 800649e:	001c      	movs	r4, r3
	if ((*USB_EP_REG(addr) & USB_EP_RX_STAT) == USB_EP_RX_STAT_VALID) {
 80064a0:	4b1e      	ldr	r3, [pc, #120]	; (800651c <st_usbfs_ep_read_packet+0x84>)
 80064a2:	008d      	lsls	r5, r1, #2
 80064a4:	18ed      	adds	r5, r5, r3
 80064a6:	682b      	ldr	r3, [r5, #0]
 80064a8:	0192      	lsls	r2, r2, #6
{
 80064aa:	000f      	movs	r7, r1
	if ((*USB_EP_REG(addr) & USB_EP_RX_STAT) == USB_EP_RX_STAT_VALID) {
 80064ac:	4013      	ands	r3, r2
 80064ae:	4293      	cmp	r3, r2
 80064b0:	d032      	beq.n	8006518 <st_usbfs_ep_read_packet+0x80>
		return 0;
	}

	len = MIN(USB_GET_EP_RX_COUNT(addr) & 0x3ff, len);
 80064b2:	4a1b      	ldr	r2, [pc, #108]	; (8006520 <st_usbfs_ep_read_packet+0x88>)
 80064b4:	00ce      	lsls	r6, r1, #3
 80064b6:	6813      	ldr	r3, [r2, #0]
 80064b8:	491a      	ldr	r1, [pc, #104]	; (8006524 <st_usbfs_ep_read_packet+0x8c>)
 80064ba:	b29b      	uxth	r3, r3
 80064bc:	18f3      	adds	r3, r6, r3
 80064be:	185b      	adds	r3, r3, r1
 80064c0:	881b      	ldrh	r3, [r3, #0]
 80064c2:	059b      	lsls	r3, r3, #22
 80064c4:	0d9b      	lsrs	r3, r3, #22
 80064c6:	429c      	cmp	r4, r3
 80064c8:	d906      	bls.n	80064d8 <st_usbfs_ep_read_packet+0x40>
 80064ca:	6813      	ldr	r3, [r2, #0]
 80064cc:	b29b      	uxth	r3, r3
 80064ce:	18f3      	adds	r3, r6, r3
 80064d0:	185b      	adds	r3, r3, r1
 80064d2:	881c      	ldrh	r4, [r3, #0]
 80064d4:	05a4      	lsls	r4, r4, #22
 80064d6:	0da4      	lsrs	r4, r4, #22
	st_usbfs_copy_from_pm(buf, USB_GET_EP_RX_BUFF(addr), len);
 80064d8:	6813      	ldr	r3, [r2, #0]
 80064da:	0022      	movs	r2, r4
 80064dc:	b29b      	uxth	r3, r3
 80064de:	18f6      	adds	r6, r6, r3
 80064e0:	4b11      	ldr	r3, [pc, #68]	; (8006528 <st_usbfs_ep_read_packet+0x90>)
 80064e2:	18f6      	adds	r6, r6, r3
 80064e4:	8831      	ldrh	r1, [r6, #0]
 80064e6:	4b11      	ldr	r3, [pc, #68]	; (800652c <st_usbfs_ep_read_packet+0x94>)
 80064e8:	18c9      	adds	r1, r1, r3
 80064ea:	f000 f8e5 	bl	80066b8 <st_usbfs_copy_from_pm>
	USB_CLR_EP_RX_CTR(addr);
 80064ee:	682b      	ldr	r3, [r5, #0]
 80064f0:	4a0f      	ldr	r2, [pc, #60]	; (8006530 <st_usbfs_ep_read_packet+0x98>)
 80064f2:	401a      	ands	r2, r3
 80064f4:	2380      	movs	r3, #128	; 0x80
 80064f6:	4313      	orrs	r3, r2
 80064f8:	602b      	str	r3, [r5, #0]

	if (!st_usbfs_force_nak[addr]) {
 80064fa:	4b0e      	ldr	r3, [pc, #56]	; (8006534 <st_usbfs_ep_read_packet+0x9c>)
 80064fc:	5ddb      	ldrb	r3, [r3, r7]
 80064fe:	2b00      	cmp	r3, #0
 8006500:	d108      	bne.n	8006514 <st_usbfs_ep_read_packet+0x7c>
		USB_SET_EP_RX_STAT(addr, USB_EP_RX_STAT_VALID);
 8006502:	682b      	ldr	r3, [r5, #0]
 8006504:	4a0c      	ldr	r2, [pc, #48]	; (8006538 <st_usbfs_ep_read_packet+0xa0>)
 8006506:	401a      	ands	r2, r3
 8006508:	23c0      	movs	r3, #192	; 0xc0
 800650a:	019b      	lsls	r3, r3, #6
 800650c:	4053      	eors	r3, r2
 800650e:	4a0b      	ldr	r2, [pc, #44]	; (800653c <st_usbfs_ep_read_packet+0xa4>)
 8006510:	4313      	orrs	r3, r2
 8006512:	602b      	str	r3, [r5, #0]
	}

	return len;
}
 8006514:	0020      	movs	r0, r4
 8006516:	bdf8      	pop	{r3, r4, r5, r6, r7, pc}
		return 0;
 8006518:	2400      	movs	r4, #0
 800651a:	e7fb      	b.n	8006514 <st_usbfs_ep_read_packet+0x7c>
 800651c:	40005c00 	.word	0x40005c00
 8006520:	40005c50 	.word	0x40005c50
 8006524:	40006006 	.word	0x40006006
 8006528:	40006004 	.word	0x40006004
 800652c:	40006000 	.word	0x40006000
 8006530:	00000f0f 	.word	0x00000f0f
 8006534:	2000056c 	.word	0x2000056c
 8006538:	0000bf8f 	.word	0x0000bf8f
 800653c:	00008080 	.word	0x00008080

08006540 <st_usbfs_poll>:

void st_usbfs_poll(usbd_device *dev)
{
 8006540:	b5f7      	push	{r0, r1, r2, r4, r5, r6, r7, lr}
	uint16_t istr = *USB_ISTR_REG;
 8006542:	4b35      	ldr	r3, [pc, #212]	; (8006618 <st_usbfs_poll+0xd8>)
{
 8006544:	0004      	movs	r4, r0
	uint16_t istr = *USB_ISTR_REG;
 8006546:	681d      	ldr	r5, [r3, #0]

	if (istr & USB_ISTR_RESET) {
 8006548:	001f      	movs	r7, r3
 800654a:	b2aa      	uxth	r2, r5
 800654c:	9201      	str	r2, [sp, #4]
 800654e:	056a      	lsls	r2, r5, #21
 8006550:	d506      	bpl.n	8006560 <st_usbfs_poll+0x20>
		USB_CLR_ISTR_RESET();
 8006552:	4a32      	ldr	r2, [pc, #200]	; (800661c <st_usbfs_poll+0xdc>)
 8006554:	601a      	str	r2, [r3, #0]
		dev->pm_top = USBD_PM_TOP;
 8006556:	2340      	movs	r3, #64	; 0x40
 8006558:	8303      	strh	r3, [r0, #24]
		_usbd_reset(dev);
 800655a:	f7ff f8e0 	bl	800571e <_usbd_reset>
	if (dev->user_callback_sof) {
		*USB_CNTR_REG |= USB_CNTR_SOFM;
	} else {
		*USB_CNTR_REG &= ~USB_CNTR_SOFM;
	}
}
 800655e:	bdf7      	pop	{r0, r1, r2, r4, r5, r6, r7, pc}
	if (istr & USB_ISTR_CTR) {
 8006560:	042b      	lsls	r3, r5, #16
 8006562:	d520      	bpl.n	80065a6 <st_usbfs_poll+0x66>
		uint8_t ep = istr & USB_ISTR_EP_ID;
 8006564:	230f      	movs	r3, #15
		if (istr & USB_ISTR_DIR) {
 8006566:	2210      	movs	r2, #16
		uint8_t ep = istr & USB_ISTR_EP_ID;
 8006568:	401d      	ands	r5, r3
		if (istr & USB_ISTR_DIR) {
 800656a:	4b2d      	ldr	r3, [pc, #180]	; (8006620 <st_usbfs_poll+0xe0>)
 800656c:	00ae      	lsls	r6, r5, #2
 800656e:	18f6      	adds	r6, r6, r3
 8006570:	9901      	ldr	r1, [sp, #4]
 8006572:	9b01      	ldr	r3, [sp, #4]
 8006574:	4013      	ands	r3, r2
 8006576:	4211      	tst	r1, r2
 8006578:	d03a      	beq.n	80065f0 <st_usbfs_poll+0xb0>
			if (*USB_EP_REG(ep) & USB_EP_SETUP) {
 800657a:	6833      	ldr	r3, [r6, #0]
				type = USB_TRANSACTION_OUT;
 800657c:	3a0f      	subs	r2, #15
			if (*USB_EP_REG(ep) & USB_EP_SETUP) {
 800657e:	051b      	lsls	r3, r3, #20
 8006580:	d506      	bpl.n	8006590 <st_usbfs_poll+0x50>
				st_usbfs_ep_read_packet(dev, ep, &dev->control_state.req, 8);
 8006582:	0002      	movs	r2, r0
 8006584:	2308      	movs	r3, #8
 8006586:	3230      	adds	r2, #48	; 0x30
 8006588:	0029      	movs	r1, r5
 800658a:	f7ff ff85 	bl	8006498 <st_usbfs_ep_read_packet>
				type = USB_TRANSACTION_SETUP;
 800658e:	2202      	movs	r2, #2
		if (dev->user_callback_ctr[ep][type]) {
 8006590:	2303      	movs	r3, #3
 8006592:	436b      	muls	r3, r5
 8006594:	189b      	adds	r3, r3, r2
 8006596:	331a      	adds	r3, #26
 8006598:	009b      	lsls	r3, r3, #2
 800659a:	591b      	ldr	r3, [r3, r4]
 800659c:	2b00      	cmp	r3, #0
 800659e:	d030      	beq.n	8006602 <st_usbfs_poll+0xc2>
			dev->user_callback_ctr[ep][type] (dev, ep);
 80065a0:	0029      	movs	r1, r5
 80065a2:	0020      	movs	r0, r4
 80065a4:	4798      	blx	r3
	if (istr & USB_ISTR_SUSP) {
 80065a6:	9b01      	ldr	r3, [sp, #4]
 80065a8:	051b      	lsls	r3, r3, #20
 80065aa:	d505      	bpl.n	80065b8 <st_usbfs_poll+0x78>
		USB_CLR_ISTR_SUSP();
 80065ac:	4b1d      	ldr	r3, [pc, #116]	; (8006624 <st_usbfs_poll+0xe4>)
 80065ae:	603b      	str	r3, [r7, #0]
		if (dev->user_callback_suspend) {
 80065b0:	6a23      	ldr	r3, [r4, #32]
 80065b2:	2b00      	cmp	r3, #0
 80065b4:	d000      	beq.n	80065b8 <st_usbfs_poll+0x78>
			dev->user_callback_suspend();
 80065b6:	4798      	blx	r3
	if (istr & USB_ISTR_WKUP) {
 80065b8:	9b01      	ldr	r3, [sp, #4]
 80065ba:	04db      	lsls	r3, r3, #19
 80065bc:	d505      	bpl.n	80065ca <st_usbfs_poll+0x8a>
		USB_CLR_ISTR_WKUP();
 80065be:	4b1a      	ldr	r3, [pc, #104]	; (8006628 <st_usbfs_poll+0xe8>)
 80065c0:	603b      	str	r3, [r7, #0]
		if (dev->user_callback_resume) {
 80065c2:	6a63      	ldr	r3, [r4, #36]	; 0x24
 80065c4:	2b00      	cmp	r3, #0
 80065c6:	d000      	beq.n	80065ca <st_usbfs_poll+0x8a>
			dev->user_callback_resume();
 80065c8:	4798      	blx	r3
	if (istr & USB_ISTR_SOF) {
 80065ca:	9b01      	ldr	r3, [sp, #4]
 80065cc:	4d17      	ldr	r5, [pc, #92]	; (800662c <st_usbfs_poll+0xec>)
 80065ce:	059b      	lsls	r3, r3, #22
 80065d0:	d505      	bpl.n	80065de <st_usbfs_poll+0x9e>
 80065d2:	6aa3      	ldr	r3, [r4, #40]	; 0x28
		USB_CLR_ISTR_SOF();
 80065d4:	4a16      	ldr	r2, [pc, #88]	; (8006630 <st_usbfs_poll+0xf0>)
 80065d6:	603a      	str	r2, [r7, #0]
		if (dev->user_callback_sof) {
 80065d8:	2b00      	cmp	r3, #0
 80065da:	d019      	beq.n	8006610 <st_usbfs_poll+0xd0>
			dev->user_callback_sof();
 80065dc:	4798      	blx	r3
	if (dev->user_callback_sof) {
 80065de:	6aa3      	ldr	r3, [r4, #40]	; 0x28
 80065e0:	2b00      	cmp	r3, #0
 80065e2:	d015      	beq.n	8006610 <st_usbfs_poll+0xd0>
		*USB_CNTR_REG |= USB_CNTR_SOFM;
 80065e4:	2380      	movs	r3, #128	; 0x80
 80065e6:	682a      	ldr	r2, [r5, #0]
 80065e8:	009b      	lsls	r3, r3, #2
 80065ea:	4313      	orrs	r3, r2
		*USB_CNTR_REG &= ~USB_CNTR_SOFM;
 80065ec:	602b      	str	r3, [r5, #0]
 80065ee:	e7b6      	b.n	800655e <st_usbfs_poll+0x1e>
			USB_CLR_EP_TX_CTR(ep);
 80065f0:	6832      	ldr	r2, [r6, #0]
 80065f2:	4910      	ldr	r1, [pc, #64]	; (8006634 <st_usbfs_poll+0xf4>)
 80065f4:	400a      	ands	r2, r1
 80065f6:	2180      	movs	r1, #128	; 0x80
 80065f8:	0209      	lsls	r1, r1, #8
 80065fa:	430a      	orrs	r2, r1
 80065fc:	6032      	str	r2, [r6, #0]
			type = USB_TRANSACTION_IN;
 80065fe:	001a      	movs	r2, r3
 8006600:	e7c6      	b.n	8006590 <st_usbfs_poll+0x50>
			USB_CLR_EP_RX_CTR(ep);
 8006602:	6833      	ldr	r3, [r6, #0]
 8006604:	4a0b      	ldr	r2, [pc, #44]	; (8006634 <st_usbfs_poll+0xf4>)
 8006606:	401a      	ands	r2, r3
 8006608:	2380      	movs	r3, #128	; 0x80
 800660a:	4313      	orrs	r3, r2
 800660c:	6033      	str	r3, [r6, #0]
 800660e:	e7ca      	b.n	80065a6 <st_usbfs_poll+0x66>
		*USB_CNTR_REG &= ~USB_CNTR_SOFM;
 8006610:	682b      	ldr	r3, [r5, #0]
 8006612:	4a09      	ldr	r2, [pc, #36]	; (8006638 <st_usbfs_poll+0xf8>)
 8006614:	4013      	ands	r3, r2
 8006616:	e7e9      	b.n	80065ec <st_usbfs_poll+0xac>
 8006618:	40005c44 	.word	0x40005c44
 800661c:	0000fbff 	.word	0x0000fbff
 8006620:	40005c00 	.word	0x40005c00
 8006624:	0000f7ff 	.word	0x0000f7ff
 8006628:	0000efff 	.word	0x0000efff
 800662c:	40005c40 	.word	0x40005c40
 8006630:	0000fdff 	.word	0x0000fdff
 8006634:	00000f0f 	.word	0x00000f0f
 8006638:	fffffdff 	.word	0xfffffdff

0800663c <st_usbfs_v2_disconnect>:
}

static void st_usbfs_v2_disconnect(usbd_device *usbd_dev, bool disconnected)
{
	(void)usbd_dev;
	uint16_t reg = GET_REG(USB_BCDR_REG);
 800663c:	4805      	ldr	r0, [pc, #20]	; (8006654 <st_usbfs_v2_disconnect+0x18>)
 800663e:	6803      	ldr	r3, [r0, #0]
	if (disconnected) {
 8006640:	2900      	cmp	r1, #0
 8006642:	d004      	beq.n	800664e <st_usbfs_v2_disconnect+0x12>
		SET_REG(USB_BCDR_REG, reg | USB_BCDR_DPPU);
 8006644:	4a04      	ldr	r2, [pc, #16]	; (8006658 <st_usbfs_v2_disconnect+0x1c>)
 8006646:	4313      	orrs	r3, r2
 8006648:	b29b      	uxth	r3, r3
	} else {
		SET_REG(USB_BCDR_REG, reg & ~USB_BCDR_DPPU);
 800664a:	6003      	str	r3, [r0, #0]
	}
}
 800664c:	4770      	bx	lr
		SET_REG(USB_BCDR_REG, reg & ~USB_BCDR_DPPU);
 800664e:	045b      	lsls	r3, r3, #17
 8006650:	0c5b      	lsrs	r3, r3, #17
 8006652:	e7fa      	b.n	800664a <st_usbfs_v2_disconnect+0xe>
 8006654:	40005c58 	.word	0x40005c58
 8006658:	ffff8000 	.word	0xffff8000

0800665c <st_usbfs_v2_usbd_init>:
{
 800665c:	b510      	push	{r4, lr}
	rcc_periph_clock_enable(RCC_USB);
 800665e:	4809      	ldr	r0, [pc, #36]	; (8006684 <st_usbfs_v2_usbd_init+0x28>)
 8006660:	f7fe ff5c 	bl	800551c <rcc_periph_clock_enable>
	SET_REG(USB_CNTR_REG, 0);
 8006664:	2300      	movs	r3, #0
 8006666:	4a08      	ldr	r2, [pc, #32]	; (8006688 <st_usbfs_v2_usbd_init+0x2c>)
	SET_REG(USB_BTABLE_REG, 0);
 8006668:	4908      	ldr	r1, [pc, #32]	; (800668c <st_usbfs_v2_usbd_init+0x30>)
	SET_REG(USB_CNTR_REG, 0);
 800666a:	6013      	str	r3, [r2, #0]
	SET_REG(USB_BTABLE_REG, 0);
 800666c:	600b      	str	r3, [r1, #0]
	SET_REG(USB_ISTR_REG, 0);
 800666e:	4908      	ldr	r1, [pc, #32]	; (8006690 <st_usbfs_v2_usbd_init+0x34>)
}
 8006670:	4808      	ldr	r0, [pc, #32]	; (8006694 <st_usbfs_v2_usbd_init+0x38>)
	SET_REG(USB_ISTR_REG, 0);
 8006672:	600b      	str	r3, [r1, #0]
	SET_REG(USB_CNTR_REG, USB_CNTR_RESETM | USB_CNTR_CTRM |
 8006674:	239c      	movs	r3, #156	; 0x9c
 8006676:	021b      	lsls	r3, r3, #8
 8006678:	6013      	str	r3, [r2, #0]
	SET_REG(USB_BCDR_REG, USB_BCDR_DPPU);
 800667a:	2280      	movs	r2, #128	; 0x80
 800667c:	4b06      	ldr	r3, [pc, #24]	; (8006698 <st_usbfs_v2_usbd_init+0x3c>)
 800667e:	0212      	lsls	r2, r2, #8
 8006680:	601a      	str	r2, [r3, #0]
}
 8006682:	bd10      	pop	{r4, pc}
 8006684:	00000717 	.word	0x00000717
 8006688:	40005c40 	.word	0x40005c40
 800668c:	40005c50 	.word	0x40005c50
 8006690:	40005c44 	.word	0x40005c44
 8006694:	20000470 	.word	0x20000470
 8006698:	40005c58 	.word	0x40005c58

0800669c <st_usbfs_copy_to_pm>:
	for (i = 0; i < len; i += 2) {
 800669c:	2300      	movs	r3, #0
{
 800669e:	b5f0      	push	{r4, r5, r6, r7, lr}
		*PM++ = (uint16_t)lbuf[i+1] << 8 | lbuf[i];
 80066a0:	1c4f      	adds	r7, r1, #1
 80066a2:	18c6      	adds	r6, r0, r3
	for (i = 0; i < len; i += 2) {
 80066a4:	429a      	cmp	r2, r3
 80066a6:	d800      	bhi.n	80066aa <st_usbfs_copy_to_pm+0xe>
}
 80066a8:	bdf0      	pop	{r4, r5, r6, r7, pc}
		*PM++ = (uint16_t)lbuf[i+1] << 8 | lbuf[i];
 80066aa:	5cfd      	ldrb	r5, [r7, r3]
 80066ac:	5ccc      	ldrb	r4, [r1, r3]
 80066ae:	022d      	lsls	r5, r5, #8
 80066b0:	432c      	orrs	r4, r5
 80066b2:	8034      	strh	r4, [r6, #0]
	for (i = 0; i < len; i += 2) {
 80066b4:	3302      	adds	r3, #2
 80066b6:	e7f4      	b.n	80066a2 <st_usbfs_copy_to_pm+0x6>

080066b8 <st_usbfs_copy_from_pm>:
	uint8_t odd = len & 1;
 80066b8:	2301      	movs	r3, #1
{
 80066ba:	b5f0      	push	{r4, r5, r6, r7, lr}
	uint8_t odd = len & 1;
 80066bc:	0014      	movs	r4, r2
	if (((uintptr_t) buf) & 0x01) {
 80066be:	0006      	movs	r6, r0
	len >>= 1;
 80066c0:	40da      	lsrs	r2, r3
	uint8_t odd = len & 1;
 80066c2:	401c      	ands	r4, r3
	if (((uintptr_t) buf) & 0x01) {
 80066c4:	4218      	tst	r0, r3
 80066c6:	d11e      	bne.n	8006706 <st_usbfs_copy_from_pm+0x4e>
	const volatile uint16_t *PM = vPM;
 80066c8:	000e      	movs	r6, r1
	len >>= 1;
 80066ca:	0013      	movs	r3, r2
 80066cc:	0005      	movs	r5, r0
		for (; len; PM++, buf += 2, len--) {
 80066ce:	2b00      	cmp	r3, #0
 80066d0:	d011      	beq.n	80066f6 <st_usbfs_copy_from_pm+0x3e>
			*(uint16_t *) buf = *PM;
 80066d2:	8837      	ldrh	r7, [r6, #0]
		for (; len; PM++, buf += 2, len--) {
 80066d4:	3b01      	subs	r3, #1
			*(uint16_t *) buf = *PM;
 80066d6:	802f      	strh	r7, [r5, #0]
		for (; len; PM++, buf += 2, len--) {
 80066d8:	3602      	adds	r6, #2
 80066da:	3502      	adds	r5, #2
 80066dc:	b29b      	uxth	r3, r3
 80066de:	e7f6      	b.n	80066ce <st_usbfs_copy_from_pm+0x16>
			uint16_t value = *PM;
 80066e0:	883b      	ldrh	r3, [r7, #0]
		for (; len; PM++, len--) {
 80066e2:	3d01      	subs	r5, #1
			uint16_t value = *PM;
 80066e4:	b29b      	uxth	r3, r3
			*(uint8_t *) buf++ = value;
 80066e6:	7033      	strb	r3, [r6, #0]
			*(uint8_t *) buf++ = value >> 8;
 80066e8:	0a1b      	lsrs	r3, r3, #8
 80066ea:	7073      	strb	r3, [r6, #1]
		for (; len; PM++, len--) {
 80066ec:	3702      	adds	r7, #2
 80066ee:	b2ad      	uxth	r5, r5
 80066f0:	3602      	adds	r6, #2
 80066f2:	2d00      	cmp	r5, #0
 80066f4:	d1f4      	bne.n	80066e0 <st_usbfs_copy_from_pm+0x28>
 80066f6:	0052      	lsls	r2, r2, #1
 80066f8:	1880      	adds	r0, r0, r2
 80066fa:	188a      	adds	r2, r1, r2
	if (odd) {
 80066fc:	2c00      	cmp	r4, #0
 80066fe:	d001      	beq.n	8006704 <st_usbfs_copy_from_pm+0x4c>
		*(uint8_t *) buf = *(uint8_t *) PM;
 8006700:	7813      	ldrb	r3, [r2, #0]
 8006702:	7003      	strb	r3, [r0, #0]
}
 8006704:	bdf0      	pop	{r4, r5, r6, r7, pc}
	const volatile uint16_t *PM = vPM;
 8006706:	000f      	movs	r7, r1
	len >>= 1;
 8006708:	0015      	movs	r5, r2
 800670a:	e7f2      	b.n	80066f2 <st_usbfs_copy_from_pm+0x3a>

0800670c <blocking_handler>:

}

void blocking_handler(void)
{
	while (1);
 800670c:	e7fe      	b.n	800670c <blocking_handler>

0800670e <null_handler>:
}

void null_handler(void)
{
	/* Do nothing. */
}
 800670e:	4770      	bx	lr

08006710 <reset_handler>:
{
 8006710:	b510      	push	{r4, lr}
	for (src = &_data_loadaddr, dest = &_data;
 8006712:	4b16      	ldr	r3, [pc, #88]	; (800676c <reset_handler+0x5c>)
 8006714:	4a16      	ldr	r2, [pc, #88]	; (8006770 <reset_handler+0x60>)
 8006716:	4917      	ldr	r1, [pc, #92]	; (8006774 <reset_handler+0x64>)
 8006718:	428b      	cmp	r3, r1
 800671a:	d318      	bcc.n	800674e <reset_handler+0x3e>
		*dest++ = 0;
 800671c:	2100      	movs	r1, #0
	while (dest < &_ebss) {
 800671e:	4a16      	ldr	r2, [pc, #88]	; (8006778 <reset_handler+0x68>)
 8006720:	4293      	cmp	r3, r2
 8006722:	d317      	bcc.n	8006754 <reset_handler+0x44>
	SCB_CCR |= SCB_CCR_STKALIGN;
 8006724:	2380      	movs	r3, #128	; 0x80
 8006726:	4a15      	ldr	r2, [pc, #84]	; (800677c <reset_handler+0x6c>)
 8006728:	009b      	lsls	r3, r3, #2
 800672a:	6811      	ldr	r1, [r2, #0]
	for (fp = &__preinit_array_start; fp < &__preinit_array_end; fp++) {
 800672c:	4c14      	ldr	r4, [pc, #80]	; (8006780 <reset_handler+0x70>)
	SCB_CCR |= SCB_CCR_STKALIGN;
 800672e:	430b      	orrs	r3, r1
 8006730:	6013      	str	r3, [r2, #0]
	for (fp = &__preinit_array_start; fp < &__preinit_array_end; fp++) {
 8006732:	4b14      	ldr	r3, [pc, #80]	; (8006784 <reset_handler+0x74>)
 8006734:	429c      	cmp	r4, r3
 8006736:	d30f      	bcc.n	8006758 <reset_handler+0x48>
	for (fp = &__init_array_start; fp < &__init_array_end; fp++) {
 8006738:	4c13      	ldr	r4, [pc, #76]	; (8006788 <reset_handler+0x78>)
 800673a:	4b14      	ldr	r3, [pc, #80]	; (800678c <reset_handler+0x7c>)
 800673c:	429c      	cmp	r4, r3
 800673e:	d30e      	bcc.n	800675e <reset_handler+0x4e>
	(void)main();
 8006740:	f7fd feae 	bl	80044a0 <main>
	for (fp = &__fini_array_start; fp < &__fini_array_end; fp++) {
 8006744:	4c12      	ldr	r4, [pc, #72]	; (8006790 <reset_handler+0x80>)
 8006746:	4b13      	ldr	r3, [pc, #76]	; (8006794 <reset_handler+0x84>)
 8006748:	429c      	cmp	r4, r3
 800674a:	d30b      	bcc.n	8006764 <reset_handler+0x54>
}
 800674c:	bd10      	pop	{r4, pc}
		*dest = *src;
 800674e:	ca01      	ldmia	r2!, {r0}
 8006750:	c301      	stmia	r3!, {r0}
		src++, dest++) {
 8006752:	e7e1      	b.n	8006718 <reset_handler+0x8>
		*dest++ = 0;
 8006754:	c302      	stmia	r3!, {r1}
 8006756:	e7e3      	b.n	8006720 <reset_handler+0x10>
		(*fp)();
 8006758:	cc08      	ldmia	r4!, {r3}
 800675a:	4798      	blx	r3
	for (fp = &__preinit_array_start; fp < &__preinit_array_end; fp++) {
 800675c:	e7e9      	b.n	8006732 <reset_handler+0x22>
		(*fp)();
 800675e:	cc08      	ldmia	r4!, {r3}
 8006760:	4798      	blx	r3
	for (fp = &__init_array_start; fp < &__init_array_end; fp++) {
 8006762:	e7ea      	b.n	800673a <reset_handler+0x2a>
		(*fp)();
 8006764:	cc08      	ldmia	r4!, {r3}
 8006766:	4798      	blx	r3
	for (fp = &__fini_array_start; fp < &__fini_array_end; fp++) {
 8006768:	e7ed      	b.n	8006746 <reset_handler+0x36>
 800676a:	46c0      	nop			; (mov r8, r8)
 800676c:	20000000 	.word	0x20000000
 8006770:	080070d0 	.word	0x080070d0
 8006774:	20000140 	.word	0x20000140
 8006778:	20000590 	.word	0x20000590
 800677c:	e000ed14 	.word	0xe000ed14
 8006780:	080070d0 	.word	0x080070d0
 8006784:	080070d0 	.word	0x080070d0
 8006788:	080070d0 	.word	0x080070d0
 800678c:	080070d0 	.word	0x080070d0
 8006790:	080070d0 	.word	0x080070d0
 8006794:	080070d0 	.word	0x080070d0

08006798 <nvic_enable_irq>:
 * @param[in] irqn Unsigned int8. Interrupt number @ref CM3_nvic_defines_irqs
 */

void nvic_enable_irq(uint8_t irqn)
{
	NVIC_ISER(irqn / 32) = (1 << (irqn % 32));
 8006798:	4a04      	ldr	r2, [pc, #16]	; (80067ac <nvic_enable_irq+0x14>)
 800679a:	0943      	lsrs	r3, r0, #5
 800679c:	009b      	lsls	r3, r3, #2
 800679e:	189b      	adds	r3, r3, r2
 80067a0:	221f      	movs	r2, #31
 80067a2:	4010      	ands	r0, r2
 80067a4:	3a1e      	subs	r2, #30
 80067a6:	4082      	lsls	r2, r0
 80067a8:	601a      	str	r2, [r3, #0]
}
 80067aa:	4770      	bx	lr
 80067ac:	e000e100 	.word	0xe000e100

080067b0 <nvic_set_priority>:
 * @param[in] irqn Interrupt number @ref CM3_nvic_defines_irqs
 * @param[in] priority Interrupt priority (0 ... 255 in steps of 16)
 */
#endif
void nvic_set_priority(uint8_t irqn, uint8_t priority)
{
 80067b0:	b510      	push	{r4, lr}
	/* code from lpc43xx/nvic.c -- this is quite a hack and alludes to the
	 * negative interrupt numbers assigned to the system interrupts. better
	 * handling would mean signed integers. */
	if (irqn >= NVIC_IRQ_COUNT) {
 80067b2:	281f      	cmp	r0, #31
 80067b4:	d912      	bls.n	80067dc <nvic_set_priority+0x2c>
		/* Cortex-M  system interrupts */
#if defined(__ARM_ARCH_6M__)
		/* ARM6M supports only 32bit word access to SHPR registers */
		irqn = (irqn & 0xF) - 4;
 80067b6:	230f      	movs	r3, #15
 80067b8:	4018      	ands	r0, r3
 80067ba:	3804      	subs	r0, #4
 80067bc:	b2c0      	uxtb	r0, r0
		uint8_t shift = (irqn & 0x3) << 3;
		uint8_t reg = irqn >> 2;
		SCB_SHPR32(reg) = ((SCB_SHPR32(reg) & ~(0xFFUL << shift)) |
 80067be:	0883      	lsrs	r3, r0, #2
 80067c0:	4a08      	ldr	r2, [pc, #32]	; (80067e4 <nvic_set_priority+0x34>)
 80067c2:	009b      	lsls	r3, r3, #2
		/* Device specific interrupts */
#if defined(__ARM_ARCH_6M__)
		/* ARM6M supports only 32bit word access to IPR registers */
		uint8_t shift = (irqn & 0x3) << 3;
		uint8_t reg = irqn >> 2;
		NVIC_IPR32(reg) = ((NVIC_IPR32(reg) & ~(0xFFUL << shift)) |
 80067c4:	2418      	movs	r4, #24
		uint8_t shift = (irqn & 0x3) << 3;
 80067c6:	00c0      	lsls	r0, r0, #3
		NVIC_IPR32(reg) = ((NVIC_IPR32(reg) & ~(0xFFUL << shift)) |
 80067c8:	4020      	ands	r0, r4
 80067ca:	34e7      	adds	r4, #231	; 0xe7
 80067cc:	4084      	lsls	r4, r0
				((uint32_t) priority) << shift);
 80067ce:	4081      	lsls	r1, r0
		NVIC_IPR32(reg) = ((NVIC_IPR32(reg) & ~(0xFFUL << shift)) |
 80067d0:	189b      	adds	r3, r3, r2
 80067d2:	681a      	ldr	r2, [r3, #0]
 80067d4:	43a2      	bics	r2, r4
 80067d6:	4311      	orrs	r1, r2
 80067d8:	6019      	str	r1, [r3, #0]
#else
		NVIC_IPR(irqn) = priority;
#endif
	}
}
 80067da:	bd10      	pop	{r4, pc}
		NVIC_IPR32(reg) = ((NVIC_IPR32(reg) & ~(0xFFUL << shift)) |
 80067dc:	0883      	lsrs	r3, r0, #2
 80067de:	4a02      	ldr	r2, [pc, #8]	; (80067e8 <nvic_set_priority+0x38>)
 80067e0:	009b      	lsls	r3, r3, #2
 80067e2:	e7ef      	b.n	80067c4 <nvic_set_priority+0x14>
 80067e4:	e000ed18 	.word	0xe000ed18
 80067e8:	e000e400 	.word	0xe000e400

080067ec <malloc>:
 80067ec:	b510      	push	{r4, lr}
 80067ee:	4b03      	ldr	r3, [pc, #12]	; (80067fc <malloc+0x10>)
 80067f0:	0001      	movs	r1, r0
 80067f2:	6818      	ldr	r0, [r3, #0]
 80067f4:	f000 f80e 	bl	8006814 <_malloc_r>
 80067f8:	bd10      	pop	{r4, pc}
 80067fa:	46c0      	nop			; (mov r8, r8)
 80067fc:	200000dc 	.word	0x200000dc

08006800 <memcpy>:
 8006800:	2300      	movs	r3, #0
 8006802:	b510      	push	{r4, lr}
 8006804:	429a      	cmp	r2, r3
 8006806:	d100      	bne.n	800680a <memcpy+0xa>
 8006808:	bd10      	pop	{r4, pc}
 800680a:	5ccc      	ldrb	r4, [r1, r3]
 800680c:	54c4      	strb	r4, [r0, r3]
 800680e:	3301      	adds	r3, #1
 8006810:	e7f8      	b.n	8006804 <memcpy+0x4>
	...

08006814 <_malloc_r>:
 8006814:	b5f8      	push	{r3, r4, r5, r6, r7, lr}
 8006816:	2303      	movs	r3, #3
 8006818:	1ccd      	adds	r5, r1, #3
 800681a:	439d      	bics	r5, r3
 800681c:	3508      	adds	r5, #8
 800681e:	0006      	movs	r6, r0
 8006820:	2d0c      	cmp	r5, #12
 8006822:	d21f      	bcs.n	8006864 <_malloc_r+0x50>
 8006824:	250c      	movs	r5, #12
 8006826:	42a9      	cmp	r1, r5
 8006828:	d81e      	bhi.n	8006868 <_malloc_r+0x54>
 800682a:	0030      	movs	r0, r6
 800682c:	f000 f86a 	bl	8006904 <__malloc_lock>
 8006830:	4925      	ldr	r1, [pc, #148]	; (80068c8 <_malloc_r+0xb4>)
 8006832:	680a      	ldr	r2, [r1, #0]
 8006834:	0014      	movs	r4, r2
 8006836:	2c00      	cmp	r4, #0
 8006838:	d11a      	bne.n	8006870 <_malloc_r+0x5c>
 800683a:	4f24      	ldr	r7, [pc, #144]	; (80068cc <_malloc_r+0xb8>)
 800683c:	683b      	ldr	r3, [r7, #0]
 800683e:	2b00      	cmp	r3, #0
 8006840:	d104      	bne.n	800684c <_malloc_r+0x38>
 8006842:	0021      	movs	r1, r4
 8006844:	0030      	movs	r0, r6
 8006846:	f000 f843 	bl	80068d0 <_sbrk_r>
 800684a:	6038      	str	r0, [r7, #0]
 800684c:	0029      	movs	r1, r5
 800684e:	0030      	movs	r0, r6
 8006850:	f000 f83e 	bl	80068d0 <_sbrk_r>
 8006854:	1c43      	adds	r3, r0, #1
 8006856:	d12b      	bne.n	80068b0 <_malloc_r+0x9c>
 8006858:	230c      	movs	r3, #12
 800685a:	0030      	movs	r0, r6
 800685c:	6033      	str	r3, [r6, #0]
 800685e:	f000 f859 	bl	8006914 <__malloc_unlock>
 8006862:	e003      	b.n	800686c <_malloc_r+0x58>
 8006864:	2d00      	cmp	r5, #0
 8006866:	dade      	bge.n	8006826 <_malloc_r+0x12>
 8006868:	230c      	movs	r3, #12
 800686a:	6033      	str	r3, [r6, #0]
 800686c:	2000      	movs	r0, #0
 800686e:	bdf8      	pop	{r3, r4, r5, r6, r7, pc}
 8006870:	6823      	ldr	r3, [r4, #0]
 8006872:	1b5b      	subs	r3, r3, r5
 8006874:	d419      	bmi.n	80068aa <_malloc_r+0x96>
 8006876:	2b0b      	cmp	r3, #11
 8006878:	d903      	bls.n	8006882 <_malloc_r+0x6e>
 800687a:	6023      	str	r3, [r4, #0]
 800687c:	18e4      	adds	r4, r4, r3
 800687e:	6025      	str	r5, [r4, #0]
 8006880:	e003      	b.n	800688a <_malloc_r+0x76>
 8006882:	6863      	ldr	r3, [r4, #4]
 8006884:	42a2      	cmp	r2, r4
 8006886:	d10e      	bne.n	80068a6 <_malloc_r+0x92>
 8006888:	600b      	str	r3, [r1, #0]
 800688a:	0030      	movs	r0, r6
 800688c:	f000 f842 	bl	8006914 <__malloc_unlock>
 8006890:	0020      	movs	r0, r4
 8006892:	2207      	movs	r2, #7
 8006894:	300b      	adds	r0, #11
 8006896:	1d23      	adds	r3, r4, #4
 8006898:	4390      	bics	r0, r2
 800689a:	1ac2      	subs	r2, r0, r3
 800689c:	4298      	cmp	r0, r3
 800689e:	d0e6      	beq.n	800686e <_malloc_r+0x5a>
 80068a0:	1a1b      	subs	r3, r3, r0
 80068a2:	50a3      	str	r3, [r4, r2]
 80068a4:	e7e3      	b.n	800686e <_malloc_r+0x5a>
 80068a6:	6053      	str	r3, [r2, #4]
 80068a8:	e7ef      	b.n	800688a <_malloc_r+0x76>
 80068aa:	0022      	movs	r2, r4
 80068ac:	6864      	ldr	r4, [r4, #4]
 80068ae:	e7c2      	b.n	8006836 <_malloc_r+0x22>
 80068b0:	2303      	movs	r3, #3
 80068b2:	1cc4      	adds	r4, r0, #3
 80068b4:	439c      	bics	r4, r3
 80068b6:	42a0      	cmp	r0, r4
 80068b8:	d0e1      	beq.n	800687e <_malloc_r+0x6a>
 80068ba:	1a21      	subs	r1, r4, r0
 80068bc:	0030      	movs	r0, r6
 80068be:	f000 f807 	bl	80068d0 <_sbrk_r>
 80068c2:	1c43      	adds	r3, r0, #1
 80068c4:	d1db      	bne.n	800687e <_malloc_r+0x6a>
 80068c6:	e7c7      	b.n	8006858 <_malloc_r+0x44>
 80068c8:	20000574 	.word	0x20000574
 80068cc:	20000578 	.word	0x20000578

080068d0 <_sbrk_r>:
 80068d0:	2300      	movs	r3, #0
 80068d2:	b570      	push	{r4, r5, r6, lr}
 80068d4:	4d06      	ldr	r5, [pc, #24]	; (80068f0 <_sbrk_r+0x20>)
 80068d6:	0004      	movs	r4, r0
 80068d8:	0008      	movs	r0, r1
 80068da:	602b      	str	r3, [r5, #0]
 80068dc:	f000 f9a4 	bl	8006c28 <_sbrk>
 80068e0:	1c43      	adds	r3, r0, #1
 80068e2:	d103      	bne.n	80068ec <_sbrk_r+0x1c>
 80068e4:	682b      	ldr	r3, [r5, #0]
 80068e6:	2b00      	cmp	r3, #0
 80068e8:	d000      	beq.n	80068ec <_sbrk_r+0x1c>
 80068ea:	6023      	str	r3, [r4, #0]
 80068ec:	bd70      	pop	{r4, r5, r6, pc}
 80068ee:	46c0      	nop			; (mov r8, r8)
 80068f0:	20000580 	.word	0x20000580

080068f4 <strlen>:
 80068f4:	2300      	movs	r3, #0
 80068f6:	5cc2      	ldrb	r2, [r0, r3]
 80068f8:	3301      	adds	r3, #1
 80068fa:	2a00      	cmp	r2, #0
 80068fc:	d1fb      	bne.n	80068f6 <strlen+0x2>
 80068fe:	1e58      	subs	r0, r3, #1
 8006900:	4770      	bx	lr
	...

08006904 <__malloc_lock>:
 8006904:	b510      	push	{r4, lr}
 8006906:	4802      	ldr	r0, [pc, #8]	; (8006910 <__malloc_lock+0xc>)
 8006908:	f000 f80c 	bl	8006924 <__retarget_lock_acquire_recursive>
 800690c:	bd10      	pop	{r4, pc}
 800690e:	46c0      	nop			; (mov r8, r8)
 8006910:	20000588 	.word	0x20000588

08006914 <__malloc_unlock>:
 8006914:	b510      	push	{r4, lr}
 8006916:	4802      	ldr	r0, [pc, #8]	; (8006920 <__malloc_unlock+0xc>)
 8006918:	f000 f805 	bl	8006926 <__retarget_lock_release_recursive>
 800691c:	bd10      	pop	{r4, pc}
 800691e:	46c0      	nop			; (mov r8, r8)
 8006920:	20000588 	.word	0x20000588

08006924 <__retarget_lock_acquire_recursive>:
 8006924:	4770      	bx	lr

08006926 <__retarget_lock_release_recursive>:
 8006926:	4770      	bx	lr

08006928 <__gnu_thumb1_case_uqi>:
 8006928:	b402      	push	{r1}
 800692a:	4671      	mov	r1, lr
 800692c:	0849      	lsrs	r1, r1, #1
 800692e:	0049      	lsls	r1, r1, #1
 8006930:	5c09      	ldrb	r1, [r1, r0]
 8006932:	0049      	lsls	r1, r1, #1
 8006934:	448e      	add	lr, r1
 8006936:	bc02      	pop	{r1}
 8006938:	4770      	bx	lr
 800693a:	46c0      	nop			; (mov r8, r8)

0800693c <__udivsi3>:
 800693c:	2200      	movs	r2, #0
 800693e:	0843      	lsrs	r3, r0, #1
 8006940:	428b      	cmp	r3, r1
 8006942:	d374      	bcc.n	8006a2e <__udivsi3+0xf2>
 8006944:	0903      	lsrs	r3, r0, #4
 8006946:	428b      	cmp	r3, r1
 8006948:	d35f      	bcc.n	8006a0a <__udivsi3+0xce>
 800694a:	0a03      	lsrs	r3, r0, #8
 800694c:	428b      	cmp	r3, r1
 800694e:	d344      	bcc.n	80069da <__udivsi3+0x9e>
 8006950:	0b03      	lsrs	r3, r0, #12
 8006952:	428b      	cmp	r3, r1
 8006954:	d328      	bcc.n	80069a8 <__udivsi3+0x6c>
 8006956:	0c03      	lsrs	r3, r0, #16
 8006958:	428b      	cmp	r3, r1
 800695a:	d30d      	bcc.n	8006978 <__udivsi3+0x3c>
 800695c:	22ff      	movs	r2, #255	; 0xff
 800695e:	0209      	lsls	r1, r1, #8
 8006960:	ba12      	rev	r2, r2
 8006962:	0c03      	lsrs	r3, r0, #16
 8006964:	428b      	cmp	r3, r1
 8006966:	d302      	bcc.n	800696e <__udivsi3+0x32>
 8006968:	1212      	asrs	r2, r2, #8
 800696a:	0209      	lsls	r1, r1, #8
 800696c:	d065      	beq.n	8006a3a <__udivsi3+0xfe>
 800696e:	0b03      	lsrs	r3, r0, #12
 8006970:	428b      	cmp	r3, r1
 8006972:	d319      	bcc.n	80069a8 <__udivsi3+0x6c>
 8006974:	e000      	b.n	8006978 <__udivsi3+0x3c>
 8006976:	0a09      	lsrs	r1, r1, #8
 8006978:	0bc3      	lsrs	r3, r0, #15
 800697a:	428b      	cmp	r3, r1
 800697c:	d301      	bcc.n	8006982 <__udivsi3+0x46>
 800697e:	03cb      	lsls	r3, r1, #15
 8006980:	1ac0      	subs	r0, r0, r3
 8006982:	4152      	adcs	r2, r2
 8006984:	0b83      	lsrs	r3, r0, #14
 8006986:	428b      	cmp	r3, r1
 8006988:	d301      	bcc.n	800698e <__udivsi3+0x52>
 800698a:	038b      	lsls	r3, r1, #14
 800698c:	1ac0      	subs	r0, r0, r3
 800698e:	4152      	adcs	r2, r2
 8006990:	0b43      	lsrs	r3, r0, #13
 8006992:	428b      	cmp	r3, r1
 8006994:	d301      	bcc.n	800699a <__udivsi3+0x5e>
 8006996:	034b      	lsls	r3, r1, #13
 8006998:	1ac0      	subs	r0, r0, r3
 800699a:	4152      	adcs	r2, r2
 800699c:	0b03      	lsrs	r3, r0, #12
 800699e:	428b      	cmp	r3, r1
 80069a0:	d301      	bcc.n	80069a6 <__udivsi3+0x6a>
 80069a2:	030b      	lsls	r3, r1, #12
 80069a4:	1ac0      	subs	r0, r0, r3
 80069a6:	4152      	adcs	r2, r2
 80069a8:	0ac3      	lsrs	r3, r0, #11
 80069aa:	428b      	cmp	r3, r1
 80069ac:	d301      	bcc.n	80069b2 <__udivsi3+0x76>
 80069ae:	02cb      	lsls	r3, r1, #11
 80069b0:	1ac0      	subs	r0, r0, r3
 80069b2:	4152      	adcs	r2, r2
 80069b4:	0a83      	lsrs	r3, r0, #10
 80069b6:	428b      	cmp	r3, r1
 80069b8:	d301      	bcc.n	80069be <__udivsi3+0x82>
 80069ba:	028b      	lsls	r3, r1, #10
 80069bc:	1ac0      	subs	r0, r0, r3
 80069be:	4152      	adcs	r2, r2
 80069c0:	0a43      	lsrs	r3, r0, #9
 80069c2:	428b      	cmp	r3, r1
 80069c4:	d301      	bcc.n	80069ca <__udivsi3+0x8e>
 80069c6:	024b      	lsls	r3, r1, #9
 80069c8:	1ac0      	subs	r0, r0, r3
 80069ca:	4152      	adcs	r2, r2
 80069cc:	0a03      	lsrs	r3, r0, #8
 80069ce:	428b      	cmp	r3, r1
 80069d0:	d301      	bcc.n	80069d6 <__udivsi3+0x9a>
 80069d2:	020b      	lsls	r3, r1, #8
 80069d4:	1ac0      	subs	r0, r0, r3
 80069d6:	4152      	adcs	r2, r2
 80069d8:	d2cd      	bcs.n	8006976 <__udivsi3+0x3a>
 80069da:	09c3      	lsrs	r3, r0, #7
 80069dc:	428b      	cmp	r3, r1
 80069de:	d301      	bcc.n	80069e4 <__udivsi3+0xa8>
 80069e0:	01cb      	lsls	r3, r1, #7
 80069e2:	1ac0      	subs	r0, r0, r3
 80069e4:	4152      	adcs	r2, r2
 80069e6:	0983      	lsrs	r3, r0, #6
 80069e8:	428b      	cmp	r3, r1
 80069ea:	d301      	bcc.n	80069f0 <__udivsi3+0xb4>
 80069ec:	018b      	lsls	r3, r1, #6
 80069ee:	1ac0      	subs	r0, r0, r3
 80069f0:	4152      	adcs	r2, r2
 80069f2:	0943      	lsrs	r3, r0, #5
 80069f4:	428b      	cmp	r3, r1
 80069f6:	d301      	bcc.n	80069fc <__udivsi3+0xc0>
 80069f8:	014b      	lsls	r3, r1, #5
 80069fa:	1ac0      	subs	r0, r0, r3
 80069fc:	4152      	adcs	r2, r2
 80069fe:	0903      	lsrs	r3, r0, #4
 8006a00:	428b      	cmp	r3, r1
 8006a02:	d301      	bcc.n	8006a08 <__udivsi3+0xcc>
 8006a04:	010b      	lsls	r3, r1, #4
 8006a06:	1ac0      	subs	r0, r0, r3
 8006a08:	4152      	adcs	r2, r2
 8006a0a:	08c3      	lsrs	r3, r0, #3
 8006a0c:	428b      	cmp	r3, r1
 8006a0e:	d301      	bcc.n	8006a14 <__udivsi3+0xd8>
 8006a10:	00cb      	lsls	r3, r1, #3
 8006a12:	1ac0      	subs	r0, r0, r3
 8006a14:	4152      	adcs	r2, r2
 8006a16:	0883      	lsrs	r3, r0, #2
 8006a18:	428b      	cmp	r3, r1
 8006a1a:	d301      	bcc.n	8006a20 <__udivsi3+0xe4>
 8006a1c:	008b      	lsls	r3, r1, #2
 8006a1e:	1ac0      	subs	r0, r0, r3
 8006a20:	4152      	adcs	r2, r2
 8006a22:	0843      	lsrs	r3, r0, #1
 8006a24:	428b      	cmp	r3, r1
 8006a26:	d301      	bcc.n	8006a2c <__udivsi3+0xf0>
 8006a28:	004b      	lsls	r3, r1, #1
 8006a2a:	1ac0      	subs	r0, r0, r3
 8006a2c:	4152      	adcs	r2, r2
 8006a2e:	1a41      	subs	r1, r0, r1
 8006a30:	d200      	bcs.n	8006a34 <__udivsi3+0xf8>
 8006a32:	4601      	mov	r1, r0
 8006a34:	4152      	adcs	r2, r2
 8006a36:	4610      	mov	r0, r2
 8006a38:	4770      	bx	lr
 8006a3a:	e7ff      	b.n	8006a3c <__udivsi3+0x100>
 8006a3c:	b501      	push	{r0, lr}
 8006a3e:	2000      	movs	r0, #0
 8006a40:	f000 f8f0 	bl	8006c24 <__aeabi_idiv0>
 8006a44:	bd02      	pop	{r1, pc}
 8006a46:	46c0      	nop			; (mov r8, r8)

08006a48 <__aeabi_uidivmod>:
 8006a48:	2900      	cmp	r1, #0
 8006a4a:	d0f7      	beq.n	8006a3c <__udivsi3+0x100>
 8006a4c:	e776      	b.n	800693c <__udivsi3>
 8006a4e:	4770      	bx	lr

08006a50 <__divsi3>:
 8006a50:	4603      	mov	r3, r0
 8006a52:	430b      	orrs	r3, r1
 8006a54:	d47f      	bmi.n	8006b56 <__divsi3+0x106>
 8006a56:	2200      	movs	r2, #0
 8006a58:	0843      	lsrs	r3, r0, #1
 8006a5a:	428b      	cmp	r3, r1
 8006a5c:	d374      	bcc.n	8006b48 <__divsi3+0xf8>
 8006a5e:	0903      	lsrs	r3, r0, #4
 8006a60:	428b      	cmp	r3, r1
 8006a62:	d35f      	bcc.n	8006b24 <__divsi3+0xd4>
 8006a64:	0a03      	lsrs	r3, r0, #8
 8006a66:	428b      	cmp	r3, r1
 8006a68:	d344      	bcc.n	8006af4 <__divsi3+0xa4>
 8006a6a:	0b03      	lsrs	r3, r0, #12
 8006a6c:	428b      	cmp	r3, r1
 8006a6e:	d328      	bcc.n	8006ac2 <__divsi3+0x72>
 8006a70:	0c03      	lsrs	r3, r0, #16
 8006a72:	428b      	cmp	r3, r1
 8006a74:	d30d      	bcc.n	8006a92 <__divsi3+0x42>
 8006a76:	22ff      	movs	r2, #255	; 0xff
 8006a78:	0209      	lsls	r1, r1, #8
 8006a7a:	ba12      	rev	r2, r2
 8006a7c:	0c03      	lsrs	r3, r0, #16
 8006a7e:	428b      	cmp	r3, r1
 8006a80:	d302      	bcc.n	8006a88 <__divsi3+0x38>
 8006a82:	1212      	asrs	r2, r2, #8
 8006a84:	0209      	lsls	r1, r1, #8
 8006a86:	d065      	beq.n	8006b54 <__divsi3+0x104>
 8006a88:	0b03      	lsrs	r3, r0, #12
 8006a8a:	428b      	cmp	r3, r1
 8006a8c:	d319      	bcc.n	8006ac2 <__divsi3+0x72>
 8006a8e:	e000      	b.n	8006a92 <__divsi3+0x42>
 8006a90:	0a09      	lsrs	r1, r1, #8
 8006a92:	0bc3      	lsrs	r3, r0, #15
 8006a94:	428b      	cmp	r3, r1
 8006a96:	d301      	bcc.n	8006a9c <__divsi3+0x4c>
 8006a98:	03cb      	lsls	r3, r1, #15
 8006a9a:	1ac0      	subs	r0, r0, r3
 8006a9c:	4152      	adcs	r2, r2
 8006a9e:	0b83      	lsrs	r3, r0, #14
 8006aa0:	428b      	cmp	r3, r1
 8006aa2:	d301      	bcc.n	8006aa8 <__divsi3+0x58>
 8006aa4:	038b      	lsls	r3, r1, #14
 8006aa6:	1ac0      	subs	r0, r0, r3
 8006aa8:	4152      	adcs	r2, r2
 8006aaa:	0b43      	lsrs	r3, r0, #13
 8006aac:	428b      	cmp	r3, r1
 8006aae:	d301      	bcc.n	8006ab4 <__divsi3+0x64>
 8006ab0:	034b      	lsls	r3, r1, #13
 8006ab2:	1ac0      	subs	r0, r0, r3
 8006ab4:	4152      	adcs	r2, r2
 8006ab6:	0b03      	lsrs	r3, r0, #12
 8006ab8:	428b      	cmp	r3, r1
 8006aba:	d301      	bcc.n	8006ac0 <__divsi3+0x70>
 8006abc:	030b      	lsls	r3, r1, #12
 8006abe:	1ac0      	subs	r0, r0, r3
 8006ac0:	4152      	adcs	r2, r2
 8006ac2:	0ac3      	lsrs	r3, r0, #11
 8006ac4:	428b      	cmp	r3, r1
 8006ac6:	d301      	bcc.n	8006acc <__divsi3+0x7c>
 8006ac8:	02cb      	lsls	r3, r1, #11
 8006aca:	1ac0      	subs	r0, r0, r3
 8006acc:	4152      	adcs	r2, r2
 8006ace:	0a83      	lsrs	r3, r0, #10
 8006ad0:	428b      	cmp	r3, r1
 8006ad2:	d301      	bcc.n	8006ad8 <__divsi3+0x88>
 8006ad4:	028b      	lsls	r3, r1, #10
 8006ad6:	1ac0      	subs	r0, r0, r3
 8006ad8:	4152      	adcs	r2, r2
 8006ada:	0a43      	lsrs	r3, r0, #9
 8006adc:	428b      	cmp	r3, r1
 8006ade:	d301      	bcc.n	8006ae4 <__divsi3+0x94>
 8006ae0:	024b      	lsls	r3, r1, #9
 8006ae2:	1ac0      	subs	r0, r0, r3
 8006ae4:	4152      	adcs	r2, r2
 8006ae6:	0a03      	lsrs	r3, r0, #8
 8006ae8:	428b      	cmp	r3, r1
 8006aea:	d301      	bcc.n	8006af0 <__divsi3+0xa0>
 8006aec:	020b      	lsls	r3, r1, #8
 8006aee:	1ac0      	subs	r0, r0, r3
 8006af0:	4152      	adcs	r2, r2
 8006af2:	d2cd      	bcs.n	8006a90 <__divsi3+0x40>
 8006af4:	09c3      	lsrs	r3, r0, #7
 8006af6:	428b      	cmp	r3, r1
 8006af8:	d301      	bcc.n	8006afe <__divsi3+0xae>
 8006afa:	01cb      	lsls	r3, r1, #7
 8006afc:	1ac0      	subs	r0, r0, r3
 8006afe:	4152      	adcs	r2, r2
 8006b00:	0983      	lsrs	r3, r0, #6
 8006b02:	428b      	cmp	r3, r1
 8006b04:	d301      	bcc.n	8006b0a <__divsi3+0xba>
 8006b06:	018b      	lsls	r3, r1, #6
 8006b08:	1ac0      	subs	r0, r0, r3
 8006b0a:	4152      	adcs	r2, r2
 8006b0c:	0943      	lsrs	r3, r0, #5
 8006b0e:	428b      	cmp	r3, r1
 8006b10:	d301      	bcc.n	8006b16 <__divsi3+0xc6>
 8006b12:	014b      	lsls	r3, r1, #5
 8006b14:	1ac0      	subs	r0, r0, r3
 8006b16:	4152      	adcs	r2, r2
 8006b18:	0903      	lsrs	r3, r0, #4
 8006b1a:	428b      	cmp	r3, r1
 8006b1c:	d301      	bcc.n	8006b22 <__divsi3+0xd2>
 8006b1e:	010b      	lsls	r3, r1, #4
 8006b20:	1ac0      	subs	r0, r0, r3
 8006b22:	4152      	adcs	r2, r2
 8006b24:	08c3      	lsrs	r3, r0, #3
 8006b26:	428b      	cmp	r3, r1
 8006b28:	d301      	bcc.n	8006b2e <__divsi3+0xde>
 8006b2a:	00cb      	lsls	r3, r1, #3
 8006b2c:	1ac0      	subs	r0, r0, r3
 8006b2e:	4152      	adcs	r2, r2
 8006b30:	0883      	lsrs	r3, r0, #2
 8006b32:	428b      	cmp	r3, r1
 8006b34:	d301      	bcc.n	8006b3a <__divsi3+0xea>
 8006b36:	008b      	lsls	r3, r1, #2
 8006b38:	1ac0      	subs	r0, r0, r3
 8006b3a:	4152      	adcs	r2, r2
 8006b3c:	0843      	lsrs	r3, r0, #1
 8006b3e:	428b      	cmp	r3, r1
 8006b40:	d301      	bcc.n	8006b46 <__divsi3+0xf6>
 8006b42:	004b      	lsls	r3, r1, #1
 8006b44:	1ac0      	subs	r0, r0, r3
 8006b46:	4152      	adcs	r2, r2
 8006b48:	1a41      	subs	r1, r0, r1
 8006b4a:	d200      	bcs.n	8006b4e <__divsi3+0xfe>
 8006b4c:	4601      	mov	r1, r0
 8006b4e:	4152      	adcs	r2, r2
 8006b50:	4610      	mov	r0, r2
 8006b52:	4770      	bx	lr
 8006b54:	e05d      	b.n	8006c12 <__divsi3+0x1c2>
 8006b56:	0fca      	lsrs	r2, r1, #31
 8006b58:	d000      	beq.n	8006b5c <__divsi3+0x10c>
 8006b5a:	4249      	negs	r1, r1
 8006b5c:	1003      	asrs	r3, r0, #32
 8006b5e:	d300      	bcc.n	8006b62 <__divsi3+0x112>
 8006b60:	4240      	negs	r0, r0
 8006b62:	4053      	eors	r3, r2
 8006b64:	2200      	movs	r2, #0
 8006b66:	469c      	mov	ip, r3
 8006b68:	0903      	lsrs	r3, r0, #4
 8006b6a:	428b      	cmp	r3, r1
 8006b6c:	d32d      	bcc.n	8006bca <__divsi3+0x17a>
 8006b6e:	0a03      	lsrs	r3, r0, #8
 8006b70:	428b      	cmp	r3, r1
 8006b72:	d312      	bcc.n	8006b9a <__divsi3+0x14a>
 8006b74:	22fc      	movs	r2, #252	; 0xfc
 8006b76:	0189      	lsls	r1, r1, #6
 8006b78:	ba12      	rev	r2, r2
 8006b7a:	0a03      	lsrs	r3, r0, #8
 8006b7c:	428b      	cmp	r3, r1
 8006b7e:	d30c      	bcc.n	8006b9a <__divsi3+0x14a>
 8006b80:	0189      	lsls	r1, r1, #6
 8006b82:	1192      	asrs	r2, r2, #6
 8006b84:	428b      	cmp	r3, r1
 8006b86:	d308      	bcc.n	8006b9a <__divsi3+0x14a>
 8006b88:	0189      	lsls	r1, r1, #6
 8006b8a:	1192      	asrs	r2, r2, #6
 8006b8c:	428b      	cmp	r3, r1
 8006b8e:	d304      	bcc.n	8006b9a <__divsi3+0x14a>
 8006b90:	0189      	lsls	r1, r1, #6
 8006b92:	d03a      	beq.n	8006c0a <__divsi3+0x1ba>
 8006b94:	1192      	asrs	r2, r2, #6
 8006b96:	e000      	b.n	8006b9a <__divsi3+0x14a>
 8006b98:	0989      	lsrs	r1, r1, #6
 8006b9a:	09c3      	lsrs	r3, r0, #7
 8006b9c:	428b      	cmp	r3, r1
 8006b9e:	d301      	bcc.n	8006ba4 <__divsi3+0x154>
 8006ba0:	01cb      	lsls	r3, r1, #7
 8006ba2:	1ac0      	subs	r0, r0, r3
 8006ba4:	4152      	adcs	r2, r2
 8006ba6:	0983      	lsrs	r3, r0, #6
 8006ba8:	428b      	cmp	r3, r1
 8006baa:	d301      	bcc.n	8006bb0 <__divsi3+0x160>
 8006bac:	018b      	lsls	r3, r1, #6
 8006bae:	1ac0      	subs	r0, r0, r3
 8006bb0:	4152      	adcs	r2, r2
 8006bb2:	0943      	lsrs	r3, r0, #5
 8006bb4:	428b      	cmp	r3, r1
 8006bb6:	d301      	bcc.n	8006bbc <__divsi3+0x16c>
 8006bb8:	014b      	lsls	r3, r1, #5
 8006bba:	1ac0      	subs	r0, r0, r3
 8006bbc:	4152      	adcs	r2, r2
 8006bbe:	0903      	lsrs	r3, r0, #4
 8006bc0:	428b      	cmp	r3, r1
 8006bc2:	d301      	bcc.n	8006bc8 <__divsi3+0x178>
 8006bc4:	010b      	lsls	r3, r1, #4
 8006bc6:	1ac0      	subs	r0, r0, r3
 8006bc8:	4152      	adcs	r2, r2
 8006bca:	08c3      	lsrs	r3, r0, #3
 8006bcc:	428b      	cmp	r3, r1
 8006bce:	d301      	bcc.n	8006bd4 <__divsi3+0x184>
 8006bd0:	00cb      	lsls	r3, r1, #3
 8006bd2:	1ac0      	subs	r0, r0, r3
 8006bd4:	4152      	adcs	r2, r2
 8006bd6:	0883      	lsrs	r3, r0, #2
 8006bd8:	428b      	cmp	r3, r1
 8006bda:	d301      	bcc.n	8006be0 <__divsi3+0x190>
 8006bdc:	008b      	lsls	r3, r1, #2
 8006bde:	1ac0      	subs	r0, r0, r3
 8006be0:	4152      	adcs	r2, r2
 8006be2:	d2d9      	bcs.n	8006b98 <__divsi3+0x148>
 8006be4:	0843      	lsrs	r3, r0, #1
 8006be6:	428b      	cmp	r3, r1
 8006be8:	d301      	bcc.n	8006bee <__divsi3+0x19e>
 8006bea:	004b      	lsls	r3, r1, #1
 8006bec:	1ac0      	subs	r0, r0, r3
 8006bee:	4152      	adcs	r2, r2
 8006bf0:	1a41      	subs	r1, r0, r1
 8006bf2:	d200      	bcs.n	8006bf6 <__divsi3+0x1a6>
 8006bf4:	4601      	mov	r1, r0
 8006bf6:	4663      	mov	r3, ip
 8006bf8:	4152      	adcs	r2, r2
 8006bfa:	105b      	asrs	r3, r3, #1
 8006bfc:	4610      	mov	r0, r2
 8006bfe:	d301      	bcc.n	8006c04 <__divsi3+0x1b4>
 8006c00:	4240      	negs	r0, r0
 8006c02:	2b00      	cmp	r3, #0
 8006c04:	d500      	bpl.n	8006c08 <__divsi3+0x1b8>
 8006c06:	4249      	negs	r1, r1
 8006c08:	4770      	bx	lr
 8006c0a:	4663      	mov	r3, ip
 8006c0c:	105b      	asrs	r3, r3, #1
 8006c0e:	d300      	bcc.n	8006c12 <__divsi3+0x1c2>
 8006c10:	4240      	negs	r0, r0
 8006c12:	b501      	push	{r0, lr}
 8006c14:	2000      	movs	r0, #0
 8006c16:	f000 f805 	bl	8006c24 <__aeabi_idiv0>
 8006c1a:	bd02      	pop	{r1, pc}

08006c1c <__aeabi_idivmod>:
 8006c1c:	2900      	cmp	r1, #0
 8006c1e:	d0f8      	beq.n	8006c12 <__divsi3+0x1c2>
 8006c20:	e716      	b.n	8006a50 <__divsi3>
 8006c22:	4770      	bx	lr

08006c24 <__aeabi_idiv0>:
 8006c24:	4770      	bx	lr
 8006c26:	46c0      	nop			; (mov r8, r8)

08006c28 <_sbrk>:
 8006c28:	4a04      	ldr	r2, [pc, #16]	; (8006c3c <_sbrk+0x14>)
 8006c2a:	0003      	movs	r3, r0
 8006c2c:	6810      	ldr	r0, [r2, #0]
 8006c2e:	2800      	cmp	r0, #0
 8006c30:	d002      	beq.n	8006c38 <_sbrk+0x10>
 8006c32:	18c3      	adds	r3, r0, r3
 8006c34:	6013      	str	r3, [r2, #0]
 8006c36:	4770      	bx	lr
 8006c38:	4801      	ldr	r0, [pc, #4]	; (8006c40 <_sbrk+0x18>)
 8006c3a:	e7fa      	b.n	8006c32 <_sbrk+0xa>
 8006c3c:	2000057c 	.word	0x2000057c
 8006c40:	20000590 	.word	0x20000590
 8006c44:	00000000 	.word	0x00000000

08006c48 <__mem_flash_do_write_half_page_veneer>:
 8006c48:	b401      	push	{r0}
 8006c4a:	4802      	ldr	r0, [pc, #8]	; (8006c54 <__mem_flash_do_write_half_page_veneer+0xc>)
 8006c4c:	4684      	mov	ip, r0
 8006c4e:	bc01      	pop	{r0}
 8006c50:	4760      	bx	ip
 8006c52:	bf00      	nop
 8006c54:	20000081 	.word	0x20000081

08006c58 <__mem_flash_do_page_erase_veneer>:
 8006c58:	b401      	push	{r0}
 8006c5a:	4802      	ldr	r0, [pc, #8]	; (8006c64 <__mem_flash_do_page_erase_veneer+0xc>)
 8006c5c:	4684      	mov	ip, r0
 8006c5e:	bc01      	pop	{r0}
 8006c60:	4760      	bx	ip
 8006c62:	bf00      	nop
 8006c64:	20000041 	.word	0x20000041
 8006c68:	2074754f 	.word	0x2074754f
 8006c6c:	6f706552 	.word	0x6f706552
 8006c70:	43207472 	.word	0x43207472
 8006c74:	626c6c61 	.word	0x626c6c61
 8006c78:	0a6b6361 	.word	0x0a6b6361
 8006c7c:	00000000 	.word	0x00000000
 8006c80:	00000049 	.word	0x00000049
 8006c84:	6c6f6f43 	.word	0x6c6f6f43
 8006c88:	65736145 	.word	0x65736145
 8006c8c:	00000000 	.word	0x00000000
 8006c90:	6c6f6f43 	.word	0x6c6f6f43
 8006c94:	65736145 	.word	0x65736145
 8006c98:	62754820 	.word	0x62754820
 8006c9c:	00000000 	.word	0x00000000
 8006ca0:	34333231 	.word	0x34333231
 8006ca4:	00000035 	.word	0x00000035
 8006ca8:	74737543 	.word	0x74737543
 8006cac:	48206d6f 	.word	0x48206d6f
 8006cb0:	43204449 	.word	0x43204449
 8006cb4:	69666e6f 	.word	0x69666e6f
 8006cb8:	73754367 	.word	0x73754367
 8006cbc:	206d6f74 	.word	0x206d6f74
 8006cc0:	20444948 	.word	0x20444948
 8006cc4:	65746e49 	.word	0x65746e49
 8006cc8:	63616672 	.word	0x63616672
 8006ccc:	00000065 	.word	0x00000065

08006cd0 <cfg_desc>:
 8006cd0:	00000209 80040101 006d54c8 00000008     .........Tm.....

08006ce0 <dev_desc>:
 8006ce0:	02000112 40000000 57500483 02010200     .......@..PW....
 8006cf0:	00000103                                ....

08006cf4 <hid_function>:
 8006cf4:	01112109 19220100 00000000              .!....".....

08006d00 <hid_interface>:
 8006d00:	00000409 00000302 006d1805 006cf408     ..........m...l.
 8006d10:	00000908 00000000                       ........

08006d18 <hid_interface_endpoints>:
 8006d18:	03810507 00010040 00000000 07000000     ....@...........
 8006d28:	40030105 00000100 00000000 00000000     ...@............

08006d38 <hid_report_descriptor>:
 8006d38:	09ff0006 0901a101 26001501 087500ff     ...........&..u.
 8006d48:	02814095 02910109 000000c0              .@..........

08006d54 <interfaces>:
 8006d54:	00000000 00000001 00000000 08006d00     .............m..

08006d64 <usb_strings>:
 8006d64:	08006c84 08006c90 08006ca0 08006ca8     .l...l...l...l..
 8006d74:	20627548 72617453 00000a74 20627548     Hub Start...Hub 
 8006d84:	706f6f4c 00000a0a 0a696d6e 00000000     Loop....nmi.....
 8006d94:	64726168 75616620 000a746c 67756c50     hard fault..Plug
 8006da4:	20646567 0a74754f 00000000 67756c50     ged Out.....Plug
 8006db4:	20646567 000a6e49 65736552 65532074     ged In..Reset Se
 8006dc4:	6e657571 000a6563 6f727245 44412072     quence..Error AD
 8006dd4:	53492043 65442052 74756166 73614320     C ISR Defaut Cas
 8006de4:	00000a65 0800459e 080045b8 080045e4     e....E...E...E..
 8006df4:	0800461c 0800463c 6f4c0a0a 6e492067     .F..<F....Log In
 8006e04:	2d0a7469 2d2d2d2d 2d2d2d2d 2d2d2d2d     it.-------------
 8006e14:	0a2d2d2d 00000000 206d654d 20676f4c     ---.....Mem Log 
 8006e24:	52504545 41204d4f 65726464 6f207373     EEPROM Address o
 8006e34:	6f207475 6f622066 73646e75 0000000a     ut of bounds....
 8006e44:	08004baa 08004bb8 08004bb8 08004bb8     .K...K...K...K..
 8006e54:	08004bb8 08004bb8 08004bb8 08004bb8     .K...K...K...K..
 8006e64:	08004bb8 08004bb8 08004bb8 08004bb8     .K...K...K...K..
 8006e74:	08004bb8 08004bb8 08004bb8 08004bb8     .K...K...K...K..
 8006e84:	08004bb8 08004bb8 08004bb8 08004bb8     .K...K...K...K..
 8006e94:	08004bb8 08004bb8 08004bb8 08004bb8     .K...K...K...K..
 8006ea4:	08004bb8 08004bb8 08004bb8 08004bb8     .K...K...K...K..
 8006eb4:	08004bb8 08004bb8 08004bb8 08004bb8     .K...K...K...K..
 8006ec4:	08004bb8 08004bb8 08004bb8 08004bb8     .K...K...K...K..
 8006ed4:	08004bb8 08004bb8 08004bb8 08004bb8     .K...K...K...K..
 8006ee4:	08004bb8 08004bb8 08004bb8 08004bb8     .K...K...K...K..
 8006ef4:	08004bb8 08004bb8 08004bb8 08004bb8     .K...K...K...K..
 8006f04:	08004bb8 08004bb8 08004bb8 08004ade     .K...K...K...J..
 8006f14:	08004bb8 08004bb8 08004bb8 08004bb8     .K...K...K...K..
 8006f24:	08004bb8 08004bb8 08004bb8 08004bb8     .K...K...K...K..
 8006f34:	08004bb8 08004ade 08004b40 08004ade     .K...J..@K...J..
 8006f44:	08004bb8 08004bb8 08004bb8 08004bb8     .K...K...K...K..
 8006f54:	08004ade 08004bb8 08004bb8 08004bb8     .J...K...K...K..
 8006f64:	08004bb8 08004bb8 08004ade 08004b8a     .K...K...J...K..
 8006f74:	08004bb8 08004bb8 08004b54 08004bb8     .K...K..TK...K..
 8006f84:	08004ade 08004bb8 08004bb8 08004ade     .J...K...K...J..
 8006f94:	204d4652 20495053 74697257 00000065     RFM SPI Write...
 8006fa4:	74736554 6d654d20 69725720 52206574     Test Mem Write R
 8006fb4:	0a646165 0000000a 52504545 53204d4f     ead.....EEPROM S
 8006fc4:	74726174 3025203a 3a207838 38302520     tart: %08x : %08
 8006fd4:	00000a78 676f7250 6d6d6172 3a676e69     x...Programming:
 8006fe4:	38302520 00000a78 52504545 45204d4f      %08x...EEPROM E
 8006ff4:	203a646e 78383025 25203a20 0a783830     nd: %08x : %08x.
 8007004:	0000000a 73616c46 72452068 0a657361     ....Flash Erase.
 8007014:	00000000 73616c46 74532068 3a747261     ....Flash Start:
 8007024:	38302520 203a2078 78383025 3830250a      %08x : %08x.%08
 8007034:	203a2078 78383025 0000000a 676f7250     x : %08x....Prog
 8007044:	6d6d6172 20676e69 78383025 38302520     ramming %08x %08
 8007054:	00000a78 73616c46 6e452068 25203a64     x...Flash End: %
 8007064:	20783830 3025203a 250a7838 20783830     08x : %08x.%08x 
 8007074:	3025203a 000a7838 656d6954 2074756f     : %08x..Timeout 
 8007084:	25207325 0a583830 00000000 20435452     %s %08X.....RTC 
 8007094:	0a525349 00000000                       ISR.....

0800709c <st_usbfs_v2_usb_driver>:
 800709c:	0800665d 08006159 080061a1 080062b5     ]f..Ya...a...b..
 80070ac:	080062f9 080063d9 0800639d 08006425     .b...c...c..%d..
 80070bc:	08006499 08006541 0800663d 00000000     .d..Ae..=f......
 80070cc:	00000000                                ....

Disassembly of section .data:

20000000 <hid_report_buf>:
20000000:	61666544 20746c75 6f706552 42207472     Default Report B
20000010:	65666675 00000072 00000000 00000000     uffer...........
	...

20000040 <mem_flash_do_page_erase>:
 * address: Page-aligned address to erase
 */
static _RAM bool mem_flash_do_page_erase(uint32_t address)
{
    //erase operation
    FLASH_PECR |= FLASH_PECR_ERASE | FLASH_PECR_PROG;
20000040:	4a0c      	ldr	r2, [pc, #48]	; (20000074 <mem_flash_do_page_erase+0x34>)
20000042:	6811      	ldr	r1, [r2, #0]
20000044:	2382      	movs	r3, #130	; 0x82
20000046:	009b      	lsls	r3, r3, #2
20000048:	430b      	orrs	r3, r1
2000004a:	6013      	str	r3, [r2, #0]
    MMIO32(address) = (uint32_t)0;
2000004c:	2300      	movs	r3, #0
2000004e:	6003      	str	r3, [r0, #0]
    //wait for completion
    while (FLASH_SR & FLASH_SR_BSY) { }
20000050:	4b09      	ldr	r3, [pc, #36]	; (20000078 <mem_flash_do_page_erase+0x38>)
20000052:	681b      	ldr	r3, [r3, #0]
20000054:	07db      	lsls	r3, r3, #31
20000056:	d4fb      	bmi.n	20000050 <mem_flash_do_page_erase+0x10>
    if (FLASH_SR & FLASH_SR_EOP)
20000058:	4b07      	ldr	r3, [pc, #28]	; (20000078 <mem_flash_do_page_erase+0x38>)
2000005a:	681b      	ldr	r3, [r3, #0]
2000005c:	079b      	lsls	r3, r3, #30
2000005e:	d504      	bpl.n	2000006a <mem_flash_do_page_erase+0x2a>
    {
        //completed without incident
        FLASH_SR = FLASH_SR_EOP;
20000060:	4b05      	ldr	r3, [pc, #20]	; (20000078 <mem_flash_do_page_erase+0x38>)
20000062:	2202      	movs	r2, #2
20000064:	601a      	str	r2, [r3, #0]
        return true;
20000066:	2001      	movs	r0, #1
    {
        //there was an error
        FLASH_SR = FLASH_SR_FWWERR | FLASH_SR_PGAERR | FLASH_SR_WRPERR;
        return false;
    }
}
20000068:	4770      	bx	lr
        FLASH_SR = FLASH_SR_FWWERR | FLASH_SR_PGAERR | FLASH_SR_WRPERR;
2000006a:	4b03      	ldr	r3, [pc, #12]	; (20000078 <mem_flash_do_page_erase+0x38>)
2000006c:	4a03      	ldr	r2, [pc, #12]	; (2000007c <mem_flash_do_page_erase+0x3c>)
2000006e:	601a      	str	r2, [r3, #0]
        return false;
20000070:	2000      	movs	r0, #0
20000072:	e7f9      	b.n	20000068 <mem_flash_do_page_erase+0x28>
20000074:	40022004 	.word	0x40022004
20000078:	40022018 	.word	0x40022018
2000007c:	00020300 	.word	0x00020300

20000080 <mem_flash_do_write_half_page>:
 *
 * address: Half-page aligned address to write
 * data: Array to 16 32-bit words to write
 */
static _RAM bool mem_flash_do_write_half_page(uint32_t address, uint32_t *data)
{
20000080:	b510      	push	{r4, lr}
    uint8_t i;

    //half-page program operation
    FLASH_PECR |= FLASH_PECR_PROG | FLASH_PECR_FPRG;
20000082:	4a10      	ldr	r2, [pc, #64]	; (200000c4 <mem_flash_do_write_half_page+0x44>)
20000084:	6814      	ldr	r4, [r2, #0]
20000086:	2381      	movs	r3, #129	; 0x81
20000088:	00db      	lsls	r3, r3, #3
2000008a:	4323      	orrs	r3, r4
2000008c:	6013      	str	r3, [r2, #0]
    for (i = 0; i < 16; i++)
2000008e:	2300      	movs	r3, #0
20000090:	2b0f      	cmp	r3, #15
20000092:	d805      	bhi.n	200000a0 <mem_flash_do_write_half_page+0x20>
    {
        MMIO32(address) = data[i]; //the actual address written is unimportant as these words will be queued
20000094:	009a      	lsls	r2, r3, #2
20000096:	5852      	ldr	r2, [r2, r1]
20000098:	6002      	str	r2, [r0, #0]
    for (i = 0; i < 16; i++)
2000009a:	3301      	adds	r3, #1
2000009c:	b2db      	uxtb	r3, r3
2000009e:	e7f7      	b.n	20000090 <mem_flash_do_write_half_page+0x10>
    }
    //wait for completion
    while (FLASH_SR & FLASH_SR_BSY) { }
200000a0:	4b09      	ldr	r3, [pc, #36]	; (200000c8 <mem_flash_do_write_half_page+0x48>)
200000a2:	681b      	ldr	r3, [r3, #0]
200000a4:	07db      	lsls	r3, r3, #31
200000a6:	d4fb      	bmi.n	200000a0 <mem_flash_do_write_half_page+0x20>
    if (FLASH_SR & FLASH_SR_EOP)
200000a8:	4b07      	ldr	r3, [pc, #28]	; (200000c8 <mem_flash_do_write_half_page+0x48>)
200000aa:	681b      	ldr	r3, [r3, #0]
200000ac:	079b      	lsls	r3, r3, #30
200000ae:	d504      	bpl.n	200000ba <mem_flash_do_write_half_page+0x3a>
    {
        //completed without incident
        FLASH_SR = FLASH_SR_EOP;
200000b0:	4b05      	ldr	r3, [pc, #20]	; (200000c8 <mem_flash_do_write_half_page+0x48>)
200000b2:	2202      	movs	r2, #2
200000b4:	601a      	str	r2, [r3, #0]
        return true;
200000b6:	2001      	movs	r0, #1
        //there was an error
        FLASH_SR = FLASH_SR_FWWERR | FLASH_SR_NOTZEROERR | FLASH_SR_PGAERR | FLASH_SR_WRPERR;
        return false;

    }
}
200000b8:	bd10      	pop	{r4, pc}
        FLASH_SR = FLASH_SR_FWWERR | FLASH_SR_NOTZEROERR | FLASH_SR_PGAERR | FLASH_SR_WRPERR;
200000ba:	4b03      	ldr	r3, [pc, #12]	; (200000c8 <mem_flash_do_write_half_page+0x48>)
200000bc:	4a03      	ldr	r2, [pc, #12]	; (200000cc <mem_flash_do_write_half_page+0x4c>)
200000be:	601a      	str	r2, [r3, #0]
        return false;
200000c0:	2000      	movs	r0, #0
200000c2:	e7f9      	b.n	200000b8 <mem_flash_do_write_half_page+0x38>
200000c4:	40022004 	.word	0x40022004
200000c8:	40022018 	.word	0x40022018
200000cc:	00030300 	.word	0x00030300

200000d0 <rcc_ahb_frequency>:
200000d0:	001fff68                                h...

200000d4 <rcc_apb1_frequency>:
200000d4:	001fff68                                h...

200000d8 <rcc_apb2_frequency>:
200000d8:	001fff68                                h...

200000dc <_impure_ptr>:
200000dc:	200000e0                                ... 

200000e0 <impure_data>:
	...
