
hub/bin/hub.elf:     file format elf32-littlearm

Sections:
Idx Name          Size      VMA       LMA       File off  Algn
  0 .text         00002910  08004000  08004000  00000098  2**3
                  CONTENTS, ALLOC, LOAD, READONLY, CODE
  1 .preinit_array 00000000  08006910  08006910  000029b4  2**0
                  CONTENTS, ALLOC, LOAD, DATA
  2 .init_array   00000000  08006910  08006910  000029b4  2**0
                  CONTENTS, ALLOC, LOAD, DATA
  3 .fini_array   00000000  08006910  08006910  000029b4  2**0
                  CONTENTS, ALLOC, LOAD, DATA
  4 .data         0000000c  20000000  08006910  000029a8  2**2
                  CONTENTS, ALLOC, LOAD, DATA
  5 .bss          000002a0  2000000c  0800691c  000029b4  2**2
                  ALLOC
  6 ._user_heap_stack 00001004  200002ac  0800691c  000029b4  2**0
                  ALLOC
  7 .ARM.attributes 0000002a  00000000  00000000  000029b4  2**0
                  CONTENTS, READONLY
  8 .comment      0000004c  00000000  00000000  000029de  2**0
                  CONTENTS, READONLY
  9 .debug_info   00005008  00000000  00000000  00002a2a  2**0
                  CONTENTS, READONLY, DEBUGGING, OCTETS
 10 .debug_abbrev 0000134d  00000000  00000000  00007a32  2**0
                  CONTENTS, READONLY, DEBUGGING, OCTETS
 11 .debug_loc    000025e2  00000000  00000000  00008d7f  2**0
                  CONTENTS, READONLY, DEBUGGING, OCTETS
 12 .debug_aranges 00000a50  00000000  00000000  0000b361  2**0
                  CONTENTS, READONLY, DEBUGGING, OCTETS
 13 .debug_ranges 00000a40  00000000  00000000  0000bdb1  2**0
                  CONTENTS, READONLY, DEBUGGING, OCTETS
 14 .debug_macro  00004e16  00000000  00000000  0000c7f1  2**0
                  CONTENTS, READONLY, DEBUGGING, OCTETS
 15 .debug_line   000066f7  00000000  00000000  00011607  2**0
                  CONTENTS, READONLY, DEBUGGING, OCTETS
 16 .debug_str    00017138  00000000  00000000  00017cfe  2**0
                  CONTENTS, READONLY, DEBUGGING, OCTETS
 17 .debug_frame  000016f0  00000000  00000000  0002ee38  2**2
                  CONTENTS, READONLY, DEBUGGING, OCTETS

Disassembly of section .text:

08004000 <vector_table>:
 8004000:	00 20 00 20 11 54 00 08 c5 40 00 08 d5 40 00 08     . . .T...@...@..
	...
 800402c:	0d 54 00 08 00 00 00 00 00 00 00 00 0d 54 00 08     .T...........T..
 800403c:	0d 54 00 08 0b 54 00 08 0b 54 00 08 d9 4f 00 08     .T...T...T...O..
 800404c:	0b 54 00 08 0b 54 00 08 0b 54 00 08 0b 54 00 08     .T...T...T...T..
 800405c:	8d 4c 00 08 0b 54 00 08 0b 54 00 08 0b 54 00 08     .L...T...T...T..
 800406c:	0b 54 00 08 1d 41 00 08 0b 54 00 08 0b 54 00 08     .T...A...T...T..
 800407c:	0b 54 00 08 0b 54 00 08 0b 54 00 08 0b 54 00 08     .T...T...T...T..
 800408c:	0b 54 00 08 0b 54 00 08 0b 54 00 08 0b 54 00 08     .T...T...T...T..
 800409c:	0b 54 00 08 0b 54 00 08 0b 54 00 08 0b 54 00 08     .T...T...T...T..
 80040ac:	0b 54 00 08 e5 40 00 08 0b 54 00 08 0b 54 00 08     .T...@...T...T..
 80040bc:	0b 54 00 08                                         .T..

080040c0 <main>:
 80040c0:	2000      	movs	r0, #0
 80040c2:	4770      	bx	lr

080040c4 <nmi_handler>:
 80040c4:	b510      	push	{r4, lr}
 80040c6:	4802      	ldr	r0, [pc, #8]	; (80040d0 <nmi_handler+0xc>)
 80040c8:	f000 fe9c 	bl	8004e04 <spf_serial_printf>
 80040cc:	e7fe      	b.n	80040cc <nmi_handler+0x8>
 80040ce:	46c0      	nop			; (mov r8, r8)
 80040d0:	080067f0 	.word	0x080067f0

080040d4 <hard_fault_handler>:
 80040d4:	b510      	push	{r4, lr}
 80040d6:	4802      	ldr	r0, [pc, #8]	; (80040e0 <hard_fault_handler+0xc>)
 80040d8:	f000 fe94 	bl	8004e04 <spf_serial_printf>
 80040dc:	e7fe      	b.n	80040dc <hard_fault_handler+0x8>
 80040de:	46c0      	nop			; (mov r8, r8)
 80040e0:	080067f5 	.word	0x080067f5

080040e4 <usart2_isr>:
 80040e4:	b510      	push	{r4, lr}
 80040e6:	4c09      	ldr	r4, [pc, #36]	; (800410c <usart2_isr+0x28>)
 80040e8:	0020      	movs	r0, r4
 80040ea:	f001 f97f 	bl	80053ec <usart_recv>
 80040ee:	0001      	movs	r1, r0
 80040f0:	4807      	ldr	r0, [pc, #28]	; (8004110 <usart2_isr+0x2c>)
 80040f2:	f001 f977 	bl	80053e4 <usart_send>
 80040f6:	0020      	movs	r0, r4
 80040f8:	f001 f978 	bl	80053ec <usart_recv>
 80040fc:	4a05      	ldr	r2, [pc, #20]	; (8004114 <usart2_isr+0x30>)
 80040fe:	7813      	ldrb	r3, [r2, #0]
 8004100:	1c59      	adds	r1, r3, #1
 8004102:	7011      	strb	r1, [r2, #0]
 8004104:	4a04      	ldr	r2, [pc, #16]	; (8004118 <usart2_isr+0x34>)
 8004106:	54d0      	strb	r0, [r2, r3]
 8004108:	bd10      	pop	{r4, pc}
 800410a:	46c0      	nop			; (mov r8, r8)
 800410c:	40004400 	.word	0x40004400
 8004110:	40013800 	.word	0x40013800
 8004114:	2000010c 	.word	0x2000010c
 8004118:	2000000c 	.word	0x2000000c

0800411c <adc_comp_isr>:
 800411c:	b5f7      	push	{r0, r1, r2, r4, r5, r6, r7, lr}
 800411e:	4e3f      	ldr	r6, [pc, #252]	; (800421c <adc_comp_isr+0x100>)
 8004120:	4f3f      	ldr	r7, [pc, #252]	; (8004220 <adc_comp_isr+0x104>)
 8004122:	8833      	ldrh	r3, [r6, #0]
 8004124:	8838      	ldrh	r0, [r7, #0]
 8004126:	031d      	lsls	r5, r3, #12
 8004128:	1aed      	subs	r5, r5, r3
 800412a:	8873      	ldrh	r3, [r6, #2]
 800412c:	0029      	movs	r1, r5
 800412e:	4358      	muls	r0, r3
 8004130:	2396      	movs	r3, #150	; 0x96
 8004132:	005b      	lsls	r3, r3, #1
 8004134:	4358      	muls	r0, r3
 8004136:	f001 f9c3 	bl	80054c0 <__udivsi3>
 800413a:	4c3a      	ldr	r4, [pc, #232]	; (8004224 <adc_comp_isr+0x108>)
 800413c:	b282      	uxth	r2, r0
 800413e:	8022      	strh	r2, [r4, #0]
 8004140:	9201      	str	r2, [sp, #4]
 8004142:	88b3      	ldrh	r3, [r6, #4]
 8004144:	8838      	ldrh	r0, [r7, #0]
 8004146:	0029      	movs	r1, r5
 8004148:	4358      	muls	r0, r3
 800414a:	2396      	movs	r3, #150	; 0x96
 800414c:	005b      	lsls	r3, r3, #1
 800414e:	4358      	muls	r0, r3
 8004150:	f001 f9b6 	bl	80054c0 <__udivsi3>
 8004154:	9a01      	ldr	r2, [sp, #4]
 8004156:	4d34      	ldr	r5, [pc, #208]	; (8004228 <adc_comp_isr+0x10c>)
 8004158:	b283      	uxth	r3, r0
 800415a:	0052      	lsls	r2, r2, #1
 800415c:	005b      	lsls	r3, r3, #1
 800415e:	7828      	ldrb	r0, [r5, #0]
 8004160:	b292      	uxth	r2, r2
 8004162:	b29b      	uxth	r3, r3
 8004164:	8022      	strh	r2, [r4, #0]
 8004166:	8063      	strh	r3, [r4, #2]
 8004168:	2804      	cmp	r0, #4
 800416a:	d855      	bhi.n	8004218 <adc_comp_isr+0xfc>
 800416c:	f001 f994 	bl	8005498 <__gnu_thumb1_case_uqi>
 8004170:	38231403 	.word	0x38231403
 8004174:	42          	.byte	0x42
 8004175:	00          	.byte	0x00
 8004176:	f000 fe83 	bl	8004e80 <timers_millis>
 800417a:	4b2c      	ldr	r3, [pc, #176]	; (800422c <adc_comp_isr+0x110>)
 800417c:	8822      	ldrh	r2, [r4, #0]
 800417e:	8018      	strh	r0, [r3, #0]
 8004180:	8863      	ldrh	r3, [r4, #2]
 8004182:	429a      	cmp	r2, r3
 8004184:	d201      	bcs.n	800418a <adc_comp_isr+0x6e>
 8004186:	2301      	movs	r3, #1
 8004188:	702b      	strb	r3, [r5, #0]
 800418a:	2301      	movs	r3, #1
 800418c:	4828      	ldr	r0, [pc, #160]	; (8004230 <adc_comp_isr+0x114>)
 800418e:	425b      	negs	r3, r3
 8004190:	6003      	str	r3, [r0, #0]
 8004192:	f000 ff45 	bl	8005020 <adc_start_conversion_regular>
 8004196:	bdf7      	pop	{r0, r1, r2, r4, r5, r6, r7, pc}
 8004198:	429a      	cmp	r2, r3
 800419a:	d901      	bls.n	80041a0 <adc_comp_isr+0x84>
 800419c:	2300      	movs	r3, #0
 800419e:	e7f3      	b.n	8004188 <adc_comp_isr+0x6c>
 80041a0:	f000 fe6e 	bl	8004e80 <timers_millis>
 80041a4:	4b21      	ldr	r3, [pc, #132]	; (800422c <adc_comp_isr+0x110>)
 80041a6:	881b      	ldrh	r3, [r3, #0]
 80041a8:	1ac0      	subs	r0, r0, r3
 80041aa:	23fa      	movs	r3, #250	; 0xfa
 80041ac:	009b      	lsls	r3, r3, #2
 80041ae:	4298      	cmp	r0, r3
 80041b0:	ddeb      	ble.n	800418a <adc_comp_isr+0x6e>
 80041b2:	2302      	movs	r3, #2
 80041b4:	e7e8      	b.n	8004188 <adc_comp_isr+0x6c>
 80041b6:	4c1d      	ldr	r4, [pc, #116]	; (800422c <adc_comp_isr+0x110>)
 80041b8:	429a      	cmp	r2, r3
 80041ba:	d904      	bls.n	80041c6 <adc_comp_isr+0xaa>
 80041bc:	f000 fe60 	bl	8004e80 <timers_millis>
 80041c0:	2304      	movs	r3, #4
 80041c2:	8020      	strh	r0, [r4, #0]
 80041c4:	e7e0      	b.n	8004188 <adc_comp_isr+0x6c>
 80041c6:	f000 fe5b 	bl	8004e80 <timers_millis>
 80041ca:	8823      	ldrh	r3, [r4, #0]
 80041cc:	1ac0      	subs	r0, r0, r3
 80041ce:	4b19      	ldr	r3, [pc, #100]	; (8004234 <adc_comp_isr+0x118>)
 80041d0:	4298      	cmp	r0, r3
 80041d2:	ddda      	ble.n	800418a <adc_comp_isr+0x6e>
 80041d4:	2303      	movs	r3, #3
 80041d6:	4818      	ldr	r0, [pc, #96]	; (8004238 <adc_comp_isr+0x11c>)
 80041d8:	702b      	strb	r3, [r5, #0]
 80041da:	f000 fe13 	bl	8004e04 <spf_serial_printf>
 80041de:	e7d4      	b.n	800418a <adc_comp_isr+0x6e>
 80041e0:	429a      	cmp	r2, r3
 80041e2:	d9d2      	bls.n	800418a <adc_comp_isr+0x6e>
 80041e4:	f000 fe4c 	bl	8004e80 <timers_millis>
 80041e8:	4b10      	ldr	r3, [pc, #64]	; (800422c <adc_comp_isr+0x110>)
 80041ea:	8018      	strh	r0, [r3, #0]
 80041ec:	2300      	movs	r3, #0
 80041ee:	4813      	ldr	r0, [pc, #76]	; (800423c <adc_comp_isr+0x120>)
 80041f0:	702b      	strb	r3, [r5, #0]
 80041f2:	e7f2      	b.n	80041da <adc_comp_isr+0xbe>
 80041f4:	429a      	cmp	r2, r3
 80041f6:	d3dc      	bcc.n	80041b2 <adc_comp_isr+0x96>
 80041f8:	f000 fe42 	bl	8004e80 <timers_millis>
 80041fc:	4b0b      	ldr	r3, [pc, #44]	; (800422c <adc_comp_isr+0x110>)
 80041fe:	881b      	ldrh	r3, [r3, #0]
 8004200:	1ac0      	subs	r0, r0, r3
 8004202:	23fa      	movs	r3, #250	; 0xfa
 8004204:	009b      	lsls	r3, r3, #2
 8004206:	4298      	cmp	r0, r3
 8004208:	ddbf      	ble.n	800418a <adc_comp_isr+0x6e>
 800420a:	2300      	movs	r3, #0
 800420c:	2201      	movs	r2, #1
 800420e:	702b      	strb	r3, [r5, #0]
 8004210:	4b0b      	ldr	r3, [pc, #44]	; (8004240 <adc_comp_isr+0x124>)
 8004212:	480c      	ldr	r0, [pc, #48]	; (8004244 <adc_comp_isr+0x128>)
 8004214:	701a      	strb	r2, [r3, #0]
 8004216:	e7e0      	b.n	80041da <adc_comp_isr+0xbe>
 8004218:	480b      	ldr	r0, [pc, #44]	; (8004248 <adc_comp_isr+0x12c>)
 800421a:	e7de      	b.n	80041da <adc_comp_isr+0xbe>
 800421c:	2000010e 	.word	0x2000010e
 8004220:	1ff80078 	.word	0x1ff80078
 8004224:	20000116 	.word	0x20000116
 8004228:	2000011a 	.word	0x2000011a
 800422c:	2000011c 	.word	0x2000011c
 8004230:	40012400 	.word	0x40012400
 8004234:	00002710 	.word	0x00002710
 8004238:	08006801 	.word	0x08006801
 800423c:	0800680e 	.word	0x0800680e
 8004240:	20000114 	.word	0x20000114
 8004244:	0800681a 	.word	0x0800681a
 8004248:	0800682a 	.word	0x0800682a

0800424c <_out_char_spf>:
 800424c:	b510      	push	{r4, lr}
 800424e:	2800      	cmp	r0, #0
 8004250:	d001      	beq.n	8004256 <_out_char_spf+0xa>
 8004252:	f000 fdef 	bl	8004e34 <_putchar_spf>
 8004256:	bd10      	pop	{r4, pc}

08004258 <_out_rev.constprop.0>:
 8004258:	b5f0      	push	{r4, r5, r6, r7, lr}
 800425a:	b085      	sub	sp, #20
 800425c:	9303      	str	r3, [sp, #12]
 800425e:	9b0c      	ldr	r3, [sp, #48]	; 0x30
 8004260:	0016      	movs	r6, r2
 8004262:	0017      	movs	r7, r2
 8004264:	9001      	str	r0, [sp, #4]
 8004266:	9102      	str	r1, [sp, #8]
 8004268:	079b      	lsls	r3, r3, #30
 800426a:	d115      	bne.n	8004298 <_out_rev.constprop.0+0x40>
 800426c:	2501      	movs	r5, #1
 800426e:	9c0a      	ldr	r4, [sp, #40]	; 0x28
 8004270:	426d      	negs	r5, r5
 8004272:	e005      	b.n	8004280 <_out_rev.constprop.0+0x28>
 8004274:	002b      	movs	r3, r5
 8004276:	2020      	movs	r0, #32
 8004278:	9902      	ldr	r1, [sp, #8]
 800427a:	9f01      	ldr	r7, [sp, #4]
 800427c:	47b8      	blx	r7
 800427e:	3401      	adds	r4, #1
 8004280:	9b0a      	ldr	r3, [sp, #40]	; 0x28
 8004282:	1af2      	subs	r2, r6, r3
 8004284:	9b0b      	ldr	r3, [sp, #44]	; 0x2c
 8004286:	1912      	adds	r2, r2, r4
 8004288:	429c      	cmp	r4, r3
 800428a:	d3f3      	bcc.n	8004274 <_out_rev.constprop.0+0x1c>
 800428c:	9a0a      	ldr	r2, [sp, #40]	; 0x28
 800428e:	2700      	movs	r7, #0
 8004290:	4293      	cmp	r3, r2
 8004292:	d300      	bcc.n	8004296 <_out_rev.constprop.0+0x3e>
 8004294:	1a9f      	subs	r7, r3, r2
 8004296:	19bf      	adds	r7, r7, r6
 8004298:	9d0a      	ldr	r5, [sp, #40]	; 0x28
 800429a:	9b0a      	ldr	r3, [sp, #40]	; 0x28
 800429c:	19dc      	adds	r4, r3, r7
 800429e:	1b62      	subs	r2, r4, r5
 80042a0:	2d00      	cmp	r5, #0
 80042a2:	d113      	bne.n	80042cc <_out_rev.constprop.0+0x74>
 80042a4:	9b0c      	ldr	r3, [sp, #48]	; 0x30
 80042a6:	079b      	lsls	r3, r3, #30
 80042a8:	d50d      	bpl.n	80042c6 <_out_rev.constprop.0+0x6e>
 80042aa:	1ba3      	subs	r3, r4, r6
 80042ac:	001d      	movs	r5, r3
 80042ae:	9303      	str	r3, [sp, #12]
 80042b0:	9b0b      	ldr	r3, [sp, #44]	; 0x2c
 80042b2:	1972      	adds	r2, r6, r5
 80042b4:	42ab      	cmp	r3, r5
 80042b6:	d812      	bhi.n	80042de <_out_rev.constprop.0+0x86>
 80042b8:	9903      	ldr	r1, [sp, #12]
 80042ba:	2200      	movs	r2, #0
 80042bc:	428b      	cmp	r3, r1
 80042be:	d301      	bcc.n	80042c4 <_out_rev.constprop.0+0x6c>
 80042c0:	199a      	adds	r2, r3, r6
 80042c2:	1b12      	subs	r2, r2, r4
 80042c4:	18a4      	adds	r4, r4, r2
 80042c6:	0020      	movs	r0, r4
 80042c8:	b005      	add	sp, #20
 80042ca:	bdf0      	pop	{r4, r5, r6, r7, pc}
 80042cc:	9b03      	ldr	r3, [sp, #12]
 80042ce:	3d01      	subs	r5, #1
 80042d0:	5d58      	ldrb	r0, [r3, r5]
 80042d2:	2301      	movs	r3, #1
 80042d4:	9902      	ldr	r1, [sp, #8]
 80042d6:	9c01      	ldr	r4, [sp, #4]
 80042d8:	425b      	negs	r3, r3
 80042da:	47a0      	blx	r4
 80042dc:	e7dd      	b.n	800429a <_out_rev.constprop.0+0x42>
 80042de:	2301      	movs	r3, #1
 80042e0:	2020      	movs	r0, #32
 80042e2:	9902      	ldr	r1, [sp, #8]
 80042e4:	9f01      	ldr	r7, [sp, #4]
 80042e6:	425b      	negs	r3, r3
 80042e8:	47b8      	blx	r7
 80042ea:	3501      	adds	r5, #1
 80042ec:	e7e0      	b.n	80042b0 <_out_rev.constprop.0+0x58>

080042ee <_ntoa_long.constprop.0>:
 80042ee:	b5f0      	push	{r4, r5, r6, r7, lr}
 80042f0:	b093      	sub	sp, #76	; 0x4c
 80042f2:	9208      	str	r2, [sp, #32]
 80042f4:	aa18      	add	r2, sp, #96	; 0x60
 80042f6:	7812      	ldrb	r2, [r2, #0]
 80042f8:	9f1b      	ldr	r7, [sp, #108]	; 0x6c
 80042fa:	9c1c      	ldr	r4, [sp, #112]	; 0x70
 80042fc:	9006      	str	r0, [sp, #24]
 80042fe:	9107      	str	r1, [sp, #28]
 8004300:	9204      	str	r2, [sp, #16]
 8004302:	2b00      	cmp	r3, #0
 8004304:	d101      	bne.n	800430a <_ntoa_long.constprop.0+0x1c>
 8004306:	2210      	movs	r2, #16
 8004308:	4394      	bics	r4, r2
 800430a:	2280      	movs	r2, #128	; 0x80
 800430c:	0021      	movs	r1, r4
 800430e:	00d2      	lsls	r2, r2, #3
 8004310:	4011      	ands	r1, r2
 8004312:	9105      	str	r1, [sp, #20]
 8004314:	4214      	tst	r4, r2
 8004316:	d001      	beq.n	800431c <_ntoa_long.constprop.0+0x2e>
 8004318:	2b00      	cmp	r3, #0
 800431a:	d01f      	beq.n	800435c <_ntoa_long.constprop.0+0x6e>
 800431c:	2261      	movs	r2, #97	; 0x61
 800431e:	06a1      	lsls	r1, r4, #26
 8004320:	d500      	bpl.n	8004324 <_ntoa_long.constprop.0+0x36>
 8004322:	2241      	movs	r2, #65	; 0x41
 8004324:	001d      	movs	r5, r3
 8004326:	2600      	movs	r6, #0
 8004328:	b2d2      	uxtb	r2, r2
 800432a:	3a0a      	subs	r2, #10
 800432c:	9209      	str	r2, [sp, #36]	; 0x24
 800432e:	0028      	movs	r0, r5
 8004330:	9919      	ldr	r1, [sp, #100]	; 0x64
 8004332:	f001 f94b 	bl	80055cc <__aeabi_uidivmod>
 8004336:	9a09      	ldr	r2, [sp, #36]	; 0x24
 8004338:	b2cb      	uxtb	r3, r1
 800433a:	189a      	adds	r2, r3, r2
 800433c:	4684      	mov	ip, r0
 800433e:	b2d2      	uxtb	r2, r2
 8004340:	2909      	cmp	r1, #9
 8004342:	d801      	bhi.n	8004348 <_ntoa_long.constprop.0+0x5a>
 8004344:	3330      	adds	r3, #48	; 0x30
 8004346:	b2da      	uxtb	r2, r3
 8004348:	2010      	movs	r0, #16
 800434a:	a906      	add	r1, sp, #24
 800434c:	1809      	adds	r1, r1, r0
 800434e:	558a      	strb	r2, [r1, r6]
 8004350:	9a19      	ldr	r2, [sp, #100]	; 0x64
 8004352:	1c73      	adds	r3, r6, #1
 8004354:	4295      	cmp	r5, r2
 8004356:	d301      	bcc.n	800435c <_ntoa_long.constprop.0+0x6e>
 8004358:	2b20      	cmp	r3, #32
 800435a:	d111      	bne.n	8004380 <_ntoa_long.constprop.0+0x92>
 800435c:	07a2      	lsls	r2, r4, #30
 800435e:	d421      	bmi.n	80043a4 <_ntoa_long.constprop.0+0xb6>
 8004360:	2201      	movs	r2, #1
 8004362:	4022      	ands	r2, r4
 8004364:	2f00      	cmp	r7, #0
 8004366:	d008      	beq.n	800437a <_ntoa_long.constprop.0+0x8c>
 8004368:	2a00      	cmp	r2, #0
 800436a:	d006      	beq.n	800437a <_ntoa_long.constprop.0+0x8c>
 800436c:	9904      	ldr	r1, [sp, #16]
 800436e:	2900      	cmp	r1, #0
 8004370:	d102      	bne.n	8004378 <_ntoa_long.constprop.0+0x8a>
 8004372:	310c      	adds	r1, #12
 8004374:	420c      	tst	r4, r1
 8004376:	d000      	beq.n	800437a <_ntoa_long.constprop.0+0x8c>
 8004378:	3f01      	subs	r7, #1
 800437a:	2030      	movs	r0, #48	; 0x30
 800437c:	a90a      	add	r1, sp, #40	; 0x28
 800437e:	e004      	b.n	800438a <_ntoa_long.constprop.0+0x9c>
 8004380:	001e      	movs	r6, r3
 8004382:	4665      	mov	r5, ip
 8004384:	e7d3      	b.n	800432e <_ntoa_long.constprop.0+0x40>
 8004386:	5458      	strb	r0, [r3, r1]
 8004388:	3301      	adds	r3, #1
 800438a:	9d1a      	ldr	r5, [sp, #104]	; 0x68
 800438c:	429d      	cmp	r5, r3
 800438e:	d901      	bls.n	8004394 <_ntoa_long.constprop.0+0xa6>
 8004390:	2b20      	cmp	r3, #32
 8004392:	d1f8      	bne.n	8004386 <_ntoa_long.constprop.0+0x98>
 8004394:	2030      	movs	r0, #48	; 0x30
 8004396:	a90a      	add	r1, sp, #40	; 0x28
 8004398:	2a00      	cmp	r2, #0
 800439a:	d003      	beq.n	80043a4 <_ntoa_long.constprop.0+0xb6>
 800439c:	42bb      	cmp	r3, r7
 800439e:	d201      	bcs.n	80043a4 <_ntoa_long.constprop.0+0xb6>
 80043a0:	2b1f      	cmp	r3, #31
 80043a2:	d91b      	bls.n	80043dc <_ntoa_long.constprop.0+0xee>
 80043a4:	06e2      	lsls	r2, r4, #27
 80043a6:	d53c      	bpl.n	8004422 <_ntoa_long.constprop.0+0x134>
 80043a8:	9a05      	ldr	r2, [sp, #20]
 80043aa:	2a00      	cmp	r2, #0
 80043ac:	d11a      	bne.n	80043e4 <_ntoa_long.constprop.0+0xf6>
 80043ae:	2b00      	cmp	r3, #0
 80043b0:	d018      	beq.n	80043e4 <_ntoa_long.constprop.0+0xf6>
 80043b2:	9a1a      	ldr	r2, [sp, #104]	; 0x68
 80043b4:	429a      	cmp	r2, r3
 80043b6:	d001      	beq.n	80043bc <_ntoa_long.constprop.0+0xce>
 80043b8:	42bb      	cmp	r3, r7
 80043ba:	d113      	bne.n	80043e4 <_ntoa_long.constprop.0+0xf6>
 80043bc:	1e5a      	subs	r2, r3, #1
 80043be:	2b01      	cmp	r3, #1
 80043c0:	d00f      	beq.n	80043e2 <_ntoa_long.constprop.0+0xf4>
 80043c2:	9919      	ldr	r1, [sp, #100]	; 0x64
 80043c4:	3b02      	subs	r3, #2
 80043c6:	2910      	cmp	r1, #16
 80043c8:	d00f      	beq.n	80043ea <_ntoa_long.constprop.0+0xfc>
 80043ca:	0013      	movs	r3, r2
 80043cc:	9a19      	ldr	r2, [sp, #100]	; 0x64
 80043ce:	2a02      	cmp	r2, #2
 80043d0:	d121      	bne.n	8004416 <_ntoa_long.constprop.0+0x128>
 80043d2:	2b1f      	cmp	r3, #31
 80043d4:	d80f      	bhi.n	80043f6 <_ntoa_long.constprop.0+0x108>
 80043d6:	2162      	movs	r1, #98	; 0x62
 80043d8:	aa0a      	add	r2, sp, #40	; 0x28
 80043da:	e01a      	b.n	8004412 <_ntoa_long.constprop.0+0x124>
 80043dc:	5458      	strb	r0, [r3, r1]
 80043de:	3301      	adds	r3, #1
 80043e0:	e7da      	b.n	8004398 <_ntoa_long.constprop.0+0xaa>
 80043e2:	0013      	movs	r3, r2
 80043e4:	9a19      	ldr	r2, [sp, #100]	; 0x64
 80043e6:	2a10      	cmp	r2, #16
 80043e8:	d1f0      	bne.n	80043cc <_ntoa_long.constprop.0+0xde>
 80043ea:	aa0a      	add	r2, sp, #40	; 0x28
 80043ec:	06a1      	lsls	r1, r4, #26
 80043ee:	d40d      	bmi.n	800440c <_ntoa_long.constprop.0+0x11e>
 80043f0:	2178      	movs	r1, #120	; 0x78
 80043f2:	2b1f      	cmp	r3, #31
 80043f4:	d90d      	bls.n	8004412 <_ntoa_long.constprop.0+0x124>
 80043f6:	9300      	str	r3, [sp, #0]
 80043f8:	9a08      	ldr	r2, [sp, #32]
 80043fa:	9907      	ldr	r1, [sp, #28]
 80043fc:	9806      	ldr	r0, [sp, #24]
 80043fe:	9402      	str	r4, [sp, #8]
 8004400:	9701      	str	r7, [sp, #4]
 8004402:	ab0a      	add	r3, sp, #40	; 0x28
 8004404:	f7ff ff28 	bl	8004258 <_out_rev.constprop.0>
 8004408:	b013      	add	sp, #76	; 0x4c
 800440a:	bdf0      	pop	{r4, r5, r6, r7, pc}
 800440c:	2158      	movs	r1, #88	; 0x58
 800440e:	2b1f      	cmp	r3, #31
 8004410:	d8f1      	bhi.n	80043f6 <_ntoa_long.constprop.0+0x108>
 8004412:	54d1      	strb	r1, [r2, r3]
 8004414:	3301      	adds	r3, #1
 8004416:	2b1f      	cmp	r3, #31
 8004418:	d8ed      	bhi.n	80043f6 <_ntoa_long.constprop.0+0x108>
 800441a:	2130      	movs	r1, #48	; 0x30
 800441c:	aa0a      	add	r2, sp, #40	; 0x28
 800441e:	54d1      	strb	r1, [r2, r3]
 8004420:	3301      	adds	r3, #1
 8004422:	2b1f      	cmp	r3, #31
 8004424:	d8e7      	bhi.n	80043f6 <_ntoa_long.constprop.0+0x108>
 8004426:	9904      	ldr	r1, [sp, #16]
 8004428:	aa0a      	add	r2, sp, #40	; 0x28
 800442a:	2900      	cmp	r1, #0
 800442c:	d003      	beq.n	8004436 <_ntoa_long.constprop.0+0x148>
 800442e:	212d      	movs	r1, #45	; 0x2d
 8004430:	54d1      	strb	r1, [r2, r3]
 8004432:	3301      	adds	r3, #1
 8004434:	e7df      	b.n	80043f6 <_ntoa_long.constprop.0+0x108>
 8004436:	0761      	lsls	r1, r4, #29
 8004438:	d501      	bpl.n	800443e <_ntoa_long.constprop.0+0x150>
 800443a:	212b      	movs	r1, #43	; 0x2b
 800443c:	e7f8      	b.n	8004430 <_ntoa_long.constprop.0+0x142>
 800443e:	0721      	lsls	r1, r4, #28
 8004440:	d5d9      	bpl.n	80043f6 <_ntoa_long.constprop.0+0x108>
 8004442:	2120      	movs	r1, #32
 8004444:	e7f4      	b.n	8004430 <_ntoa_long.constprop.0+0x142>
	...

08004448 <_vsnprintf.constprop.0>:
 8004448:	b5f0      	push	{r4, r5, r6, r7, lr}
 800444a:	b09d      	sub	sp, #116	; 0x74
 800444c:	900a      	str	r0, [sp, #40]	; 0x28
 800444e:	910b      	str	r1, [sp, #44]	; 0x2c
 8004450:	9207      	str	r2, [sp, #28]
 8004452:	9308      	str	r3, [sp, #32]
 8004454:	2700      	movs	r7, #0
 8004456:	9b07      	ldr	r3, [sp, #28]
 8004458:	7818      	ldrb	r0, [r3, #0]
 800445a:	2800      	cmp	r0, #0
 800445c:	d10d      	bne.n	800447a <_vsnprintf.constprop.0+0x32>
 800445e:	003a      	movs	r2, r7
 8004460:	1cbb      	adds	r3, r7, #2
 8004462:	d901      	bls.n	8004468 <_vsnprintf.constprop.0+0x20>
 8004464:	2202      	movs	r2, #2
 8004466:	4252      	negs	r2, r2
 8004468:	2301      	movs	r3, #1
 800446a:	2000      	movs	r0, #0
 800446c:	990b      	ldr	r1, [sp, #44]	; 0x2c
 800446e:	9c0a      	ldr	r4, [sp, #40]	; 0x28
 8004470:	425b      	negs	r3, r3
 8004472:	47a0      	blx	r4
 8004474:	0038      	movs	r0, r7
 8004476:	b01d      	add	sp, #116	; 0x74
 8004478:	bdf0      	pop	{r4, r5, r6, r7, pc}
 800447a:	9b07      	ldr	r3, [sp, #28]
 800447c:	3301      	adds	r3, #1
 800447e:	9307      	str	r3, [sp, #28]
 8004480:	2825      	cmp	r0, #37	; 0x25
 8004482:	d008      	beq.n	8004496 <_vsnprintf.constprop.0+0x4e>
 8004484:	2301      	movs	r3, #1
 8004486:	003a      	movs	r2, r7
 8004488:	990b      	ldr	r1, [sp, #44]	; 0x2c
 800448a:	9d0a      	ldr	r5, [sp, #40]	; 0x28
 800448c:	425b      	negs	r3, r3
 800448e:	1c7c      	adds	r4, r7, #1
 8004490:	47a8      	blx	r5
 8004492:	0027      	movs	r7, r4
 8004494:	e7df      	b.n	8004456 <_vsnprintf.constprop.0+0xe>
 8004496:	2600      	movs	r6, #0
 8004498:	2504      	movs	r5, #4
 800449a:	2102      	movs	r1, #2
 800449c:	2001      	movs	r0, #1
 800449e:	2408      	movs	r4, #8
 80044a0:	e005      	b.n	80044ae <_vsnprintf.constprop.0+0x66>
 80044a2:	2b2d      	cmp	r3, #45	; 0x2d
 80044a4:	d016      	beq.n	80044d4 <_vsnprintf.constprop.0+0x8c>
 80044a6:	2b30      	cmp	r3, #48	; 0x30
 80044a8:	d10c      	bne.n	80044c4 <_vsnprintf.constprop.0+0x7c>
 80044aa:	4306      	orrs	r6, r0
 80044ac:	9207      	str	r2, [sp, #28]
 80044ae:	9b07      	ldr	r3, [sp, #28]
 80044b0:	9a07      	ldr	r2, [sp, #28]
 80044b2:	781b      	ldrb	r3, [r3, #0]
 80044b4:	3201      	adds	r2, #1
 80044b6:	2b2b      	cmp	r3, #43	; 0x2b
 80044b8:	d00e      	beq.n	80044d8 <_vsnprintf.constprop.0+0x90>
 80044ba:	d8f2      	bhi.n	80044a2 <_vsnprintf.constprop.0+0x5a>
 80044bc:	2b20      	cmp	r3, #32
 80044be:	d00d      	beq.n	80044dc <_vsnprintf.constprop.0+0x94>
 80044c0:	2b23      	cmp	r3, #35	; 0x23
 80044c2:	d00d      	beq.n	80044e0 <_vsnprintf.constprop.0+0x98>
 80044c4:	0019      	movs	r1, r3
 80044c6:	3930      	subs	r1, #48	; 0x30
 80044c8:	2909      	cmp	r1, #9
 80044ca:	d82d      	bhi.n	8004528 <_vsnprintf.constprop.0+0xe0>
 80044cc:	2300      	movs	r3, #0
 80044ce:	200a      	movs	r0, #10
 80044d0:	9306      	str	r3, [sp, #24]
 80044d2:	e00e      	b.n	80044f2 <_vsnprintf.constprop.0+0xaa>
 80044d4:	430e      	orrs	r6, r1
 80044d6:	e7e9      	b.n	80044ac <_vsnprintf.constprop.0+0x64>
 80044d8:	432e      	orrs	r6, r5
 80044da:	e7e7      	b.n	80044ac <_vsnprintf.constprop.0+0x64>
 80044dc:	4326      	orrs	r6, r4
 80044de:	e7e5      	b.n	80044ac <_vsnprintf.constprop.0+0x64>
 80044e0:	2310      	movs	r3, #16
 80044e2:	431e      	orrs	r6, r3
 80044e4:	e7e2      	b.n	80044ac <_vsnprintf.constprop.0+0x64>
 80044e6:	9b06      	ldr	r3, [sp, #24]
 80044e8:	9107      	str	r1, [sp, #28]
 80044ea:	4343      	muls	r3, r0
 80044ec:	3b30      	subs	r3, #48	; 0x30
 80044ee:	18d3      	adds	r3, r2, r3
 80044f0:	9306      	str	r3, [sp, #24]
 80044f2:	9b07      	ldr	r3, [sp, #28]
 80044f4:	781a      	ldrb	r2, [r3, #0]
 80044f6:	1c59      	adds	r1, r3, #1
 80044f8:	0013      	movs	r3, r2
 80044fa:	3b30      	subs	r3, #48	; 0x30
 80044fc:	2b09      	cmp	r3, #9
 80044fe:	d9f2      	bls.n	80044e6 <_vsnprintf.constprop.0+0x9e>
 8004500:	2200      	movs	r2, #0
 8004502:	9b07      	ldr	r3, [sp, #28]
 8004504:	9209      	str	r2, [sp, #36]	; 0x24
 8004506:	781b      	ldrb	r3, [r3, #0]
 8004508:	2b2e      	cmp	r3, #46	; 0x2e
 800450a:	d12b      	bne.n	8004564 <_vsnprintf.constprop.0+0x11c>
 800450c:	2280      	movs	r2, #128	; 0x80
 800450e:	00d2      	lsls	r2, r2, #3
 8004510:	4316      	orrs	r6, r2
 8004512:	9a07      	ldr	r2, [sp, #28]
 8004514:	9b07      	ldr	r3, [sp, #28]
 8004516:	7852      	ldrb	r2, [r2, #1]
 8004518:	3301      	adds	r3, #1
 800451a:	0011      	movs	r1, r2
 800451c:	3930      	subs	r1, #48	; 0x30
 800451e:	2909      	cmp	r1, #9
 8004520:	d842      	bhi.n	80045a8 <_vsnprintf.constprop.0+0x160>
 8004522:	200a      	movs	r0, #10
 8004524:	9307      	str	r3, [sp, #28]
 8004526:	e016      	b.n	8004556 <_vsnprintf.constprop.0+0x10e>
 8004528:	2100      	movs	r1, #0
 800452a:	9106      	str	r1, [sp, #24]
 800452c:	2b2a      	cmp	r3, #42	; 0x2a
 800452e:	d1e7      	bne.n	8004500 <_vsnprintf.constprop.0+0xb8>
 8004530:	9d08      	ldr	r5, [sp, #32]
 8004532:	cd08      	ldmia	r5!, {r3}
 8004534:	9306      	str	r3, [sp, #24]
 8004536:	428b      	cmp	r3, r1
 8004538:	da04      	bge.n	8004544 <_vsnprintf.constprop.0+0xfc>
 800453a:	2302      	movs	r3, #2
 800453c:	431e      	orrs	r6, r3
 800453e:	9b06      	ldr	r3, [sp, #24]
 8004540:	425b      	negs	r3, r3
 8004542:	9306      	str	r3, [sp, #24]
 8004544:	9508      	str	r5, [sp, #32]
 8004546:	9207      	str	r2, [sp, #28]
 8004548:	e7da      	b.n	8004500 <_vsnprintf.constprop.0+0xb8>
 800454a:	9b09      	ldr	r3, [sp, #36]	; 0x24
 800454c:	9107      	str	r1, [sp, #28]
 800454e:	4343      	muls	r3, r0
 8004550:	3b30      	subs	r3, #48	; 0x30
 8004552:	18d3      	adds	r3, r2, r3
 8004554:	9309      	str	r3, [sp, #36]	; 0x24
 8004556:	9b07      	ldr	r3, [sp, #28]
 8004558:	781a      	ldrb	r2, [r3, #0]
 800455a:	1c59      	adds	r1, r3, #1
 800455c:	0013      	movs	r3, r2
 800455e:	3b30      	subs	r3, #48	; 0x30
 8004560:	2b09      	cmp	r3, #9
 8004562:	d9f2      	bls.n	800454a <_vsnprintf.constprop.0+0x102>
 8004564:	9b07      	ldr	r3, [sp, #28]
 8004566:	781a      	ldrb	r2, [r3, #0]
 8004568:	3301      	adds	r3, #1
 800456a:	2a6c      	cmp	r2, #108	; 0x6c
 800456c:	d032      	beq.n	80045d4 <_vsnprintf.constprop.0+0x18c>
 800456e:	d82c      	bhi.n	80045ca <_vsnprintf.constprop.0+0x182>
 8004570:	2a68      	cmp	r2, #104	; 0x68
 8004572:	d039      	beq.n	80045e8 <_vsnprintf.constprop.0+0x1a0>
 8004574:	2a6a      	cmp	r2, #106	; 0x6a
 8004576:	d040      	beq.n	80045fa <_vsnprintf.constprop.0+0x1b2>
 8004578:	9b07      	ldr	r3, [sp, #28]
 800457a:	781c      	ldrb	r4, [r3, #0]
 800457c:	3301      	adds	r3, #1
 800457e:	9307      	str	r3, [sp, #28]
 8004580:	2c78      	cmp	r4, #120	; 0x78
 8004582:	d808      	bhi.n	8004596 <_vsnprintf.constprop.0+0x14e>
 8004584:	2c57      	cmp	r4, #87	; 0x57
 8004586:	d83b      	bhi.n	8004600 <_vsnprintf.constprop.0+0x1b8>
 8004588:	2c25      	cmp	r4, #37	; 0x25
 800458a:	d004      	beq.n	8004596 <_vsnprintf.constprop.0+0x14e>
 800458c:	2320      	movs	r3, #32
 800458e:	431e      	orrs	r6, r3
 8004590:	2c46      	cmp	r4, #70	; 0x46
 8004592:	d100      	bne.n	8004596 <_vsnprintf.constprop.0+0x14e>
 8004594:	e0c1      	b.n	800471a <_vsnprintf.constprop.0+0x2d2>
 8004596:	2301      	movs	r3, #1
 8004598:	0020      	movs	r0, r4
 800459a:	003a      	movs	r2, r7
 800459c:	990b      	ldr	r1, [sp, #44]	; 0x2c
 800459e:	9c0a      	ldr	r4, [sp, #40]	; 0x28
 80045a0:	425b      	negs	r3, r3
 80045a2:	1c7d      	adds	r5, r7, #1
 80045a4:	47a0      	blx	r4
 80045a6:	e2e9      	b.n	8004b7c <_vsnprintf.constprop.0+0x734>
 80045a8:	2a2a      	cmp	r2, #42	; 0x2a
 80045aa:	d10c      	bne.n	80045c6 <_vsnprintf.constprop.0+0x17e>
 80045ac:	9d08      	ldr	r5, [sp, #32]
 80045ae:	cd08      	ldmia	r5!, {r3}
 80045b0:	9309      	str	r3, [sp, #36]	; 0x24
 80045b2:	43db      	mvns	r3, r3
 80045b4:	9a09      	ldr	r2, [sp, #36]	; 0x24
 80045b6:	17db      	asrs	r3, r3, #31
 80045b8:	401a      	ands	r2, r3
 80045ba:	9b07      	ldr	r3, [sp, #28]
 80045bc:	9209      	str	r2, [sp, #36]	; 0x24
 80045be:	3302      	adds	r3, #2
 80045c0:	9307      	str	r3, [sp, #28]
 80045c2:	9508      	str	r5, [sp, #32]
 80045c4:	e7ce      	b.n	8004564 <_vsnprintf.constprop.0+0x11c>
 80045c6:	9307      	str	r3, [sp, #28]
 80045c8:	e7cc      	b.n	8004564 <_vsnprintf.constprop.0+0x11c>
 80045ca:	2a7a      	cmp	r2, #122	; 0x7a
 80045cc:	d1d4      	bne.n	8004578 <_vsnprintf.constprop.0+0x130>
 80045ce:	2280      	movs	r2, #128	; 0x80
 80045d0:	0052      	lsls	r2, r2, #1
 80045d2:	e00e      	b.n	80045f2 <_vsnprintf.constprop.0+0x1aa>
 80045d4:	9a07      	ldr	r2, [sp, #28]
 80045d6:	7852      	ldrb	r2, [r2, #1]
 80045d8:	2a6c      	cmp	r2, #108	; 0x6c
 80045da:	d1f8      	bne.n	80045ce <_vsnprintf.constprop.0+0x186>
 80045dc:	23c0      	movs	r3, #192	; 0xc0
 80045de:	009b      	lsls	r3, r3, #2
 80045e0:	431e      	orrs	r6, r3
 80045e2:	9b07      	ldr	r3, [sp, #28]
 80045e4:	3302      	adds	r3, #2
 80045e6:	e7c8      	b.n	800457a <_vsnprintf.constprop.0+0x132>
 80045e8:	9a07      	ldr	r2, [sp, #28]
 80045ea:	7852      	ldrb	r2, [r2, #1]
 80045ec:	2a68      	cmp	r2, #104	; 0x68
 80045ee:	d002      	beq.n	80045f6 <_vsnprintf.constprop.0+0x1ae>
 80045f0:	2280      	movs	r2, #128	; 0x80
 80045f2:	4316      	orrs	r6, r2
 80045f4:	e7c1      	b.n	800457a <_vsnprintf.constprop.0+0x132>
 80045f6:	23c0      	movs	r3, #192	; 0xc0
 80045f8:	e7f2      	b.n	80045e0 <_vsnprintf.constprop.0+0x198>
 80045fa:	2280      	movs	r2, #128	; 0x80
 80045fc:	0092      	lsls	r2, r2, #2
 80045fe:	e7f8      	b.n	80045f2 <_vsnprintf.constprop.0+0x1aa>
 8004600:	0020      	movs	r0, r4
 8004602:	3858      	subs	r0, #88	; 0x58
 8004604:	2820      	cmp	r0, #32
 8004606:	d8c6      	bhi.n	8004596 <_vsnprintf.constprop.0+0x14e>
 8004608:	f000 ff50 	bl	80054ac <__gnu_thumb1_case_shi>
 800460c:	ffc50021 	.word	0xffc50021
 8004610:	ffc5ffc5 	.word	0xffc5ffc5
 8004614:	ffc5ffc5 	.word	0xffc5ffc5
 8004618:	ffc5ffc5 	.word	0xffc5ffc5
 800461c:	ffc5ffc5 	.word	0xffc5ffc5
 8004620:	01ed0021 	.word	0x01ed0021
 8004624:	ffc50021 	.word	0xffc50021
 8004628:	ffc50087 	.word	0xffc50087
 800462c:	0021ffc5 	.word	0x0021ffc5
 8004630:	ffc5ffc5 	.word	0xffc5ffc5
 8004634:	ffc5ffc5 	.word	0xffc5ffc5
 8004638:	0021ffc5 	.word	0x0021ffc5
 800463c:	ffc502ba 	.word	0xffc502ba
 8004640:	0249ffc5 	.word	0x0249ffc5
 8004644:	0021ffc5 	.word	0x0021ffc5
 8004648:	ffc5ffc5 	.word	0xffc5ffc5
 800464c:	0021      	.short	0x0021
 800464e:	2c78      	cmp	r4, #120	; 0x78
 8004650:	d100      	bne.n	8004654 <_vsnprintf.constprop.0+0x20c>
 8004652:	e2ac      	b.n	8004bae <_vsnprintf.constprop.0+0x766>
 8004654:	2c58      	cmp	r4, #88	; 0x58
 8004656:	d100      	bne.n	800465a <_vsnprintf.constprop.0+0x212>
 8004658:	e2a7      	b.n	8004baa <_vsnprintf.constprop.0+0x762>
 800465a:	2c6f      	cmp	r4, #111	; 0x6f
 800465c:	d100      	bne.n	8004660 <_vsnprintf.constprop.0+0x218>
 800465e:	e2a8      	b.n	8004bb2 <_vsnprintf.constprop.0+0x76a>
 8004660:	2c62      	cmp	r4, #98	; 0x62
 8004662:	d100      	bne.n	8004666 <_vsnprintf.constprop.0+0x21e>
 8004664:	e2a7      	b.n	8004bb6 <_vsnprintf.constprop.0+0x76e>
 8004666:	2310      	movs	r3, #16
 8004668:	210a      	movs	r1, #10
 800466a:	439e      	bics	r6, r3
 800466c:	2c69      	cmp	r4, #105	; 0x69
 800466e:	d003      	beq.n	8004678 <_vsnprintf.constprop.0+0x230>
 8004670:	2c64      	cmp	r4, #100	; 0x64
 8004672:	d001      	beq.n	8004678 <_vsnprintf.constprop.0+0x230>
 8004674:	230c      	movs	r3, #12
 8004676:	439e      	bics	r6, r3
 8004678:	0573      	lsls	r3, r6, #21
 800467a:	d501      	bpl.n	8004680 <_vsnprintf.constprop.0+0x238>
 800467c:	2301      	movs	r3, #1
 800467e:	439e      	bics	r6, r3
 8004680:	2380      	movs	r3, #128	; 0x80
 8004682:	009b      	lsls	r3, r3, #2
 8004684:	4033      	ands	r3, r6
 8004686:	2c69      	cmp	r4, #105	; 0x69
 8004688:	d001      	beq.n	800468e <_vsnprintf.constprop.0+0x246>
 800468a:	2c64      	cmp	r4, #100	; 0x64
 800468c:	d11c      	bne.n	80046c8 <_vsnprintf.constprop.0+0x280>
 800468e:	2b00      	cmp	r3, #0
 8004690:	d000      	beq.n	8004694 <_vsnprintf.constprop.0+0x24c>
 8004692:	e6e0      	b.n	8004456 <_vsnprintf.constprop.0+0xe>
 8004694:	9b08      	ldr	r3, [sp, #32]
 8004696:	1d1c      	adds	r4, r3, #4
 8004698:	9b08      	ldr	r3, [sp, #32]
 800469a:	681a      	ldr	r2, [r3, #0]
 800469c:	05f3      	lsls	r3, r6, #23
 800469e:	d50b      	bpl.n	80046b8 <_vsnprintf.constprop.0+0x270>
 80046a0:	17d0      	asrs	r0, r2, #31
 80046a2:	1813      	adds	r3, r2, r0
 80046a4:	4043      	eors	r3, r0
 80046a6:	9806      	ldr	r0, [sp, #24]
 80046a8:	9604      	str	r6, [sp, #16]
 80046aa:	9003      	str	r0, [sp, #12]
 80046ac:	9809      	ldr	r0, [sp, #36]	; 0x24
 80046ae:	9101      	str	r1, [sp, #4]
 80046b0:	9002      	str	r0, [sp, #8]
 80046b2:	0fd2      	lsrs	r2, r2, #31
 80046b4:	9200      	str	r2, [sp, #0]
 80046b6:	e017      	b.n	80046e8 <_vsnprintf.constprop.0+0x2a0>
 80046b8:	0673      	lsls	r3, r6, #25
 80046ba:	d501      	bpl.n	80046c0 <_vsnprintf.constprop.0+0x278>
 80046bc:	b2d2      	uxtb	r2, r2
 80046be:	e7ef      	b.n	80046a0 <_vsnprintf.constprop.0+0x258>
 80046c0:	0633      	lsls	r3, r6, #24
 80046c2:	d5ed      	bpl.n	80046a0 <_vsnprintf.constprop.0+0x258>
 80046c4:	b212      	sxth	r2, r2
 80046c6:	e7eb      	b.n	80046a0 <_vsnprintf.constprop.0+0x258>
 80046c8:	2b00      	cmp	r3, #0
 80046ca:	d000      	beq.n	80046ce <_vsnprintf.constprop.0+0x286>
 80046cc:	e6c3      	b.n	8004456 <_vsnprintf.constprop.0+0xe>
 80046ce:	9a08      	ldr	r2, [sp, #32]
 80046d0:	1d14      	adds	r4, r2, #4
 80046d2:	05f2      	lsls	r2, r6, #23
 80046d4:	d510      	bpl.n	80046f8 <_vsnprintf.constprop.0+0x2b0>
 80046d6:	9a06      	ldr	r2, [sp, #24]
 80046d8:	9300      	str	r3, [sp, #0]
 80046da:	9203      	str	r2, [sp, #12]
 80046dc:	9a09      	ldr	r2, [sp, #36]	; 0x24
 80046de:	9b08      	ldr	r3, [sp, #32]
 80046e0:	9604      	str	r6, [sp, #16]
 80046e2:	9202      	str	r2, [sp, #8]
 80046e4:	9101      	str	r1, [sp, #4]
 80046e6:	681b      	ldr	r3, [r3, #0]
 80046e8:	003a      	movs	r2, r7
 80046ea:	990b      	ldr	r1, [sp, #44]	; 0x2c
 80046ec:	980a      	ldr	r0, [sp, #40]	; 0x28
 80046ee:	f7ff fdfe 	bl	80042ee <_ntoa_long.constprop.0>
 80046f2:	9408      	str	r4, [sp, #32]
 80046f4:	0007      	movs	r7, r0
 80046f6:	e6ae      	b.n	8004456 <_vsnprintf.constprop.0+0xe>
 80046f8:	9b08      	ldr	r3, [sp, #32]
 80046fa:	681b      	ldr	r3, [r3, #0]
 80046fc:	0672      	lsls	r2, r6, #25
 80046fe:	d508      	bpl.n	8004712 <_vsnprintf.constprop.0+0x2ca>
 8004700:	b2db      	uxtb	r3, r3
 8004702:	9a06      	ldr	r2, [sp, #24]
 8004704:	9604      	str	r6, [sp, #16]
 8004706:	9203      	str	r2, [sp, #12]
 8004708:	9a09      	ldr	r2, [sp, #36]	; 0x24
 800470a:	9101      	str	r1, [sp, #4]
 800470c:	9202      	str	r2, [sp, #8]
 800470e:	2200      	movs	r2, #0
 8004710:	e7d0      	b.n	80046b4 <_vsnprintf.constprop.0+0x26c>
 8004712:	0632      	lsls	r2, r6, #24
 8004714:	d5f5      	bpl.n	8004702 <_vsnprintf.constprop.0+0x2ba>
 8004716:	b29b      	uxth	r3, r3
 8004718:	e7f3      	b.n	8004702 <_vsnprintf.constprop.0+0x2ba>
 800471a:	2307      	movs	r3, #7
 800471c:	9d08      	ldr	r5, [sp, #32]
 800471e:	3507      	adds	r5, #7
 8004720:	439d      	bics	r5, r3
 8004722:	002a      	movs	r2, r5
 8004724:	ca18      	ldmia	r2!, {r3, r4}
 8004726:	9208      	str	r2, [sp, #32]
 8004728:	001a      	movs	r2, r3
 800472a:	930c      	str	r3, [sp, #48]	; 0x30
 800472c:	940d      	str	r4, [sp, #52]	; 0x34
 800472e:	0010      	movs	r0, r2
 8004730:	0023      	movs	r3, r4
 8004732:	0021      	movs	r1, r4
 8004734:	f001 f84a 	bl	80057cc <__aeabi_dcmpeq>
 8004738:	2800      	cmp	r0, #0
 800473a:	d10c      	bne.n	8004756 <_vsnprintf.constprop.0+0x30e>
 800473c:	9b06      	ldr	r3, [sp, #24]
 800473e:	9602      	str	r6, [sp, #8]
 8004740:	9301      	str	r3, [sp, #4]
 8004742:	2303      	movs	r3, #3
 8004744:	9300      	str	r3, [sp, #0]
 8004746:	4bc1      	ldr	r3, [pc, #772]	; (8004a4c <_vsnprintf.constprop.0+0x604>)
 8004748:	003a      	movs	r2, r7
 800474a:	990b      	ldr	r1, [sp, #44]	; 0x2c
 800474c:	980a      	ldr	r0, [sp, #40]	; 0x28
 800474e:	f7ff fd83 	bl	8004258 <_out_rev.constprop.0>
 8004752:	0007      	movs	r7, r0
 8004754:	e67f      	b.n	8004456 <_vsnprintf.constprop.0+0xe>
 8004756:	2201      	movs	r2, #1
 8004758:	980c      	ldr	r0, [sp, #48]	; 0x30
 800475a:	990d      	ldr	r1, [sp, #52]	; 0x34
 800475c:	4bbc      	ldr	r3, [pc, #752]	; (8004a50 <_vsnprintf.constprop.0+0x608>)
 800475e:	4252      	negs	r2, r2
 8004760:	f001 f83a 	bl	80057d8 <__aeabi_dcmplt>
 8004764:	2800      	cmp	r0, #0
 8004766:	d006      	beq.n	8004776 <_vsnprintf.constprop.0+0x32e>
 8004768:	9b06      	ldr	r3, [sp, #24]
 800476a:	9602      	str	r6, [sp, #8]
 800476c:	9301      	str	r3, [sp, #4]
 800476e:	2304      	movs	r3, #4
 8004770:	9300      	str	r3, [sp, #0]
 8004772:	4bb8      	ldr	r3, [pc, #736]	; (8004a54 <_vsnprintf.constprop.0+0x60c>)
 8004774:	e7e8      	b.n	8004748 <_vsnprintf.constprop.0+0x300>
 8004776:	2201      	movs	r2, #1
 8004778:	980c      	ldr	r0, [sp, #48]	; 0x30
 800477a:	990d      	ldr	r1, [sp, #52]	; 0x34
 800477c:	4bb6      	ldr	r3, [pc, #728]	; (8004a58 <_vsnprintf.constprop.0+0x610>)
 800477e:	4252      	negs	r2, r2
 8004780:	f001 f83e 	bl	8005800 <__aeabi_dcmpgt>
 8004784:	2800      	cmp	r0, #0
 8004786:	d00a      	beq.n	800479e <_vsnprintf.constprop.0+0x356>
 8004788:	2204      	movs	r2, #4
 800478a:	4bb4      	ldr	r3, [pc, #720]	; (8004a5c <_vsnprintf.constprop.0+0x614>)
 800478c:	4216      	tst	r6, r2
 800478e:	d101      	bne.n	8004794 <_vsnprintf.constprop.0+0x34c>
 8004790:	4bb3      	ldr	r3, [pc, #716]	; (8004a60 <_vsnprintf.constprop.0+0x618>)
 8004792:	3a01      	subs	r2, #1
 8004794:	9906      	ldr	r1, [sp, #24]
 8004796:	9602      	str	r6, [sp, #8]
 8004798:	9101      	str	r1, [sp, #4]
 800479a:	9200      	str	r2, [sp, #0]
 800479c:	e7d4      	b.n	8004748 <_vsnprintf.constprop.0+0x300>
 800479e:	2200      	movs	r2, #0
 80047a0:	980c      	ldr	r0, [sp, #48]	; 0x30
 80047a2:	990d      	ldr	r1, [sp, #52]	; 0x34
 80047a4:	4baf      	ldr	r3, [pc, #700]	; (8004a64 <_vsnprintf.constprop.0+0x61c>)
 80047a6:	f001 f82b 	bl	8005800 <__aeabi_dcmpgt>
 80047aa:	1e04      	subs	r4, r0, #0
 80047ac:	d000      	beq.n	80047b0 <_vsnprintf.constprop.0+0x368>
 80047ae:	e651      	b.n	8004454 <_vsnprintf.constprop.0+0xc>
 80047b0:	980c      	ldr	r0, [sp, #48]	; 0x30
 80047b2:	990d      	ldr	r1, [sp, #52]	; 0x34
 80047b4:	2200      	movs	r2, #0
 80047b6:	4bac      	ldr	r3, [pc, #688]	; (8004a68 <_vsnprintf.constprop.0+0x620>)
 80047b8:	f001 f80e 	bl	80057d8 <__aeabi_dcmplt>
 80047bc:	2800      	cmp	r0, #0
 80047be:	d000      	beq.n	80047c2 <_vsnprintf.constprop.0+0x37a>
 80047c0:	e667      	b.n	8004492 <_vsnprintf.constprop.0+0x4a>
 80047c2:	980c      	ldr	r0, [sp, #48]	; 0x30
 80047c4:	990d      	ldr	r1, [sp, #52]	; 0x34
 80047c6:	2200      	movs	r2, #0
 80047c8:	2300      	movs	r3, #0
 80047ca:	f001 f805 	bl	80057d8 <__aeabi_dcmplt>
 80047ce:	2800      	cmp	r0, #0
 80047d0:	d100      	bne.n	80047d4 <_vsnprintf.constprop.0+0x38c>
 80047d2:	e080      	b.n	80048d6 <_vsnprintf.constprop.0+0x48e>
 80047d4:	9a0c      	ldr	r2, [sp, #48]	; 0x30
 80047d6:	9b0d      	ldr	r3, [sp, #52]	; 0x34
 80047d8:	2000      	movs	r0, #0
 80047da:	2100      	movs	r1, #0
 80047dc:	f001 fbcc 	bl	8005f78 <__aeabi_dsub>
 80047e0:	2301      	movs	r3, #1
 80047e2:	900c      	str	r0, [sp, #48]	; 0x30
 80047e4:	910d      	str	r1, [sp, #52]	; 0x34
 80047e6:	930f      	str	r3, [sp, #60]	; 0x3c
 80047e8:	0573      	lsls	r3, r6, #21
 80047ea:	d576      	bpl.n	80048da <_vsnprintf.constprop.0+0x492>
 80047ec:	9909      	ldr	r1, [sp, #36]	; 0x24
 80047ee:	9a09      	ldr	r2, [sp, #36]	; 0x24
 80047f0:	910e      	str	r1, [sp, #56]	; 0x38
 80047f2:	2130      	movs	r1, #48	; 0x30
 80047f4:	ab14      	add	r3, sp, #80	; 0x50
 80047f6:	3a20      	subs	r2, #32
 80047f8:	9809      	ldr	r0, [sp, #36]	; 0x24
 80047fa:	9c0e      	ldr	r4, [sp, #56]	; 0x38
 80047fc:	1b05      	subs	r5, r0, r4
 80047fe:	2c09      	cmp	r4, #9
 8004800:	d907      	bls.n	8004812 <_vsnprintf.constprop.0+0x3ca>
 8004802:	980e      	ldr	r0, [sp, #56]	; 0x38
 8004804:	7019      	strb	r1, [r3, #0]
 8004806:	3801      	subs	r0, #1
 8004808:	900e      	str	r0, [sp, #56]	; 0x38
 800480a:	3301      	adds	r3, #1
 800480c:	4282      	cmp	r2, r0
 800480e:	d1f3      	bne.n	80047f8 <_vsnprintf.constprop.0+0x3b0>
 8004810:	2520      	movs	r5, #32
 8004812:	980c      	ldr	r0, [sp, #48]	; 0x30
 8004814:	990d      	ldr	r1, [sp, #52]	; 0x34
 8004816:	f001 ff41 	bl	800669c <__aeabi_d2iz>
 800481a:	9b0e      	ldr	r3, [sp, #56]	; 0x38
 800481c:	9009      	str	r0, [sp, #36]	; 0x24
 800481e:	00da      	lsls	r2, r3, #3
 8004820:	4b92      	ldr	r3, [pc, #584]	; (8004a6c <_vsnprintf.constprop.0+0x624>)
 8004822:	189b      	adds	r3, r3, r2
 8004824:	685c      	ldr	r4, [r3, #4]
 8004826:	681b      	ldr	r3, [r3, #0]
 8004828:	9310      	str	r3, [sp, #64]	; 0x40
 800482a:	9411      	str	r4, [sp, #68]	; 0x44
 800482c:	f001 ff6c 	bl	8006708 <__aeabi_i2d>
 8004830:	0002      	movs	r2, r0
 8004832:	000b      	movs	r3, r1
 8004834:	980c      	ldr	r0, [sp, #48]	; 0x30
 8004836:	990d      	ldr	r1, [sp, #52]	; 0x34
 8004838:	f001 fb9e 	bl	8005f78 <__aeabi_dsub>
 800483c:	9a10      	ldr	r2, [sp, #64]	; 0x40
 800483e:	9b11      	ldr	r3, [sp, #68]	; 0x44
 8004840:	f001 f92e 	bl	8005aa0 <__aeabi_dmul>
 8004844:	9012      	str	r0, [sp, #72]	; 0x48
 8004846:	9113      	str	r1, [sp, #76]	; 0x4c
 8004848:	f000 ffee 	bl	8005828 <__aeabi_d2uiz>
 800484c:	0004      	movs	r4, r0
 800484e:	f001 ff8b 	bl	8006768 <__aeabi_ui2d>
 8004852:	0002      	movs	r2, r0
 8004854:	000b      	movs	r3, r1
 8004856:	9812      	ldr	r0, [sp, #72]	; 0x48
 8004858:	9913      	ldr	r1, [sp, #76]	; 0x4c
 800485a:	f001 fb8d 	bl	8005f78 <__aeabi_dsub>
 800485e:	2200      	movs	r2, #0
 8004860:	4b83      	ldr	r3, [pc, #524]	; (8004a70 <_vsnprintf.constprop.0+0x628>)
 8004862:	9012      	str	r0, [sp, #72]	; 0x48
 8004864:	9113      	str	r1, [sp, #76]	; 0x4c
 8004866:	f000 ffcb 	bl	8005800 <__aeabi_dcmpgt>
 800486a:	2800      	cmp	r0, #0
 800486c:	d038      	beq.n	80048e0 <_vsnprintf.constprop.0+0x498>
 800486e:	3401      	adds	r4, #1
 8004870:	0020      	movs	r0, r4
 8004872:	f001 ff79 	bl	8006768 <__aeabi_ui2d>
 8004876:	0002      	movs	r2, r0
 8004878:	000b      	movs	r3, r1
 800487a:	9810      	ldr	r0, [sp, #64]	; 0x40
 800487c:	9911      	ldr	r1, [sp, #68]	; 0x44
 800487e:	f000 ffb5 	bl	80057ec <__aeabi_dcmple>
 8004882:	2800      	cmp	r0, #0
 8004884:	d003      	beq.n	800488e <_vsnprintf.constprop.0+0x446>
 8004886:	2400      	movs	r4, #0
 8004888:	9b09      	ldr	r3, [sp, #36]	; 0x24
 800488a:	3301      	adds	r3, #1
 800488c:	9309      	str	r3, [sp, #36]	; 0x24
 800488e:	9b0e      	ldr	r3, [sp, #56]	; 0x38
 8004890:	2b00      	cmp	r3, #0
 8004892:	d159      	bne.n	8004948 <_vsnprintf.constprop.0+0x500>
 8004894:	9809      	ldr	r0, [sp, #36]	; 0x24
 8004896:	f001 ff37 	bl	8006708 <__aeabi_i2d>
 800489a:	0002      	movs	r2, r0
 800489c:	000b      	movs	r3, r1
 800489e:	980c      	ldr	r0, [sp, #48]	; 0x30
 80048a0:	990d      	ldr	r1, [sp, #52]	; 0x34
 80048a2:	f001 fb69 	bl	8005f78 <__aeabi_dsub>
 80048a6:	2200      	movs	r2, #0
 80048a8:	4b71      	ldr	r3, [pc, #452]	; (8004a70 <_vsnprintf.constprop.0+0x628>)
 80048aa:	900c      	str	r0, [sp, #48]	; 0x30
 80048ac:	910d      	str	r1, [sp, #52]	; 0x34
 80048ae:	f000 ff93 	bl	80057d8 <__aeabi_dcmplt>
 80048b2:	2800      	cmp	r0, #0
 80048b4:	d007      	beq.n	80048c6 <_vsnprintf.constprop.0+0x47e>
 80048b6:	980c      	ldr	r0, [sp, #48]	; 0x30
 80048b8:	990d      	ldr	r1, [sp, #52]	; 0x34
 80048ba:	2200      	movs	r2, #0
 80048bc:	4b6c      	ldr	r3, [pc, #432]	; (8004a70 <_vsnprintf.constprop.0+0x628>)
 80048be:	f000 ff9f 	bl	8005800 <__aeabi_dcmpgt>
 80048c2:	2800      	cmp	r0, #0
 80048c4:	d004      	beq.n	80048d0 <_vsnprintf.constprop.0+0x488>
 80048c6:	2301      	movs	r3, #1
 80048c8:	9a09      	ldr	r2, [sp, #36]	; 0x24
 80048ca:	4013      	ands	r3, r2
 80048cc:	18d3      	adds	r3, r2, r3
 80048ce:	9309      	str	r3, [sp, #36]	; 0x24
 80048d0:	240a      	movs	r4, #10
 80048d2:	950c      	str	r5, [sp, #48]	; 0x30
 80048d4:	e063      	b.n	800499e <_vsnprintf.constprop.0+0x556>
 80048d6:	900f      	str	r0, [sp, #60]	; 0x3c
 80048d8:	e786      	b.n	80047e8 <_vsnprintf.constprop.0+0x3a0>
 80048da:	2306      	movs	r3, #6
 80048dc:	9309      	str	r3, [sp, #36]	; 0x24
 80048de:	e785      	b.n	80047ec <_vsnprintf.constprop.0+0x3a4>
 80048e0:	2200      	movs	r2, #0
 80048e2:	9812      	ldr	r0, [sp, #72]	; 0x48
 80048e4:	9913      	ldr	r1, [sp, #76]	; 0x4c
 80048e6:	4b62      	ldr	r3, [pc, #392]	; (8004a70 <_vsnprintf.constprop.0+0x628>)
 80048e8:	f000 ff76 	bl	80057d8 <__aeabi_dcmplt>
 80048ec:	2800      	cmp	r0, #0
 80048ee:	d1ce      	bne.n	800488e <_vsnprintf.constprop.0+0x446>
 80048f0:	2c00      	cmp	r4, #0
 80048f2:	d001      	beq.n	80048f8 <_vsnprintf.constprop.0+0x4b0>
 80048f4:	07e3      	lsls	r3, r4, #31
 80048f6:	d5ca      	bpl.n	800488e <_vsnprintf.constprop.0+0x446>
 80048f8:	3401      	adds	r4, #1
 80048fa:	e7c8      	b.n	800488e <_vsnprintf.constprop.0+0x446>
 80048fc:	9b0e      	ldr	r3, [sp, #56]	; 0x38
 80048fe:	210a      	movs	r1, #10
 8004900:	3b01      	subs	r3, #1
 8004902:	930e      	str	r3, [sp, #56]	; 0x38
 8004904:	0020      	movs	r0, r4
 8004906:	1c6b      	adds	r3, r5, #1
 8004908:	930c      	str	r3, [sp, #48]	; 0x30
 800490a:	f000 fe5f 	bl	80055cc <__aeabi_uidivmod>
 800490e:	2218      	movs	r2, #24
 8004910:	ab0e      	add	r3, sp, #56	; 0x38
 8004912:	3130      	adds	r1, #48	; 0x30
 8004914:	189b      	adds	r3, r3, r2
 8004916:	5559      	strb	r1, [r3, r5]
 8004918:	0020      	movs	r0, r4
 800491a:	210a      	movs	r1, #10
 800491c:	f000 fdd0 	bl	80054c0 <__udivsi3>
 8004920:	2c09      	cmp	r4, #9
 8004922:	d80f      	bhi.n	8004944 <_vsnprintf.constprop.0+0x4fc>
 8004924:	9a0c      	ldr	r2, [sp, #48]	; 0x30
 8004926:	2030      	movs	r0, #48	; 0x30
 8004928:	4694      	mov	ip, r2
 800492a:	0015      	movs	r5, r2
 800492c:	9b0e      	ldr	r3, [sp, #56]	; 0x38
 800492e:	a914      	add	r1, sp, #80	; 0x50
 8004930:	4463      	add	r3, ip
 8004932:	2d20      	cmp	r5, #32
 8004934:	d00a      	beq.n	800494c <_vsnprintf.constprop.0+0x504>
 8004936:	1c6a      	adds	r2, r5, #1
 8004938:	429d      	cmp	r5, r3
 800493a:	d11a      	bne.n	8004972 <_vsnprintf.constprop.0+0x52a>
 800493c:	232e      	movs	r3, #46	; 0x2e
 800493e:	554b      	strb	r3, [r1, r5]
 8004940:	0015      	movs	r5, r2
 8004942:	e7c5      	b.n	80048d0 <_vsnprintf.constprop.0+0x488>
 8004944:	0004      	movs	r4, r0
 8004946:	9d0c      	ldr	r5, [sp, #48]	; 0x30
 8004948:	2d20      	cmp	r5, #32
 800494a:	d1d7      	bne.n	80048fc <_vsnprintf.constprop.0+0x4b4>
 800494c:	2303      	movs	r3, #3
 800494e:	4033      	ands	r3, r6
 8004950:	2b01      	cmp	r3, #1
 8004952:	d134      	bne.n	80049be <_vsnprintf.constprop.0+0x576>
 8004954:	9b06      	ldr	r3, [sp, #24]
 8004956:	2b00      	cmp	r3, #0
 8004958:	d031      	beq.n	80049be <_vsnprintf.constprop.0+0x576>
 800495a:	9b0f      	ldr	r3, [sp, #60]	; 0x3c
 800495c:	2b00      	cmp	r3, #0
 800495e:	d102      	bne.n	8004966 <_vsnprintf.constprop.0+0x51e>
 8004960:	330c      	adds	r3, #12
 8004962:	421e      	tst	r6, r3
 8004964:	d002      	beq.n	800496c <_vsnprintf.constprop.0+0x524>
 8004966:	9b06      	ldr	r3, [sp, #24]
 8004968:	3b01      	subs	r3, #1
 800496a:	9306      	str	r3, [sp, #24]
 800496c:	2230      	movs	r2, #48	; 0x30
 800496e:	ab14      	add	r3, sp, #80	; 0x50
 8004970:	e01a      	b.n	80049a8 <_vsnprintf.constprop.0+0x560>
 8004972:	5548      	strb	r0, [r1, r5]
 8004974:	0015      	movs	r5, r2
 8004976:	e7dc      	b.n	8004932 <_vsnprintf.constprop.0+0x4ea>
 8004978:	9809      	ldr	r0, [sp, #36]	; 0x24
 800497a:	0021      	movs	r1, r4
 800497c:	f000 ff10 	bl	80057a0 <__aeabi_idivmod>
 8004980:	2018      	movs	r0, #24
 8004982:	9a0c      	ldr	r2, [sp, #48]	; 0x30
 8004984:	ab0e      	add	r3, sp, #56	; 0x38
 8004986:	181b      	adds	r3, r3, r0
 8004988:	3130      	adds	r1, #48	; 0x30
 800498a:	9809      	ldr	r0, [sp, #36]	; 0x24
 800498c:	5499      	strb	r1, [r3, r2]
 800498e:	0021      	movs	r1, r4
 8004990:	f000 fe20 	bl	80055d4 <__divsi3>
 8004994:	3501      	adds	r5, #1
 8004996:	9009      	str	r0, [sp, #36]	; 0x24
 8004998:	2800      	cmp	r0, #0
 800499a:	d0d7      	beq.n	800494c <_vsnprintf.constprop.0+0x504>
 800499c:	950c      	str	r5, [sp, #48]	; 0x30
 800499e:	2d20      	cmp	r5, #32
 80049a0:	d1ea      	bne.n	8004978 <_vsnprintf.constprop.0+0x530>
 80049a2:	e7d3      	b.n	800494c <_vsnprintf.constprop.0+0x504>
 80049a4:	54ea      	strb	r2, [r5, r3]
 80049a6:	3501      	adds	r5, #1
 80049a8:	9906      	ldr	r1, [sp, #24]
 80049aa:	42a9      	cmp	r1, r5
 80049ac:	d907      	bls.n	80049be <_vsnprintf.constprop.0+0x576>
 80049ae:	2d20      	cmp	r5, #32
 80049b0:	d1f8      	bne.n	80049a4 <_vsnprintf.constprop.0+0x55c>
 80049b2:	9b06      	ldr	r3, [sp, #24]
 80049b4:	9602      	str	r6, [sp, #8]
 80049b6:	9301      	str	r3, [sp, #4]
 80049b8:	9500      	str	r5, [sp, #0]
 80049ba:	ab14      	add	r3, sp, #80	; 0x50
 80049bc:	e6c4      	b.n	8004748 <_vsnprintf.constprop.0+0x300>
 80049be:	2d20      	cmp	r5, #32
 80049c0:	d0f7      	beq.n	80049b2 <_vsnprintf.constprop.0+0x56a>
 80049c2:	9b0f      	ldr	r3, [sp, #60]	; 0x3c
 80049c4:	2b00      	cmp	r3, #0
 80049c6:	d004      	beq.n	80049d2 <_vsnprintf.constprop.0+0x58a>
 80049c8:	222d      	movs	r2, #45	; 0x2d
 80049ca:	ab14      	add	r3, sp, #80	; 0x50
 80049cc:	555a      	strb	r2, [r3, r5]
 80049ce:	3501      	adds	r5, #1
 80049d0:	e7ef      	b.n	80049b2 <_vsnprintf.constprop.0+0x56a>
 80049d2:	0773      	lsls	r3, r6, #29
 80049d4:	d502      	bpl.n	80049dc <_vsnprintf.constprop.0+0x594>
 80049d6:	222b      	movs	r2, #43	; 0x2b
 80049d8:	ab14      	add	r3, sp, #80	; 0x50
 80049da:	e7f7      	b.n	80049cc <_vsnprintf.constprop.0+0x584>
 80049dc:	0733      	lsls	r3, r6, #28
 80049de:	d5e8      	bpl.n	80049b2 <_vsnprintf.constprop.0+0x56a>
 80049e0:	2220      	movs	r2, #32
 80049e2:	ab14      	add	r3, sp, #80	; 0x50
 80049e4:	e7f2      	b.n	80049cc <_vsnprintf.constprop.0+0x584>
 80049e6:	2302      	movs	r3, #2
 80049e8:	0032      	movs	r2, r6
 80049ea:	401a      	ands	r2, r3
 80049ec:	2401      	movs	r4, #1
 80049ee:	9209      	str	r2, [sp, #36]	; 0x24
 80049f0:	421e      	tst	r6, r3
 80049f2:	d119      	bne.n	8004a28 <_vsnprintf.constprop.0+0x5e0>
 80049f4:	2501      	movs	r5, #1
 80049f6:	003a      	movs	r2, r7
 80049f8:	426d      	negs	r5, r5
 80049fa:	e005      	b.n	8004a08 <_vsnprintf.constprop.0+0x5c0>
 80049fc:	002b      	movs	r3, r5
 80049fe:	2020      	movs	r0, #32
 8004a00:	990b      	ldr	r1, [sp, #44]	; 0x2c
 8004a02:	9e0a      	ldr	r6, [sp, #40]	; 0x28
 8004a04:	47b0      	blx	r6
 8004a06:	0022      	movs	r2, r4
 8004a08:	9906      	ldr	r1, [sp, #24]
 8004a0a:	1c54      	adds	r4, r2, #1
 8004a0c:	1be3      	subs	r3, r4, r7
 8004a0e:	428b      	cmp	r3, r1
 8004a10:	d3f4      	bcc.n	80049fc <_vsnprintf.constprop.0+0x5b4>
 8004a12:	2300      	movs	r3, #0
 8004a14:	4299      	cmp	r1, r3
 8004a16:	d001      	beq.n	8004a1c <_vsnprintf.constprop.0+0x5d4>
 8004a18:	000b      	movs	r3, r1
 8004a1a:	3b01      	subs	r3, #1
 8004a1c:	18ff      	adds	r7, r7, r3
 8004a1e:	9b06      	ldr	r3, [sp, #24]
 8004a20:	2402      	movs	r4, #2
 8004a22:	2b00      	cmp	r3, #0
 8004a24:	d000      	beq.n	8004a28 <_vsnprintf.constprop.0+0x5e0>
 8004a26:	1c5c      	adds	r4, r3, #1
 8004a28:	9b08      	ldr	r3, [sp, #32]
 8004a2a:	003a      	movs	r2, r7
 8004a2c:	cb01      	ldmia	r3!, {r0}
 8004a2e:	990b      	ldr	r1, [sp, #44]	; 0x2c
 8004a30:	9308      	str	r3, [sp, #32]
 8004a32:	2301      	movs	r3, #1
 8004a34:	1c7e      	adds	r6, r7, #1
 8004a36:	425b      	negs	r3, r3
 8004a38:	9f0a      	ldr	r7, [sp, #40]	; 0x28
 8004a3a:	b2c0      	uxtb	r0, r0
 8004a3c:	47b8      	blx	r7
 8004a3e:	9b09      	ldr	r3, [sp, #36]	; 0x24
 8004a40:	2b00      	cmp	r3, #0
 8004a42:	d02a      	beq.n	8004a9a <_vsnprintf.constprop.0+0x652>
 8004a44:	0027      	movs	r7, r4
 8004a46:	0032      	movs	r2, r6
 8004a48:	e01e      	b.n	8004a88 <_vsnprintf.constprop.0+0x640>
 8004a4a:	46c0      	nop			; (mov r8, r8)
 8004a4c:	0800684e 	.word	0x0800684e
 8004a50:	ffefffff 	.word	0xffefffff
 8004a54:	08006852 	.word	0x08006852
 8004a58:	7fefffff 	.word	0x7fefffff
 8004a5c:	08006845 	.word	0x08006845
 8004a60:	0800684a 	.word	0x0800684a
 8004a64:	41cdcd65 	.word	0x41cdcd65
 8004a68:	c1cdcd65 	.word	0xc1cdcd65
 8004a6c:	08006858 	.word	0x08006858
 8004a70:	3fe00000 	.word	0x3fe00000
 8004a74:	1c53      	adds	r3, r2, #1
 8004a76:	9309      	str	r3, [sp, #36]	; 0x24
 8004a78:	2301      	movs	r3, #1
 8004a7a:	2020      	movs	r0, #32
 8004a7c:	990b      	ldr	r1, [sp, #44]	; 0x2c
 8004a7e:	9d0a      	ldr	r5, [sp, #40]	; 0x28
 8004a80:	425b      	negs	r3, r3
 8004a82:	47a8      	blx	r5
 8004a84:	9a09      	ldr	r2, [sp, #36]	; 0x24
 8004a86:	3701      	adds	r7, #1
 8004a88:	9b06      	ldr	r3, [sp, #24]
 8004a8a:	429f      	cmp	r7, r3
 8004a8c:	d3f2      	bcc.n	8004a74 <_vsnprintf.constprop.0+0x62c>
 8004a8e:	9a06      	ldr	r2, [sp, #24]
 8004a90:	2300      	movs	r3, #0
 8004a92:	42a2      	cmp	r2, r4
 8004a94:	d300      	bcc.n	8004a98 <_vsnprintf.constprop.0+0x650>
 8004a96:	1b13      	subs	r3, r2, r4
 8004a98:	18f6      	adds	r6, r6, r3
 8004a9a:	0037      	movs	r7, r6
 8004a9c:	e4db      	b.n	8004456 <_vsnprintf.constprop.0+0xe>
 8004a9e:	9b08      	ldr	r3, [sp, #32]
 8004aa0:	cb04      	ldmia	r3!, {r2}
 8004aa2:	930c      	str	r3, [sp, #48]	; 0x30
 8004aa4:	9b09      	ldr	r3, [sp, #36]	; 0x24
 8004aa6:	9208      	str	r2, [sp, #32]
 8004aa8:	2b00      	cmp	r3, #0
 8004aaa:	d101      	bne.n	8004ab0 <_vsnprintf.constprop.0+0x668>
 8004aac:	2301      	movs	r3, #1
 8004aae:	425b      	negs	r3, r3
 8004ab0:	9a08      	ldr	r2, [sp, #32]
 8004ab2:	0014      	movs	r4, r2
 8004ab4:	18d3      	adds	r3, r2, r3
 8004ab6:	e000      	b.n	8004aba <_vsnprintf.constprop.0+0x672>
 8004ab8:	3401      	adds	r4, #1
 8004aba:	7822      	ldrb	r2, [r4, #0]
 8004abc:	2a00      	cmp	r2, #0
 8004abe:	d001      	beq.n	8004ac4 <_vsnprintf.constprop.0+0x67c>
 8004ac0:	42a3      	cmp	r3, r4
 8004ac2:	d1f9      	bne.n	8004ab8 <_vsnprintf.constprop.0+0x670>
 8004ac4:	9b08      	ldr	r3, [sp, #32]
 8004ac6:	0032      	movs	r2, r6
 8004ac8:	1ae4      	subs	r4, r4, r3
 8004aca:	2380      	movs	r3, #128	; 0x80
 8004acc:	00db      	lsls	r3, r3, #3
 8004ace:	401a      	ands	r2, r3
 8004ad0:	920e      	str	r2, [sp, #56]	; 0x38
 8004ad2:	421e      	tst	r6, r3
 8004ad4:	d003      	beq.n	8004ade <_vsnprintf.constprop.0+0x696>
 8004ad6:	9b09      	ldr	r3, [sp, #36]	; 0x24
 8004ad8:	429c      	cmp	r4, r3
 8004ada:	d900      	bls.n	8004ade <_vsnprintf.constprop.0+0x696>
 8004adc:	001c      	movs	r4, r3
 8004ade:	2302      	movs	r3, #2
 8004ae0:	0032      	movs	r2, r6
 8004ae2:	401a      	ands	r2, r3
 8004ae4:	920f      	str	r2, [sp, #60]	; 0x3c
 8004ae6:	421e      	tst	r6, r3
 8004ae8:	d115      	bne.n	8004b16 <_vsnprintf.constprop.0+0x6ce>
 8004aea:	003a      	movs	r2, r7
 8004aec:	e007      	b.n	8004afe <_vsnprintf.constprop.0+0x6b6>
 8004aee:	2301      	movs	r3, #1
 8004af0:	1c56      	adds	r6, r2, #1
 8004af2:	2020      	movs	r0, #32
 8004af4:	990b      	ldr	r1, [sp, #44]	; 0x2c
 8004af6:	9d0a      	ldr	r5, [sp, #40]	; 0x28
 8004af8:	425b      	negs	r3, r3
 8004afa:	47a8      	blx	r5
 8004afc:	0032      	movs	r2, r6
 8004afe:	1be3      	subs	r3, r4, r7
 8004b00:	9906      	ldr	r1, [sp, #24]
 8004b02:	18d3      	adds	r3, r2, r3
 8004b04:	4299      	cmp	r1, r3
 8004b06:	d8f2      	bhi.n	8004aee <_vsnprintf.constprop.0+0x6a6>
 8004b08:	2300      	movs	r3, #0
 8004b0a:	42a1      	cmp	r1, r4
 8004b0c:	d300      	bcc.n	8004b10 <_vsnprintf.constprop.0+0x6c8>
 8004b0e:	1b0b      	subs	r3, r1, r4
 8004b10:	3401      	adds	r4, #1
 8004b12:	18ff      	adds	r7, r7, r3
 8004b14:	18e4      	adds	r4, r4, r3
 8004b16:	2601      	movs	r6, #1
 8004b18:	003d      	movs	r5, r7
 8004b1a:	4276      	negs	r6, r6
 8004b1c:	e008      	b.n	8004b30 <_vsnprintf.constprop.0+0x6e8>
 8004b1e:	9309      	str	r3, [sp, #36]	; 0x24
 8004b20:	1c6b      	adds	r3, r5, #1
 8004b22:	002a      	movs	r2, r5
 8004b24:	9310      	str	r3, [sp, #64]	; 0x40
 8004b26:	9d0a      	ldr	r5, [sp, #40]	; 0x28
 8004b28:	0033      	movs	r3, r6
 8004b2a:	990b      	ldr	r1, [sp, #44]	; 0x2c
 8004b2c:	47a8      	blx	r5
 8004b2e:	9d10      	ldr	r5, [sp, #64]	; 0x40
 8004b30:	9b08      	ldr	r3, [sp, #32]
 8004b32:	1bdb      	subs	r3, r3, r7
 8004b34:	5d58      	ldrb	r0, [r3, r5]
 8004b36:	2800      	cmp	r0, #0
 8004b38:	d007      	beq.n	8004b4a <_vsnprintf.constprop.0+0x702>
 8004b3a:	9b0e      	ldr	r3, [sp, #56]	; 0x38
 8004b3c:	2b00      	cmp	r3, #0
 8004b3e:	d0ef      	beq.n	8004b20 <_vsnprintf.constprop.0+0x6d8>
 8004b40:	9b09      	ldr	r3, [sp, #36]	; 0x24
 8004b42:	9a09      	ldr	r2, [sp, #36]	; 0x24
 8004b44:	3b01      	subs	r3, #1
 8004b46:	2a00      	cmp	r2, #0
 8004b48:	d1e9      	bne.n	8004b1e <_vsnprintf.constprop.0+0x6d6>
 8004b4a:	9b0f      	ldr	r3, [sp, #60]	; 0x3c
 8004b4c:	2b00      	cmp	r3, #0
 8004b4e:	d013      	beq.n	8004b78 <_vsnprintf.constprop.0+0x730>
 8004b50:	002a      	movs	r2, r5
 8004b52:	e007      	b.n	8004b64 <_vsnprintf.constprop.0+0x71c>
 8004b54:	2301      	movs	r3, #1
 8004b56:	1c57      	adds	r7, r2, #1
 8004b58:	2020      	movs	r0, #32
 8004b5a:	990b      	ldr	r1, [sp, #44]	; 0x2c
 8004b5c:	9e0a      	ldr	r6, [sp, #40]	; 0x28
 8004b5e:	425b      	negs	r3, r3
 8004b60:	47b0      	blx	r6
 8004b62:	003a      	movs	r2, r7
 8004b64:	1b63      	subs	r3, r4, r5
 8004b66:	9906      	ldr	r1, [sp, #24]
 8004b68:	18d3      	adds	r3, r2, r3
 8004b6a:	428b      	cmp	r3, r1
 8004b6c:	d3f2      	bcc.n	8004b54 <_vsnprintf.constprop.0+0x70c>
 8004b6e:	2300      	movs	r3, #0
 8004b70:	42a1      	cmp	r1, r4
 8004b72:	d300      	bcc.n	8004b76 <_vsnprintf.constprop.0+0x72e>
 8004b74:	1b0b      	subs	r3, r1, r4
 8004b76:	18ed      	adds	r5, r5, r3
 8004b78:	9b0c      	ldr	r3, [sp, #48]	; 0x30
 8004b7a:	9308      	str	r3, [sp, #32]
 8004b7c:	002f      	movs	r7, r5
 8004b7e:	e46a      	b.n	8004456 <_vsnprintf.constprop.0+0xe>
 8004b80:	2321      	movs	r3, #33	; 0x21
 8004b82:	4333      	orrs	r3, r6
 8004b84:	9304      	str	r3, [sp, #16]
 8004b86:	2308      	movs	r3, #8
 8004b88:	9303      	str	r3, [sp, #12]
 8004b8a:	9b09      	ldr	r3, [sp, #36]	; 0x24
 8004b8c:	9d08      	ldr	r5, [sp, #32]
 8004b8e:	9302      	str	r3, [sp, #8]
 8004b90:	2310      	movs	r3, #16
 8004b92:	9301      	str	r3, [sp, #4]
 8004b94:	2300      	movs	r3, #0
 8004b96:	9300      	str	r3, [sp, #0]
 8004b98:	003a      	movs	r2, r7
 8004b9a:	cd08      	ldmia	r5!, {r3}
 8004b9c:	990b      	ldr	r1, [sp, #44]	; 0x2c
 8004b9e:	980a      	ldr	r0, [sp, #40]	; 0x28
 8004ba0:	f7ff fba5 	bl	80042ee <_ntoa_long.constprop.0>
 8004ba4:	9508      	str	r5, [sp, #32]
 8004ba6:	0007      	movs	r7, r0
 8004ba8:	e455      	b.n	8004456 <_vsnprintf.constprop.0+0xe>
 8004baa:	2320      	movs	r3, #32
 8004bac:	431e      	orrs	r6, r3
 8004bae:	2110      	movs	r1, #16
 8004bb0:	e560      	b.n	8004674 <_vsnprintf.constprop.0+0x22c>
 8004bb2:	2108      	movs	r1, #8
 8004bb4:	e55e      	b.n	8004674 <_vsnprintf.constprop.0+0x22c>
 8004bb6:	2102      	movs	r1, #2
 8004bb8:	e55c      	b.n	8004674 <_vsnprintf.constprop.0+0x22c>
 8004bba:	46c0      	nop			; (mov r8, r8)

08004bbc <vprintf_spf>:
 8004bbc:	b507      	push	{r0, r1, r2, lr}
 8004bbe:	000b      	movs	r3, r1
 8004bc0:	0002      	movs	r2, r0
 8004bc2:	a901      	add	r1, sp, #4
 8004bc4:	4801      	ldr	r0, [pc, #4]	; (8004bcc <vprintf_spf+0x10>)
 8004bc6:	f7ff fc3f 	bl	8004448 <_vsnprintf.constprop.0>
 8004bca:	bd0e      	pop	{r1, r2, r3, pc}
 8004bcc:	0800424d 	.word	0x0800424d

08004bd0 <spi_read_single>:
 8004bd0:	b570      	push	{r4, r5, r6, lr}
 8004bd2:	25a0      	movs	r5, #160	; 0xa0
 8004bd4:	0004      	movs	r4, r0
 8004bd6:	05ed      	lsls	r5, r5, #23
 8004bd8:	0028      	movs	r0, r5
 8004bda:	2140      	movs	r1, #64	; 0x40
 8004bdc:	f000 fa38 	bl	8005050 <gpio_clear>
 8004be0:	2001      	movs	r0, #1
 8004be2:	f000 f92f 	bl	8004e44 <timers_delay_microseconds>
 8004be6:	b2a1      	uxth	r1, r4
 8004be8:	4c08      	ldr	r4, [pc, #32]	; (8004c0c <spi_read_single+0x3c>)
 8004bea:	0020      	movs	r0, r4
 8004bec:	f000 fb84 	bl	80052f8 <spi_xfer>
 8004bf0:	2100      	movs	r1, #0
 8004bf2:	0020      	movs	r0, r4
 8004bf4:	f000 fb80 	bl	80052f8 <spi_xfer>
 8004bf8:	0004      	movs	r4, r0
 8004bfa:	2140      	movs	r1, #64	; 0x40
 8004bfc:	0028      	movs	r0, r5
 8004bfe:	f000 fa25 	bl	800504c <gpio_set>
 8004c02:	2001      	movs	r0, #1
 8004c04:	f000 f91e 	bl	8004e44 <timers_delay_microseconds>
 8004c08:	b2e0      	uxtb	r0, r4
 8004c0a:	bd70      	pop	{r4, r5, r6, pc}
 8004c0c:	40003800 	.word	0x40003800

08004c10 <spi_write_single>:
 8004c10:	b5f8      	push	{r3, r4, r5, r6, r7, lr}
 8004c12:	0004      	movs	r4, r0
 8004c14:	20a0      	movs	r0, #160	; 0xa0
 8004c16:	000e      	movs	r6, r1
 8004c18:	05c0      	lsls	r0, r0, #23
 8004c1a:	2140      	movs	r1, #64	; 0x40
 8004c1c:	f000 fa18 	bl	8005050 <gpio_clear>
 8004c20:	2001      	movs	r0, #1
 8004c22:	f000 f90f 	bl	8004e44 <timers_delay_microseconds>
 8004c26:	2180      	movs	r1, #128	; 0x80
 8004c28:	4815      	ldr	r0, [pc, #84]	; (8004c80 <spi_write_single+0x70>)
 8004c2a:	4321      	orrs	r1, r4
 8004c2c:	f000 fb64 	bl	80052f8 <spi_xfer>
 8004c30:	b2b1      	uxth	r1, r6
 8004c32:	4813      	ldr	r0, [pc, #76]	; (8004c80 <spi_write_single+0x70>)
 8004c34:	f000 fb60 	bl	80052f8 <spi_xfer>
 8004c38:	20a0      	movs	r0, #160	; 0xa0
 8004c3a:	2140      	movs	r1, #64	; 0x40
 8004c3c:	05c0      	lsls	r0, r0, #23
 8004c3e:	f000 fa05 	bl	800504c <gpio_set>
 8004c42:	2001      	movs	r0, #1
 8004c44:	f000 f8fe 	bl	8004e44 <timers_delay_microseconds>
 8004c48:	0020      	movs	r0, r4
 8004c4a:	f7ff ffc1 	bl	8004bd0 <spi_read_single>
 8004c4e:	0005      	movs	r5, r0
 8004c50:	2c12      	cmp	r4, #18
 8004c52:	d00a      	beq.n	8004c6a <spi_write_single+0x5a>
 8004c54:	f000 f91c 	bl	8004e90 <timeout_init>
 8004c58:	0427      	lsls	r7, r4, #16
 8004c5a:	4337      	orrs	r7, r6
 8004c5c:	003a      	movs	r2, r7
 8004c5e:	4909      	ldr	r1, [pc, #36]	; (8004c84 <spi_write_single+0x74>)
 8004c60:	4809      	ldr	r0, [pc, #36]	; (8004c88 <spi_write_single+0x78>)
 8004c62:	f000 f923 	bl	8004eac <timeout>
 8004c66:	2800      	cmp	r0, #0
 8004c68:	d000      	beq.n	8004c6c <spi_write_single+0x5c>
 8004c6a:	bdf8      	pop	{r3, r4, r5, r6, r7, pc}
 8004c6c:	42b5      	cmp	r5, r6
 8004c6e:	d0fc      	beq.n	8004c6a <spi_write_single+0x5a>
 8004c70:	2064      	movs	r0, #100	; 0x64
 8004c72:	f000 f8e7 	bl	8004e44 <timers_delay_microseconds>
 8004c76:	0020      	movs	r0, r4
 8004c78:	f7ff ffaa 	bl	8004bd0 <spi_read_single>
 8004c7c:	0005      	movs	r5, r0
 8004c7e:	e7ed      	b.n	8004c5c <spi_write_single+0x4c>
 8004c80:	40003800 	.word	0x40003800
 8004c84:	080068a8 	.word	0x080068a8
 8004c88:	00002710 	.word	0x00002710

08004c8c <exti4_15_isr>:
 8004c8c:	b5f8      	push	{r3, r4, r5, r6, r7, lr}
 8004c8e:	2480      	movs	r4, #128	; 0x80
 8004c90:	2618      	movs	r6, #24
 8004c92:	00e4      	lsls	r4, r4, #3
 8004c94:	f000 f8ec 	bl	8004e70 <timers_micros>
 8004c98:	0020      	movs	r0, r4
 8004c9a:	f000 f9c7 	bl	800502c <exti_reset_request>
 8004c9e:	0020      	movs	r0, r4
 8004ca0:	f000 f9c4 	bl	800502c <exti_reset_request>
 8004ca4:	4d16      	ldr	r5, [pc, #88]	; (8004d00 <exti4_15_isr+0x74>)
 8004ca6:	2012      	movs	r0, #18
 8004ca8:	782f      	ldrb	r7, [r5, #0]
 8004caa:	f7ff ff91 	bl	8004bd0 <spi_read_single>
 8004cae:	4377      	muls	r7, r6
 8004cb0:	4c14      	ldr	r4, [pc, #80]	; (8004d04 <exti4_15_isr+0x78>)
 8004cb2:	21ff      	movs	r1, #255	; 0xff
 8004cb4:	19e7      	adds	r7, r4, r7
 8004cb6:	7438      	strb	r0, [r7, #16]
 8004cb8:	2012      	movs	r0, #18
 8004cba:	f7ff ffa9 	bl	8004c10 <spi_write_single>
 8004cbe:	21ff      	movs	r1, #255	; 0xff
 8004cc0:	2012      	movs	r0, #18
 8004cc2:	f7ff ffa5 	bl	8004c10 <spi_write_single>
 8004cc6:	201a      	movs	r0, #26
 8004cc8:	f7ff ff82 	bl	8004bd0 <spi_read_single>
 8004ccc:	782b      	ldrb	r3, [r5, #0]
 8004cce:	3889      	subs	r0, #137	; 0x89
 8004cd0:	4373      	muls	r3, r6
 8004cd2:	18e3      	adds	r3, r4, r3
 8004cd4:	8298      	strh	r0, [r3, #20]
 8004cd6:	2019      	movs	r0, #25
 8004cd8:	f7ff ff7a 	bl	8004bd0 <spi_read_single>
 8004cdc:	2201      	movs	r2, #1
 8004cde:	782b      	ldrb	r3, [r5, #0]
 8004ce0:	0880      	lsrs	r0, r0, #2
 8004ce2:	435e      	muls	r6, r3
 8004ce4:	19a4      	adds	r4, r4, r6
 8004ce6:	7c21      	ldrb	r1, [r4, #16]
 8004ce8:	3301      	adds	r3, #1
 8004cea:	0949      	lsrs	r1, r1, #5
 8004cec:	438a      	bics	r2, r1
 8004cee:	7462      	strb	r2, [r4, #17]
 8004cf0:	220f      	movs	r2, #15
 8004cf2:	74a0      	strb	r0, [r4, #18]
 8004cf4:	4013      	ands	r3, r2
 8004cf6:	702b      	strb	r3, [r5, #0]
 8004cf8:	f000 f8ba 	bl	8004e70 <timers_micros>
 8004cfc:	bdf8      	pop	{r3, r4, r5, r6, r7, pc}
 8004cfe:	46c0      	nop			; (mov r8, r8)
 8004d00:	200002a0 	.word	0x200002a0
 8004d04:	20000120 	.word	0x20000120

08004d08 <spf_init>:
 8004d08:	20b0      	movs	r0, #176	; 0xb0
 8004d0a:	b570      	push	{r4, r5, r6, lr}
 8004d0c:	2580      	movs	r5, #128	; 0x80
 8004d0e:	24a0      	movs	r4, #160	; 0xa0
 8004d10:	2680      	movs	r6, #128	; 0x80
 8004d12:	00c0      	lsls	r0, r0, #3
 8004d14:	f000 faba 	bl	800528c <rcc_periph_clock_enable>
 8004d18:	4832      	ldr	r0, [pc, #200]	; (8004de4 <spf_init+0xdc>)
 8004d1a:	f000 fab7 	bl	800528c <rcc_periph_clock_enable>
 8004d1e:	2004      	movs	r0, #4
 8004d20:	f000 fa28 	bl	8005174 <rcc_osc_on>
 8004d24:	2004      	movs	r0, #4
 8004d26:	f000 fa7b 	bl	8005220 <rcc_wait_for_osc_ready>
 8004d2a:	2005      	movs	r0, #5
 8004d2c:	f000 faa2 	bl	8005274 <rcc_set_msi_range>
 8004d30:	2000      	movs	r0, #0
 8004d32:	f000 fa95 	bl	8005260 <rcc_set_hpre>
 8004d36:	2000      	movs	r0, #0
 8004d38:	f000 fa7a 	bl	8005230 <rcc_set_ppre1>
 8004d3c:	2000      	movs	r0, #0
 8004d3e:	f000 fa83 	bl	8005248 <rcc_set_ppre2>
 8004d42:	2000      	movs	r0, #0
 8004d44:	f000 f978 	bl	8005038 <flash_set_ws>
 8004d48:	4b27      	ldr	r3, [pc, #156]	; (8004de8 <spf_init+0xe0>)
 8004d4a:	4a28      	ldr	r2, [pc, #160]	; (8004dec <spf_init+0xe4>)
 8004d4c:	05e4      	lsls	r4, r4, #23
 8004d4e:	6013      	str	r3, [r2, #0]
 8004d50:	4a27      	ldr	r2, [pc, #156]	; (8004df0 <spf_init+0xe8>)
 8004d52:	00ad      	lsls	r5, r5, #2
 8004d54:	6013      	str	r3, [r2, #0]
 8004d56:	4a27      	ldr	r2, [pc, #156]	; (8004df4 <spf_init+0xec>)
 8004d58:	4827      	ldr	r0, [pc, #156]	; (8004df8 <spf_init+0xf0>)
 8004d5a:	00f6      	lsls	r6, r6, #3
 8004d5c:	6013      	str	r3, [r2, #0]
 8004d5e:	f000 fa95 	bl	800528c <rcc_periph_clock_enable>
 8004d62:	002b      	movs	r3, r5
 8004d64:	0020      	movs	r0, r4
 8004d66:	2200      	movs	r2, #0
 8004d68:	2102      	movs	r1, #2
 8004d6a:	f000 f974 	bl	8005056 <gpio_mode_setup>
 8004d6e:	0033      	movs	r3, r6
 8004d70:	0020      	movs	r0, r4
 8004d72:	2200      	movs	r2, #0
 8004d74:	2102      	movs	r1, #2
 8004d76:	f000 f96e 	bl	8005056 <gpio_mode_setup>
 8004d7a:	2200      	movs	r2, #0
 8004d7c:	002b      	movs	r3, r5
 8004d7e:	0011      	movs	r1, r2
 8004d80:	0020      	movs	r0, r4
 8004d82:	f000 f988 	bl	8005096 <gpio_set_output_options>
 8004d86:	002a      	movs	r2, r5
 8004d88:	0020      	movs	r0, r4
 8004d8a:	2104      	movs	r1, #4
 8004d8c:	f000 f9a1 	bl	80050d2 <gpio_set_af>
 8004d90:	0032      	movs	r2, r6
 8004d92:	2104      	movs	r1, #4
 8004d94:	0020      	movs	r0, r4
 8004d96:	4c19      	ldr	r4, [pc, #100]	; (8004dfc <spf_init+0xf4>)
 8004d98:	f000 f99b 	bl	80050d2 <gpio_set_af>
 8004d9c:	4818      	ldr	r0, [pc, #96]	; (8004e00 <spf_init+0xf8>)
 8004d9e:	f000 fa83 	bl	80052a8 <rcc_periph_reset_pulse>
 8004da2:	0020      	movs	r0, r4
 8004da4:	f000 fb0f 	bl	80053c6 <usart_disable>
 8004da8:	21e1      	movs	r1, #225	; 0xe1
 8004daa:	0020      	movs	r0, r4
 8004dac:	0249      	lsls	r1, r1, #9
 8004dae:	f000 faad 	bl	800530c <usart_set_baudrate>
 8004db2:	0020      	movs	r0, r4
 8004db4:	2108      	movs	r1, #8
 8004db6:	f000 fad5 	bl	8005364 <usart_set_databits>
 8004dba:	0020      	movs	r0, r4
 8004dbc:	2100      	movs	r1, #0
 8004dbe:	f000 fadf 	bl	8005380 <usart_set_stopbits>
 8004dc2:	0020      	movs	r0, r4
 8004dc4:	210c      	movs	r1, #12
 8004dc6:	f000 faeb 	bl	80053a0 <usart_set_mode>
 8004dca:	0020      	movs	r0, r4
 8004dcc:	2100      	movs	r1, #0
 8004dce:	f000 fadf 	bl	8005390 <usart_set_parity>
 8004dd2:	2100      	movs	r1, #0
 8004dd4:	0020      	movs	r0, r4
 8004dd6:	f000 fae9 	bl	80053ac <usart_set_flow_control>
 8004dda:	0020      	movs	r0, r4
 8004ddc:	f000 faee 	bl	80053bc <usart_enable>
 8004de0:	bd70      	pop	{r4, r5, r6, pc}
 8004de2:	46c0      	nop			; (mov r8, r8)
 8004de4:	00000581 	.word	0x00000581
 8004de8:	001fff68 	.word	0x001fff68
 8004dec:	20000000 	.word	0x20000000
 8004df0:	20000004 	.word	0x20000004
 8004df4:	20000008 	.word	0x20000008
 8004df8:	0000068e 	.word	0x0000068e
 8004dfc:	40013800 	.word	0x40013800
 8004e00:	0000048e 	.word	0x0000048e

08004e04 <spf_serial_printf>:
 8004e04:	b40f      	push	{r0, r1, r2, r3}
 8004e06:	b513      	push	{r0, r1, r4, lr}
 8004e08:	a904      	add	r1, sp, #16
 8004e0a:	c901      	ldmia	r1!, {r0}
 8004e0c:	9101      	str	r1, [sp, #4]
 8004e0e:	f7ff fed5 	bl	8004bbc <vprintf_spf>
 8004e12:	0004      	movs	r4, r0
 8004e14:	2140      	movs	r1, #64	; 0x40
 8004e16:	4806      	ldr	r0, [pc, #24]	; (8004e30 <spf_serial_printf+0x2c>)
 8004e18:	f000 faf1 	bl	80053fe <usart_get_flag>
 8004e1c:	2800      	cmp	r0, #0
 8004e1e:	d004      	beq.n	8004e2a <spf_serial_printf+0x26>
 8004e20:	0020      	movs	r0, r4
 8004e22:	bc16      	pop	{r1, r2, r4}
 8004e24:	bc08      	pop	{r3}
 8004e26:	b004      	add	sp, #16
 8004e28:	4718      	bx	r3
 8004e2a:	46c0      	nop			; (mov r8, r8)
 8004e2c:	e7f2      	b.n	8004e14 <spf_serial_printf+0x10>
 8004e2e:	46c0      	nop			; (mov r8, r8)
 8004e30:	40013800 	.word	0x40013800

08004e34 <_putchar_spf>:
 8004e34:	b510      	push	{r4, lr}
 8004e36:	0001      	movs	r1, r0
 8004e38:	4801      	ldr	r0, [pc, #4]	; (8004e40 <_putchar_spf+0xc>)
 8004e3a:	f000 fac9 	bl	80053d0 <usart_send_blocking>
 8004e3e:	bd10      	pop	{r4, pc}
 8004e40:	40013800 	.word	0x40013800

08004e44 <timers_delay_microseconds>:
 8004e44:	b570      	push	{r4, r5, r6, lr}
 8004e46:	0004      	movs	r4, r0
 8004e48:	4807      	ldr	r0, [pc, #28]	; (8004e68 <timers_delay_microseconds+0x24>)
 8004e4a:	f000 f96c 	bl	8005126 <lptimer_get_counter>
 8004e4e:	4b07      	ldr	r3, [pc, #28]	; (8004e6c <timers_delay_microseconds+0x28>)
 8004e50:	0005      	movs	r5, r0
 8004e52:	429c      	cmp	r4, r3
 8004e54:	d900      	bls.n	8004e58 <timers_delay_microseconds+0x14>
 8004e56:	001c      	movs	r4, r3
 8004e58:	4803      	ldr	r0, [pc, #12]	; (8004e68 <timers_delay_microseconds+0x24>)
 8004e5a:	f000 f964 	bl	8005126 <lptimer_get_counter>
 8004e5e:	1b40      	subs	r0, r0, r5
 8004e60:	42a0      	cmp	r0, r4
 8004e62:	d3f9      	bcc.n	8004e58 <timers_delay_microseconds+0x14>
 8004e64:	bd70      	pop	{r4, r5, r6, pc}
 8004e66:	46c0      	nop			; (mov r8, r8)
 8004e68:	40007c00 	.word	0x40007c00
 8004e6c:	0000fde8 	.word	0x0000fde8

08004e70 <timers_micros>:
 8004e70:	b510      	push	{r4, lr}
 8004e72:	4802      	ldr	r0, [pc, #8]	; (8004e7c <timers_micros+0xc>)
 8004e74:	f000 f957 	bl	8005126 <lptimer_get_counter>
 8004e78:	bd10      	pop	{r4, pc}
 8004e7a:	46c0      	nop			; (mov r8, r8)
 8004e7c:	40007c00 	.word	0x40007c00

08004e80 <timers_millis>:
 8004e80:	b510      	push	{r4, lr}
 8004e82:	4802      	ldr	r0, [pc, #8]	; (8004e8c <timers_millis+0xc>)
 8004e84:	f000 fa40 	bl	8005308 <timer_get_counter>
 8004e88:	b280      	uxth	r0, r0
 8004e8a:	bd10      	pop	{r4, pc}
 8004e8c:	40001000 	.word	0x40001000

08004e90 <timeout_init>:
 8004e90:	2200      	movs	r2, #0
 8004e92:	4b04      	ldr	r3, [pc, #16]	; (8004ea4 <timeout_init+0x14>)
 8004e94:	b510      	push	{r4, lr}
 8004e96:	601a      	str	r2, [r3, #0]
 8004e98:	f7ff ffea 	bl	8004e70 <timers_micros>
 8004e9c:	4b02      	ldr	r3, [pc, #8]	; (8004ea8 <timeout_init+0x18>)
 8004e9e:	8018      	strh	r0, [r3, #0]
 8004ea0:	bd10      	pop	{r4, pc}
 8004ea2:	46c0      	nop			; (mov r8, r8)
 8004ea4:	200002a4 	.word	0x200002a4
 8004ea8:	200002a8 	.word	0x200002a8

08004eac <timeout>:
 8004eac:	b5f7      	push	{r0, r1, r2, r4, r5, r6, r7, lr}
 8004eae:	0015      	movs	r5, r2
 8004eb0:	000c      	movs	r4, r1
 8004eb2:	9001      	str	r0, [sp, #4]
 8004eb4:	f7ff ffdc 	bl	8004e70 <timers_micros>
 8004eb8:	4f0b      	ldr	r7, [pc, #44]	; (8004ee8 <timeout+0x3c>)
 8004eba:	4e0c      	ldr	r6, [pc, #48]	; (8004eec <timeout+0x40>)
 8004ebc:	883b      	ldrh	r3, [r7, #0]
 8004ebe:	1ac0      	subs	r0, r0, r3
 8004ec0:	6833      	ldr	r3, [r6, #0]
 8004ec2:	b280      	uxth	r0, r0
 8004ec4:	18c0      	adds	r0, r0, r3
 8004ec6:	6030      	str	r0, [r6, #0]
 8004ec8:	f7ff ffd2 	bl	8004e70 <timers_micros>
 8004ecc:	6833      	ldr	r3, [r6, #0]
 8004ece:	9a01      	ldr	r2, [sp, #4]
 8004ed0:	8038      	strh	r0, [r7, #0]
 8004ed2:	2000      	movs	r0, #0
 8004ed4:	4293      	cmp	r3, r2
 8004ed6:	d905      	bls.n	8004ee4 <timeout+0x38>
 8004ed8:	002a      	movs	r2, r5
 8004eda:	0021      	movs	r1, r4
 8004edc:	4804      	ldr	r0, [pc, #16]	; (8004ef0 <timeout+0x44>)
 8004ede:	f7ff ff91 	bl	8004e04 <spf_serial_printf>
 8004ee2:	2001      	movs	r0, #1
 8004ee4:	bdfe      	pop	{r1, r2, r3, r4, r5, r6, r7, pc}
 8004ee6:	46c0      	nop			; (mov r8, r8)
 8004ee8:	200002a8 	.word	0x200002a8
 8004eec:	200002a4 	.word	0x200002a4
 8004ef0:	080068b6 	.word	0x080068b6

08004ef4 <set_gpio_for_standby>:
 8004ef4:	b5f8      	push	{r3, r4, r5, r6, r7, lr}
 8004ef6:	2680      	movs	r6, #128	; 0x80
 8004ef8:	4c36      	ldr	r4, [pc, #216]	; (8004fd4 <set_gpio_for_standby+0xe0>)
 8004efa:	0076      	lsls	r6, r6, #1
 8004efc:	0033      	movs	r3, r6
 8004efe:	2200      	movs	r2, #0
 8004f00:	0020      	movs	r0, r4
 8004f02:	2103      	movs	r1, #3
 8004f04:	f000 f8a7 	bl	8005056 <gpio_mode_setup>
 8004f08:	25a0      	movs	r5, #160	; 0xa0
 8004f0a:	0031      	movs	r1, r6
 8004f0c:	0020      	movs	r0, r4
 8004f0e:	f000 f89d 	bl	800504c <gpio_set>
 8004f12:	2780      	movs	r7, #128	; 0x80
 8004f14:	2380      	movs	r3, #128	; 0x80
 8004f16:	05ed      	lsls	r5, r5, #23
 8004f18:	00ff      	lsls	r7, r7, #3
 8004f1a:	0028      	movs	r0, r5
 8004f1c:	2201      	movs	r2, #1
 8004f1e:	2100      	movs	r1, #0
 8004f20:	009b      	lsls	r3, r3, #2
 8004f22:	f000 f898 	bl	8005056 <gpio_mode_setup>
 8004f26:	003b      	movs	r3, r7
 8004f28:	0028      	movs	r0, r5
 8004f2a:	2200      	movs	r2, #0
 8004f2c:	2101      	movs	r1, #1
 8004f2e:	f000 f892 	bl	8005056 <gpio_mode_setup>
 8004f32:	0039      	movs	r1, r7
 8004f34:	0028      	movs	r0, r5
 8004f36:	f000 f889 	bl	800504c <gpio_set>
 8004f3a:	0028      	movs	r0, r5
 8004f3c:	2301      	movs	r3, #1
 8004f3e:	2200      	movs	r2, #0
 8004f40:	2103      	movs	r1, #3
 8004f42:	f000 f888 	bl	8005056 <gpio_mode_setup>
 8004f46:	2380      	movs	r3, #128	; 0x80
 8004f48:	0020      	movs	r0, r4
 8004f4a:	2200      	movs	r2, #0
 8004f4c:	2103      	movs	r1, #3
 8004f4e:	01db      	lsls	r3, r3, #7
 8004f50:	f000 f881 	bl	8005056 <gpio_mode_setup>
 8004f54:	2380      	movs	r3, #128	; 0x80
 8004f56:	0020      	movs	r0, r4
 8004f58:	2202      	movs	r2, #2
 8004f5a:	2100      	movs	r1, #0
 8004f5c:	019b      	lsls	r3, r3, #6
 8004f5e:	f000 f87a 	bl	8005056 <gpio_mode_setup>
 8004f62:	2380      	movs	r3, #128	; 0x80
 8004f64:	0020      	movs	r0, r4
 8004f66:	2202      	movs	r2, #2
 8004f68:	2100      	movs	r1, #0
 8004f6a:	021b      	lsls	r3, r3, #8
 8004f6c:	f000 f873 	bl	8005056 <gpio_mode_setup>
 8004f70:	0028      	movs	r0, r5
 8004f72:	2340      	movs	r3, #64	; 0x40
 8004f74:	2201      	movs	r2, #1
 8004f76:	2100      	movs	r1, #0
 8004f78:	f000 f86d 	bl	8005056 <gpio_mode_setup>
 8004f7c:	0028      	movs	r0, r5
 8004f7e:	2310      	movs	r3, #16
 8004f80:	2201      	movs	r2, #1
 8004f82:	2100      	movs	r1, #0
 8004f84:	f000 f867 	bl	8005056 <gpio_mode_setup>
 8004f88:	003b      	movs	r3, r7
 8004f8a:	0020      	movs	r0, r4
 8004f8c:	2200      	movs	r2, #0
 8004f8e:	2103      	movs	r1, #3
 8004f90:	f000 f861 	bl	8005056 <gpio_mode_setup>
 8004f94:	2380      	movs	r3, #128	; 0x80
 8004f96:	0020      	movs	r0, r4
 8004f98:	2200      	movs	r2, #0
 8004f9a:	2103      	movs	r1, #3
 8004f9c:	011b      	lsls	r3, r3, #4
 8004f9e:	f000 f85a 	bl	8005056 <gpio_mode_setup>
 8004fa2:	0033      	movs	r3, r6
 8004fa4:	0028      	movs	r0, r5
 8004fa6:	2200      	movs	r2, #0
 8004fa8:	2103      	movs	r1, #3
 8004faa:	f000 f854 	bl	8005056 <gpio_mode_setup>
 8004fae:	0020      	movs	r0, r4
 8004fb0:	2302      	movs	r3, #2
 8004fb2:	2200      	movs	r2, #0
 8004fb4:	2103      	movs	r1, #3
 8004fb6:	f000 f84e 	bl	8005056 <gpio_mode_setup>
 8004fba:	0020      	movs	r0, r4
 8004fbc:	2304      	movs	r3, #4
 8004fbe:	2200      	movs	r2, #0
 8004fc0:	2103      	movs	r1, #3
 8004fc2:	f000 f848 	bl	8005056 <gpio_mode_setup>
 8004fc6:	2301      	movs	r3, #1
 8004fc8:	2200      	movs	r2, #0
 8004fca:	2103      	movs	r1, #3
 8004fcc:	0020      	movs	r0, r4
 8004fce:	f000 f842 	bl	8005056 <gpio_mode_setup>
 8004fd2:	bdf8      	pop	{r3, r4, r5, r6, r7, pc}
 8004fd4:	50000400 	.word	0x50000400

08004fd8 <rtc_isr>:
 8004fd8:	2080      	movs	r0, #128	; 0x80
 8004fda:	b510      	push	{r4, lr}
 8004fdc:	0340      	lsls	r0, r0, #13
 8004fde:	f000 f825 	bl	800502c <exti_reset_request>
 8004fe2:	f7ff fe91 	bl	8004d08 <spf_init>
 8004fe6:	480c      	ldr	r0, [pc, #48]	; (8005018 <rtc_isr+0x40>)
 8004fe8:	f7ff ff0c 	bl	8004e04 <spf_serial_printf>
 8004fec:	4b0b      	ldr	r3, [pc, #44]	; (800501c <rtc_isr+0x44>)
 8004fee:	681b      	ldr	r3, [r3, #0]
 8004ff0:	055b      	lsls	r3, r3, #21
 8004ff2:	d50f      	bpl.n	8005014 <rtc_isr+0x3c>
 8004ff4:	f000 f89a 	bl	800512c <pwr_disable_backup_domain_write_protect>
 8004ff8:	f000 f966 	bl	80052c8 <rtc_unlock>
 8004ffc:	f000 f972 	bl	80052e4 <rtc_clear_wakeup_flag>
 8005000:	f000 f8b0 	bl	8005164 <pwr_clear_wakeup_flag>
 8005004:	f000 f8a6 	bl	8005154 <pwr_clear_standby_flag>
 8005008:	f000 f966 	bl	80052d8 <rtc_lock>
 800500c:	f000 f898 	bl	8005140 <pwr_enable_backup_domain_write_protect>
 8005010:	f7ff ff70 	bl	8004ef4 <set_gpio_for_standby>
 8005014:	bd10      	pop	{r4, pc}
 8005016:	46c0      	nop			; (mov r8, r8)
 8005018:	080068c7 	.word	0x080068c7
 800501c:	4000280c 	.word	0x4000280c

08005020 <adc_start_conversion_regular>:
 * @param[in] adc ADC block register address base @ref adc_reg_base
 */
void adc_start_conversion_regular(uint32_t adc)
{
	/* Start conversion on regular channels. */
	ADC_CR(adc) |= ADC_CR_ADSTART;
 8005020:	2304      	movs	r3, #4
 8005022:	6882      	ldr	r2, [r0, #8]
 8005024:	4313      	orrs	r3, r2
 8005026:	6083      	str	r3, [r0, #8]
}
 8005028:	4770      	bx	lr
	...

0800502c <exti_reset_request>:
{
#if defined(EXTI_RPR1) && defined(EXTI_FPR1)
	EXTI_RPR1 = extis;
	EXTI_FPR1 = extis;
#else
	EXTI_PR = extis;
 800502c:	4b01      	ldr	r3, [pc, #4]	; (8005034 <exti_reset_request+0x8>)
 800502e:	6018      	str	r0, [r3, #0]
#endif
}
 8005030:	4770      	bx	lr
 8005032:	46c0      	nop			; (mov r8, r8)
 8005034:	40010414 	.word	0x40010414

08005038 <flash_set_ws>:
void flash_set_ws(uint32_t ws)
{
	uint32_t reg32;

	reg32 = FLASH_ACR;
	reg32 &= ~(FLASH_ACR_LATENCY_MASK << FLASH_ACR_LATENCY_SHIFT);
 8005038:	2101      	movs	r1, #1
	reg32 = FLASH_ACR;
 800503a:	4a03      	ldr	r2, [pc, #12]	; (8005048 <flash_set_ws+0x10>)
 800503c:	6813      	ldr	r3, [r2, #0]
	reg32 &= ~(FLASH_ACR_LATENCY_MASK << FLASH_ACR_LATENCY_SHIFT);
 800503e:	438b      	bics	r3, r1
	reg32 |= (ws << FLASH_ACR_LATENCY_SHIFT);
 8005040:	4303      	orrs	r3, r0
	FLASH_ACR = reg32;
 8005042:	6013      	str	r3, [r2, #0]
}
 8005044:	4770      	bx	lr
 8005046:	46c0      	nop			; (mov r8, r8)
 8005048:	40022000 	.word	0x40022000

0800504c <gpio_set>:
	     If multiple pins are to be changed, use bitwise OR '|' to separate
	     them.
*/
void gpio_set(uint32_t gpioport, uint16_t gpios)
{
	GPIO_BSRR(gpioport) = gpios;
 800504c:	6181      	str	r1, [r0, #24]
}
 800504e:	4770      	bx	lr

08005050 <gpio_clear>:
	     If multiple pins are to be changed, use bitwise OR '|' to separate
	     them.
*/
void  gpio_clear(uint32_t gpioport, uint16_t gpios)
{
	GPIO_BSRR(gpioport) = (gpios << 16);
 8005050:	0409      	lsls	r1, r1, #16
 8005052:	6181      	str	r1, [r0, #24]
}
 8005054:	4770      	bx	lr

08005056 <gpio_mode_setup>:
	     If multiple pins are to be set, use bitwise OR '|' to separate
	     them.
*/
void gpio_mode_setup(uint32_t gpioport, uint8_t mode, uint8_t pull_up_down,
		     uint16_t gpios)
{
 8005056:	b5f0      	push	{r4, r5, r6, r7, lr}
 8005058:	b085      	sub	sp, #20
 800505a:	9101      	str	r1, [sp, #4]
	for (i = 0; i < 16; i++) {
		if (!((1 << i) & gpios)) {
			continue;
		}

		moder &= ~GPIO_MODE_MASK(i);
 800505c:	2703      	movs	r7, #3
	pupd = GPIO_PUPDR(gpioport);
 800505e:	2100      	movs	r1, #0
{
 8005060:	9202      	str	r2, [sp, #8]
 8005062:	9303      	str	r3, [sp, #12]
	moder = GPIO_MODER(gpioport);
 8005064:	6802      	ldr	r2, [r0, #0]
	pupd = GPIO_PUPDR(gpioport);
 8005066:	68c3      	ldr	r3, [r0, #12]
		if (!((1 << i) & gpios)) {
 8005068:	9c03      	ldr	r4, [sp, #12]
 800506a:	2501      	movs	r5, #1
 800506c:	410c      	asrs	r4, r1
 800506e:	422c      	tst	r4, r5
 8005070:	d00a      	beq.n	8005088 <gpio_mode_setup+0x32>
		moder &= ~GPIO_MODE_MASK(i);
 8005072:	003d      	movs	r5, r7
 8005074:	004c      	lsls	r4, r1, #1
 8005076:	40a5      	lsls	r5, r4
		moder |= GPIO_MODE(i, mode);
 8005078:	9e01      	ldr	r6, [sp, #4]
		moder &= ~GPIO_MODE_MASK(i);
 800507a:	43aa      	bics	r2, r5
		pupd &= ~GPIO_PUPD_MASK(i);
 800507c:	43ab      	bics	r3, r5
		pupd |= GPIO_PUPD(i, pull_up_down);
 800507e:	9d02      	ldr	r5, [sp, #8]
		moder |= GPIO_MODE(i, mode);
 8005080:	40a6      	lsls	r6, r4
		pupd |= GPIO_PUPD(i, pull_up_down);
 8005082:	40a5      	lsls	r5, r4
		moder |= GPIO_MODE(i, mode);
 8005084:	4332      	orrs	r2, r6
		pupd |= GPIO_PUPD(i, pull_up_down);
 8005086:	432b      	orrs	r3, r5
	for (i = 0; i < 16; i++) {
 8005088:	3101      	adds	r1, #1
 800508a:	2910      	cmp	r1, #16
 800508c:	d1ec      	bne.n	8005068 <gpio_mode_setup+0x12>
	}

	/* Set mode and pull up/down control registers. */
	GPIO_MODER(gpioport) = moder;
 800508e:	6002      	str	r2, [r0, #0]
	GPIO_PUPDR(gpioport) = pupd;
 8005090:	60c3      	str	r3, [r0, #12]
}
 8005092:	b005      	add	sp, #20
 8005094:	bdf0      	pop	{r4, r5, r6, r7, pc}

08005096 <gpio_set_output_options>:
	     If multiple pins are to be set, use bitwise OR '|' to separate
	     them.
*/
void gpio_set_output_options(uint32_t gpioport, uint8_t otype, uint8_t speed,
			     uint16_t gpios)
{
 8005096:	b5f7      	push	{r0, r1, r2, r4, r5, r6, r7, lr}
 8005098:	9201      	str	r2, [sp, #4]
	uint16_t i;
	uint32_t ospeedr;

	if (otype == 0x1) {
 800509a:	2901      	cmp	r1, #1
 800509c:	d116      	bne.n	80050cc <gpio_set_output_options+0x36>
		GPIO_OTYPER(gpioport) |= gpios;
 800509e:	6841      	ldr	r1, [r0, #4]
 80050a0:	4319      	orrs	r1, r3
	} else {
		GPIO_OTYPER(gpioport) &= ~gpios;
	}

	ospeedr = GPIO_OSPEEDR(gpioport);
 80050a2:	2400      	movs	r4, #0

	for (i = 0; i < 16; i++) {
		if (!((1 << i) & gpios)) {
 80050a4:	2601      	movs	r6, #1
			continue;
		}
		ospeedr &= ~GPIO_OSPEED_MASK(i);
 80050a6:	2703      	movs	r7, #3
		GPIO_OTYPER(gpioport) &= ~gpios;
 80050a8:	6041      	str	r1, [r0, #4]
	ospeedr = GPIO_OSPEEDR(gpioport);
 80050aa:	6881      	ldr	r1, [r0, #8]
		if (!((1 << i) & gpios)) {
 80050ac:	001d      	movs	r5, r3
 80050ae:	4125      	asrs	r5, r4
 80050b0:	4235      	tst	r5, r6
 80050b2:	d006      	beq.n	80050c2 <gpio_set_output_options+0x2c>
		ospeedr &= ~GPIO_OSPEED_MASK(i);
 80050b4:	003a      	movs	r2, r7
 80050b6:	0065      	lsls	r5, r4, #1
 80050b8:	40aa      	lsls	r2, r5
 80050ba:	4391      	bics	r1, r2
		ospeedr |= GPIO_OSPEED(i, speed);
 80050bc:	9a01      	ldr	r2, [sp, #4]
 80050be:	40aa      	lsls	r2, r5
 80050c0:	4311      	orrs	r1, r2
	for (i = 0; i < 16; i++) {
 80050c2:	3401      	adds	r4, #1
 80050c4:	2c10      	cmp	r4, #16
 80050c6:	d1f1      	bne.n	80050ac <gpio_set_output_options+0x16>
	}

	GPIO_OSPEEDR(gpioport) = ospeedr;
 80050c8:	6081      	str	r1, [r0, #8]
}
 80050ca:	bdf7      	pop	{r0, r1, r2, r4, r5, r6, r7, pc}
		GPIO_OTYPER(gpioport) &= ~gpios;
 80050cc:	6841      	ldr	r1, [r0, #4]
 80050ce:	4399      	bics	r1, r3
 80050d0:	e7e7      	b.n	80050a2 <gpio_set_output_options+0xc>

080050d2 <gpio_set_af>:
@param[in] gpios Unsigned int16. Pin identifiers @ref gpio_pin_id
	     If multiple pins are to be set, use bitwise OR '|' to separate
	     them.
*/
void gpio_set_af(uint32_t gpioport, uint8_t alt_func_num, uint16_t gpios)
{
 80050d2:	b5f7      	push	{r0, r1, r2, r4, r5, r6, r7, lr}
	uint16_t i;
	uint32_t afrl, afrh;

	afrl = GPIO_AFRL(gpioport);
	afrh = GPIO_AFRH(gpioport);
 80050d4:	2300      	movs	r3, #0

	for (i = 0; i < 8; i++) {
		if (!((1 << i) & gpios)) {
 80050d6:	2601      	movs	r6, #1
			continue;
		}
		afrl &= ~GPIO_AFR_MASK(i);
 80050d8:	270f      	movs	r7, #15
	afrl = GPIO_AFRL(gpioport);
 80050da:	6a04      	ldr	r4, [r0, #32]
{
 80050dc:	9100      	str	r1, [sp, #0]
	afrh = GPIO_AFRH(gpioport);
 80050de:	6a41      	ldr	r1, [r0, #36]	; 0x24
{
 80050e0:	9201      	str	r2, [sp, #4]
		if (!((1 << i) & gpios)) {
 80050e2:	9d01      	ldr	r5, [sp, #4]
 80050e4:	411d      	asrs	r5, r3
 80050e6:	4235      	tst	r5, r6
 80050e8:	d006      	beq.n	80050f8 <gpio_set_af+0x26>
		afrl &= ~GPIO_AFR_MASK(i);
 80050ea:	003a      	movs	r2, r7
 80050ec:	009d      	lsls	r5, r3, #2
 80050ee:	40aa      	lsls	r2, r5
 80050f0:	4394      	bics	r4, r2
		afrl |= GPIO_AFR(i, alt_func_num);
 80050f2:	9a00      	ldr	r2, [sp, #0]
 80050f4:	40aa      	lsls	r2, r5
 80050f6:	4314      	orrs	r4, r2
	for (i = 0; i < 8; i++) {
 80050f8:	3301      	adds	r3, #1
 80050fa:	2b08      	cmp	r3, #8
 80050fc:	d1f1      	bne.n	80050e2 <gpio_set_af+0x10>
	}

	for (i = 8; i < 16; i++) {
		if (!((1 << i) & gpios)) {
 80050fe:	2601      	movs	r6, #1
			continue;
		}
		afrh &= ~GPIO_AFR_MASK(i - 8);
 8005100:	270f      	movs	r7, #15
		if (!((1 << i) & gpios)) {
 8005102:	9a01      	ldr	r2, [sp, #4]
 8005104:	411a      	asrs	r2, r3
 8005106:	4232      	tst	r2, r6
 8005108:	d007      	beq.n	800511a <gpio_set_af+0x48>
		afrh &= ~GPIO_AFR_MASK(i - 8);
 800510a:	003a      	movs	r2, r7
 800510c:	009d      	lsls	r5, r3, #2
 800510e:	3d20      	subs	r5, #32
 8005110:	40aa      	lsls	r2, r5
 8005112:	4391      	bics	r1, r2
		afrh |= GPIO_AFR(i - 8, alt_func_num);
 8005114:	9a00      	ldr	r2, [sp, #0]
 8005116:	40aa      	lsls	r2, r5
 8005118:	4311      	orrs	r1, r2
	for (i = 8; i < 16; i++) {
 800511a:	3301      	adds	r3, #1
 800511c:	2b10      	cmp	r3, #16
 800511e:	d1f0      	bne.n	8005102 <gpio_set_af+0x30>
	}

	GPIO_AFRL(gpioport) = afrl;
 8005120:	6204      	str	r4, [r0, #32]
	GPIO_AFRH(gpioport) = afrh;
 8005122:	6241      	str	r1, [r0, #36]	; 0x24
}
 8005124:	bdf7      	pop	{r0, r1, r2, r4, r5, r6, r7, pc}

08005126 <lptimer_get_counter>:
 * @param[in] lptimer_peripheral lptimer base address (@ref lptim_reg_base)
 * @returns Counter value.
 */
uint16_t lptimer_get_counter(uint32_t lptimer_peripheral)
{
	return LPTIM_CNT(lptimer_peripheral);
 8005126:	69c0      	ldr	r0, [r0, #28]
 8005128:	b280      	uxth	r0, r0
}
 800512a:	4770      	bx	lr

0800512c <pwr_disable_backup_domain_write_protect>:
protected after a reset.
*/

void pwr_disable_backup_domain_write_protect(void)
{
	PWR_CR |= PWR_CR_DBP;
 800512c:	2380      	movs	r3, #128	; 0x80
 800512e:	4a03      	ldr	r2, [pc, #12]	; (800513c <pwr_disable_backup_domain_write_protect+0x10>)
 8005130:	005b      	lsls	r3, r3, #1
 8005132:	6811      	ldr	r1, [r2, #0]
 8005134:	430b      	orrs	r3, r1
 8005136:	6013      	str	r3, [r2, #0]
}
 8005138:	4770      	bx	lr
 800513a:	46c0      	nop			; (mov r8, r8)
 800513c:	40007000 	.word	0x40007000

08005140 <pwr_enable_backup_domain_write_protect>:
This protects backup domain registers from inadvertent change.
*/

void pwr_enable_backup_domain_write_protect(void)
{
	PWR_CR &= ~PWR_CR_DBP;
 8005140:	4a02      	ldr	r2, [pc, #8]	; (800514c <pwr_enable_backup_domain_write_protect+0xc>)
 8005142:	4903      	ldr	r1, [pc, #12]	; (8005150 <pwr_enable_backup_domain_write_protect+0x10>)
 8005144:	6813      	ldr	r3, [r2, #0]
 8005146:	400b      	ands	r3, r1
 8005148:	6013      	str	r3, [r2, #0]
}
 800514a:	4770      	bx	lr
 800514c:	40007000 	.word	0x40007000
 8005150:	fffffeff 	.word	0xfffffeff

08005154 <pwr_clear_standby_flag>:
This is set when the processor returns from a standby mode.
*/

void pwr_clear_standby_flag(void)
{
	PWR_CR |= PWR_CR_CSBF;
 8005154:	2308      	movs	r3, #8
 8005156:	4a02      	ldr	r2, [pc, #8]	; (8005160 <pwr_clear_standby_flag+0xc>)
 8005158:	6811      	ldr	r1, [r2, #0]
 800515a:	430b      	orrs	r3, r1
 800515c:	6013      	str	r3, [r2, #0]
}
 800515e:	4770      	bx	lr
 8005160:	40007000 	.word	0x40007000

08005164 <pwr_clear_wakeup_flag>:
This is set when the processor receives a wakeup signal.
*/

void pwr_clear_wakeup_flag(void)
{
	PWR_CR |= PWR_CR_CWUF;
 8005164:	2304      	movs	r3, #4
 8005166:	4a02      	ldr	r2, [pc, #8]	; (8005170 <pwr_clear_wakeup_flag+0xc>)
 8005168:	6811      	ldr	r1, [r2, #0]
 800516a:	430b      	orrs	r3, r1
 800516c:	6013      	str	r3, [r2, #0]
}
 800516e:	4770      	bx	lr
 8005170:	40007000 	.word	0x40007000

08005174 <rcc_osc_on>:
uint32_t rcc_ahb_frequency = 2097000;
uint32_t rcc_apb1_frequency = 2097000;
uint32_t rcc_apb2_frequency = 2097000;

void rcc_osc_on(enum rcc_osc osc)
{
 8005174:	b500      	push	{lr}
 8005176:	2806      	cmp	r0, #6
 8005178:	d80b      	bhi.n	8005192 <rcc_osc_on+0x1e>
 800517a:	f000 f98d 	bl	8005498 <__gnu_thumb1_case_uqi>
 800517e:	1004      	.short	0x1004
 8005180:	1b0b1915 	.word	0x1b0b1915
 8005184:	1d          	.byte	0x1d
 8005185:	00          	.byte	0x00
	switch (osc) {
	case RCC_PLL:
		RCC_CR |= RCC_CR_PLLON;
 8005186:	2380      	movs	r3, #128	; 0x80
 8005188:	4a0c      	ldr	r2, [pc, #48]	; (80051bc <rcc_osc_on+0x48>)
 800518a:	045b      	lsls	r3, r3, #17
 800518c:	6811      	ldr	r1, [r2, #0]
		break;
	case RCC_LSE:
		RCC_CSR |= RCC_CSR_LSEON;
		break;
	case RCC_LSI:
		RCC_CSR |= RCC_CSR_LSION;
 800518e:	430b      	orrs	r3, r1
 8005190:	6013      	str	r3, [r2, #0]
		break;
	}
}
 8005192:	bd00      	pop	{pc}
		RCC_CR |= RCC_CR_MSION;
 8005194:	4a09      	ldr	r2, [pc, #36]	; (80051bc <rcc_osc_on+0x48>)
		RCC_CSR |= RCC_CSR_LSEON;
 8005196:	2380      	movs	r3, #128	; 0x80
 8005198:	6811      	ldr	r1, [r2, #0]
 800519a:	005b      	lsls	r3, r3, #1
 800519c:	e7f7      	b.n	800518e <rcc_osc_on+0x1a>
		RCC_CR |= RCC_CR_HSEON;
 800519e:	2380      	movs	r3, #128	; 0x80
 80051a0:	4a06      	ldr	r2, [pc, #24]	; (80051bc <rcc_osc_on+0x48>)
 80051a2:	025b      	lsls	r3, r3, #9
 80051a4:	6811      	ldr	r1, [r2, #0]
 80051a6:	e7f2      	b.n	800518e <rcc_osc_on+0x1a>
		RCC_CRRCR |= RCC_CRRCR_HSI48ON;
 80051a8:	4a05      	ldr	r2, [pc, #20]	; (80051c0 <rcc_osc_on+0x4c>)
		RCC_CSR |= RCC_CSR_LSION;
 80051aa:	2301      	movs	r3, #1
 80051ac:	6811      	ldr	r1, [r2, #0]
 80051ae:	e7ee      	b.n	800518e <rcc_osc_on+0x1a>
		RCC_CR |= RCC_CR_HSI16ON;
 80051b0:	4a02      	ldr	r2, [pc, #8]	; (80051bc <rcc_osc_on+0x48>)
 80051b2:	e7fa      	b.n	80051aa <rcc_osc_on+0x36>
		RCC_CSR |= RCC_CSR_LSEON;
 80051b4:	4a03      	ldr	r2, [pc, #12]	; (80051c4 <rcc_osc_on+0x50>)
 80051b6:	e7ee      	b.n	8005196 <rcc_osc_on+0x22>
		RCC_CSR |= RCC_CSR_LSION;
 80051b8:	4a02      	ldr	r2, [pc, #8]	; (80051c4 <rcc_osc_on+0x50>)
 80051ba:	e7f6      	b.n	80051aa <rcc_osc_on+0x36>
 80051bc:	40021000 	.word	0x40021000
 80051c0:	40021008 	.word	0x40021008
 80051c4:	40021050 	.word	0x40021050

080051c8 <rcc_is_osc_ready>:
	cm3_assert_not_reached();
}


bool rcc_is_osc_ready(enum rcc_osc osc)
{
 80051c8:	2300      	movs	r3, #0
 80051ca:	b500      	push	{lr}
 80051cc:	2806      	cmp	r0, #6
 80051ce:	d80a      	bhi.n	80051e6 <rcc_is_osc_ready+0x1e>
 80051d0:	3301      	adds	r3, #1
 80051d2:	f000 f961 	bl	8005498 <__gnu_thumb1_case_uqi>
 80051d6:	0a04      	.short	0x0a04
 80051d8:	1a160e12 	.word	0x1a160e12
 80051dc:	1c          	.byte	0x1c
 80051dd:	00          	.byte	0x00
	switch (osc) {
	case RCC_PLL:
		return RCC_CR & RCC_CR_PLLRDY;
 80051de:	4a0d      	ldr	r2, [pc, #52]	; (8005214 <rcc_is_osc_ready+0x4c>)
 80051e0:	6810      	ldr	r0, [r2, #0]
 80051e2:	0e40      	lsrs	r0, r0, #25
	case RCC_MSI:
		return RCC_CR & RCC_CR_MSIRDY;
	case RCC_LSE:
		return RCC_CSR & RCC_CSR_LSERDY;
	case RCC_LSI:
		return RCC_CSR & RCC_CSR_LSIRDY;
 80051e4:	4003      	ands	r3, r0
	}
	return false;
}
 80051e6:	0018      	movs	r0, r3
 80051e8:	bd00      	pop	{pc}
		return RCC_CR & RCC_CR_HSERDY;
 80051ea:	4a0a      	ldr	r2, [pc, #40]	; (8005214 <rcc_is_osc_ready+0x4c>)
 80051ec:	6810      	ldr	r0, [r2, #0]
 80051ee:	0c40      	lsrs	r0, r0, #17
 80051f0:	e7f8      	b.n	80051e4 <rcc_is_osc_ready+0x1c>
		return RCC_CR & RCC_CR_HSI16RDY;
 80051f2:	4a08      	ldr	r2, [pc, #32]	; (8005214 <rcc_is_osc_ready+0x4c>)
 80051f4:	6810      	ldr	r0, [r2, #0]
 80051f6:	0880      	lsrs	r0, r0, #2
 80051f8:	e7f4      	b.n	80051e4 <rcc_is_osc_ready+0x1c>
		return RCC_CRRCR & RCC_CRRCR_HSI48RDY;
 80051fa:	4a07      	ldr	r2, [pc, #28]	; (8005218 <rcc_is_osc_ready+0x50>)
		return RCC_CSR & RCC_CSR_LSIRDY;
 80051fc:	6810      	ldr	r0, [r2, #0]
 80051fe:	0840      	lsrs	r0, r0, #1
 8005200:	e7f0      	b.n	80051e4 <rcc_is_osc_ready+0x1c>
		return RCC_CR & RCC_CR_MSIRDY;
 8005202:	4a04      	ldr	r2, [pc, #16]	; (8005214 <rcc_is_osc_ready+0x4c>)
		return RCC_CSR & RCC_CSR_LSERDY;
 8005204:	6810      	ldr	r0, [r2, #0]
 8005206:	0a40      	lsrs	r0, r0, #9
 8005208:	e7ec      	b.n	80051e4 <rcc_is_osc_ready+0x1c>
 800520a:	4a04      	ldr	r2, [pc, #16]	; (800521c <rcc_is_osc_ready+0x54>)
 800520c:	e7fa      	b.n	8005204 <rcc_is_osc_ready+0x3c>
		return RCC_CSR & RCC_CSR_LSIRDY;
 800520e:	4a03      	ldr	r2, [pc, #12]	; (800521c <rcc_is_osc_ready+0x54>)
 8005210:	e7f4      	b.n	80051fc <rcc_is_osc_ready+0x34>
 8005212:	46c0      	nop			; (mov r8, r8)
 8005214:	40021000 	.word	0x40021000
 8005218:	40021008 	.word	0x40021008
 800521c:	40021050 	.word	0x40021050

08005220 <rcc_wait_for_osc_ready>:

void rcc_wait_for_osc_ready(enum rcc_osc osc)
{
 8005220:	b510      	push	{r4, lr}
 8005222:	0004      	movs	r4, r0
	while (!rcc_is_osc_ready(osc));
 8005224:	0020      	movs	r0, r4
 8005226:	f7ff ffcf 	bl	80051c8 <rcc_is_osc_ready>
 800522a:	2800      	cmp	r0, #0
 800522c:	d0fa      	beq.n	8005224 <rcc_wait_for_osc_ready+0x4>
}
 800522e:	bd10      	pop	{r4, pc}

08005230 <rcc_set_ppre1>:
 * @param[in] ppre APB prescale factor @ref rcc_cfgr_apb1pre
 */

void rcc_set_ppre1(uint32_t ppre)
{
	uint32_t reg = RCC_CFGR
 8005230:	4a03      	ldr	r2, [pc, #12]	; (8005240 <rcc_set_ppre1+0x10>)
 8005232:	4904      	ldr	r1, [pc, #16]	; (8005244 <rcc_set_ppre1+0x14>)
 8005234:	6813      	ldr	r3, [r2, #0]
		       & ~(RCC_CFGR_PPRE1_MASK << RCC_CFGR_PPRE1_SHIFT);
	RCC_CFGR = reg | (ppre << RCC_CFGR_PPRE1_SHIFT);
 8005236:	0200      	lsls	r0, r0, #8
	uint32_t reg = RCC_CFGR
 8005238:	400b      	ands	r3, r1
	RCC_CFGR = reg | (ppre << RCC_CFGR_PPRE1_SHIFT);
 800523a:	4318      	orrs	r0, r3
 800523c:	6010      	str	r0, [r2, #0]
}
 800523e:	4770      	bx	lr
 8005240:	4002100c 	.word	0x4002100c
 8005244:	fffff8ff 	.word	0xfffff8ff

08005248 <rcc_set_ppre2>:
 * @param[in] ppre APB prescale factor @ref rcc_cfgr_apb2pre
 */

void rcc_set_ppre2(uint32_t ppre)
{
	uint32_t reg = RCC_CFGR
 8005248:	4a03      	ldr	r2, [pc, #12]	; (8005258 <rcc_set_ppre2+0x10>)
 800524a:	4904      	ldr	r1, [pc, #16]	; (800525c <rcc_set_ppre2+0x14>)
 800524c:	6813      	ldr	r3, [r2, #0]
		       & ~(RCC_CFGR_PPRE2_MASK << RCC_CFGR_PPRE2_SHIFT);
	RCC_CFGR = reg | (ppre << RCC_CFGR_PPRE2_SHIFT);
 800524e:	02c0      	lsls	r0, r0, #11
	uint32_t reg = RCC_CFGR
 8005250:	400b      	ands	r3, r1
	RCC_CFGR = reg | (ppre << RCC_CFGR_PPRE2_SHIFT);
 8005252:	4318      	orrs	r0, r3
 8005254:	6010      	str	r0, [r2, #0]
}
 8005256:	4770      	bx	lr
 8005258:	4002100c 	.word	0x4002100c
 800525c:	ffffc7ff 	.word	0xffffc7ff

08005260 <rcc_set_hpre>:
 * @param[in] hpre Unsigned int32. AHB prescale factor @ref rcc_cfgr_ahbpre
 */

void rcc_set_hpre(uint32_t hpre)
{
	uint32_t reg = RCC_CFGR & ~(RCC_CFGR_HPRE_MASK << RCC_CFGR_HPRE_SHIFT);
 8005260:	21f0      	movs	r1, #240	; 0xf0
 8005262:	4a03      	ldr	r2, [pc, #12]	; (8005270 <rcc_set_hpre+0x10>)
	RCC_CFGR = reg | (hpre << RCC_CFGR_HPRE_SHIFT);
 8005264:	0100      	lsls	r0, r0, #4
	uint32_t reg = RCC_CFGR & ~(RCC_CFGR_HPRE_MASK << RCC_CFGR_HPRE_SHIFT);
 8005266:	6813      	ldr	r3, [r2, #0]
 8005268:	438b      	bics	r3, r1
	RCC_CFGR = reg | (hpre << RCC_CFGR_HPRE_SHIFT);
 800526a:	4318      	orrs	r0, r3
 800526c:	6010      	str	r0, [r2, #0]
}
 800526e:	4770      	bx	lr
 8005270:	4002100c 	.word	0x4002100c

08005274 <rcc_set_msi_range>:
*
 * @param msi_range desired range @ref rcc_icscr_msirange
 */
void rcc_set_msi_range(uint32_t msi_range)
{
	uint32_t reg32 = RCC_ICSCR & ~(RCC_ICSCR_MSIRANGE_MASK << RCC_ICSCR_MSIRANGE_SHIFT);
 8005274:	4a03      	ldr	r2, [pc, #12]	; (8005284 <rcc_set_msi_range+0x10>)
 8005276:	4904      	ldr	r1, [pc, #16]	; (8005288 <rcc_set_msi_range+0x14>)
 8005278:	6813      	ldr	r3, [r2, #0]
	RCC_ICSCR = reg32 | (msi_range << RCC_ICSCR_MSIRANGE_SHIFT);
 800527a:	0340      	lsls	r0, r0, #13
	uint32_t reg32 = RCC_ICSCR & ~(RCC_ICSCR_MSIRANGE_MASK << RCC_ICSCR_MSIRANGE_SHIFT);
 800527c:	400b      	ands	r3, r1
	RCC_ICSCR = reg32 | (msi_range << RCC_ICSCR_MSIRANGE_SHIFT);
 800527e:	4318      	orrs	r0, r3
 8005280:	6010      	str	r0, [r2, #0]
}
 8005282:	4770      	bx	lr
 8005284:	40021004 	.word	0x40021004
 8005288:	ffff1fff 	.word	0xffff1fff

0800528c <rcc_periph_clock_enable>:
 * For available constants, see #rcc_periph_clken (RCC_UART1 for example)
 */

void rcc_periph_clock_enable(enum rcc_periph_clken clken)
{
	_RCC_REG(clken) |= _RCC_BIT(clken);
 800528c:	4b05      	ldr	r3, [pc, #20]	; (80052a4 <rcc_periph_clock_enable+0x18>)
 800528e:	0942      	lsrs	r2, r0, #5
 8005290:	18d2      	adds	r2, r2, r3
 8005292:	231f      	movs	r3, #31
 8005294:	4018      	ands	r0, r3
 8005296:	3b1e      	subs	r3, #30
 8005298:	4083      	lsls	r3, r0
 800529a:	6811      	ldr	r1, [r2, #0]
 800529c:	430b      	orrs	r3, r1
 800529e:	6013      	str	r3, [r2, #0]
}
 80052a0:	4770      	bx	lr
 80052a2:	46c0      	nop			; (mov r8, r8)
 80052a4:	40021000 	.word	0x40021000

080052a8 <rcc_periph_reset_pulse>:
 * For available constants, see #rcc_periph_rst (RST_UART1 for example)
 */

void rcc_periph_reset_pulse(enum rcc_periph_rst rst)
{
	_RCC_REG(rst) |= _RCC_BIT(rst);
 80052a8:	4a06      	ldr	r2, [pc, #24]	; (80052c4 <rcc_periph_reset_pulse+0x1c>)
 80052aa:	0943      	lsrs	r3, r0, #5
 80052ac:	189b      	adds	r3, r3, r2
 80052ae:	221f      	movs	r2, #31
 80052b0:	4010      	ands	r0, r2
 80052b2:	3a1e      	subs	r2, #30
 80052b4:	4082      	lsls	r2, r0
 80052b6:	6819      	ldr	r1, [r3, #0]
 80052b8:	4311      	orrs	r1, r2
 80052ba:	6019      	str	r1, [r3, #0]
	_RCC_REG(rst) &= ~_RCC_BIT(rst);
 80052bc:	6819      	ldr	r1, [r3, #0]
 80052be:	4391      	bics	r1, r2
 80052c0:	6019      	str	r1, [r3, #0]
}
 80052c2:	4770      	bx	lr
 80052c4:	40021000 	.word	0x40021000

080052c8 <rtc_unlock>:
/** @brief Unlock write access to the RTC registers

*/
void rtc_unlock(void)
{
	RTC_WPR = 0xca;
 80052c8:	22ca      	movs	r2, #202	; 0xca
 80052ca:	4b02      	ldr	r3, [pc, #8]	; (80052d4 <rtc_unlock+0xc>)
 80052cc:	601a      	str	r2, [r3, #0]
	RTC_WPR = 0x53;
 80052ce:	3a77      	subs	r2, #119	; 0x77
 80052d0:	601a      	str	r2, [r3, #0]
}
 80052d2:	4770      	bx	lr
 80052d4:	40002824 	.word	0x40002824

080052d8 <rtc_lock>:
/** @brief Lock write access to the RTC registers

*/
void rtc_lock(void)
{
	RTC_WPR = 0xff;
 80052d8:	22ff      	movs	r2, #255	; 0xff
 80052da:	4b01      	ldr	r3, [pc, #4]	; (80052e0 <rtc_lock+0x8>)
 80052dc:	601a      	str	r2, [r3, #0]
}
 80052de:	4770      	bx	lr
 80052e0:	40002824 	.word	0x40002824

080052e4 <rtc_clear_wakeup_flag>:

@details This function should be called first in the rtc_wkup_isr()
*/
void rtc_clear_wakeup_flag(void)
{
	RTC_ISR &= ~RTC_ISR_WUTF;
 80052e4:	4a02      	ldr	r2, [pc, #8]	; (80052f0 <rtc_clear_wakeup_flag+0xc>)
 80052e6:	4903      	ldr	r1, [pc, #12]	; (80052f4 <rtc_clear_wakeup_flag+0x10>)
 80052e8:	6813      	ldr	r3, [r2, #0]
 80052ea:	400b      	ands	r3, r1
 80052ec:	6013      	str	r3, [r2, #0]
}
 80052ee:	4770      	bx	lr
 80052f0:	4000280c 	.word	0x4000280c
 80052f4:	fffffbff 	.word	0xfffffbff

080052f8 <spi_xfer>:
uint16_t spi_xfer(uint32_t spi, uint16_t data)
{
	spi_write(spi, data);

	/* Wait for transfer finished. */
	while (!(SPI_SR(spi) & SPI_SR_RXNE));
 80052f8:	2301      	movs	r3, #1
	SPI_DR(spi) = data;
 80052fa:	60c1      	str	r1, [r0, #12]
	while (!(SPI_SR(spi) & SPI_SR_RXNE));
 80052fc:	6882      	ldr	r2, [r0, #8]
 80052fe:	421a      	tst	r2, r3
 8005300:	d0fc      	beq.n	80052fc <spi_xfer+0x4>

	/* Read the data (8 or 16 bits, depending on DFF bit) from DR. */
	return SPI_DR(spi);
 8005302:	68c0      	ldr	r0, [r0, #12]
 8005304:	b280      	uxth	r0, r0
}
 8005306:	4770      	bx	lr

08005308 <timer_get_counter>:
@returns Unsigned int32. Counter value.
*/

uint32_t timer_get_counter(uint32_t timer_peripheral)
{
	return TIM_CNT(timer_peripheral);
 8005308:	6a40      	ldr	r0, [r0, #36]	; 0x24
}
 800530a:	4770      	bx	lr

0800530c <usart_set_baudrate>:
void usart_set_baudrate(uint32_t usart, uint32_t baud)
{
	uint32_t clock = rcc_apb1_frequency;

#if defined USART1
	if ((usart == USART1)
 800530c:	4b10      	ldr	r3, [pc, #64]	; (8005350 <usart_set_baudrate+0x44>)
{
 800530e:	b570      	push	{r4, r5, r6, lr}
 8005310:	0005      	movs	r5, r0
 8005312:	000c      	movs	r4, r1
 8005314:	084e      	lsrs	r6, r1, #1
	if ((usart == USART1)
 8005316:	4298      	cmp	r0, r3
 8005318:	d107      	bne.n	800532a <usart_set_baudrate+0x1e>
#if defined USART6
		|| (usart == USART6)
#endif
		) {
		clock = rcc_apb2_frequency;
 800531a:	4b0e      	ldr	r3, [pc, #56]	; (8005354 <usart_set_baudrate+0x48>)
 800531c:	6818      	ldr	r0, [r3, #0]
			+ ((clock % baud) * 256 + baud / 2) / baud;
		return;
	}
#endif

	USART_BRR(usart) = (clock + baud / 2) / baud;
 800531e:	0021      	movs	r1, r4
 8005320:	1830      	adds	r0, r6, r0
 8005322:	f000 f8cd 	bl	80054c0 <__udivsi3>
 8005326:	60e8      	str	r0, [r5, #12]
 8005328:	e010      	b.n	800534c <usart_set_baudrate+0x40>
	uint32_t clock = rcc_apb1_frequency;
 800532a:	4b0b      	ldr	r3, [pc, #44]	; (8005358 <usart_set_baudrate+0x4c>)
 800532c:	6818      	ldr	r0, [r3, #0]
	if (usart == LPUART1) {
 800532e:	4b0b      	ldr	r3, [pc, #44]	; (800535c <usart_set_baudrate+0x50>)
 8005330:	429d      	cmp	r5, r3
 8005332:	d1f4      	bne.n	800531e <usart_set_baudrate+0x12>
		USART_BRR(usart) = (clock / baud) * 256
 8005334:	f000 f94a 	bl	80055cc <__aeabi_uidivmod>
 8005338:	0005      	movs	r5, r0
			+ ((clock % baud) * 256 + baud / 2) / baud;
 800533a:	0208      	lsls	r0, r1, #8
 800533c:	1980      	adds	r0, r0, r6
 800533e:	0021      	movs	r1, r4
 8005340:	f000 f8be 	bl	80054c0 <__udivsi3>
		USART_BRR(usart) = (clock / baud) * 256
 8005344:	022d      	lsls	r5, r5, #8
 8005346:	4b06      	ldr	r3, [pc, #24]	; (8005360 <usart_set_baudrate+0x54>)
			+ ((clock % baud) * 256 + baud / 2) / baud;
 8005348:	1940      	adds	r0, r0, r5
		USART_BRR(usart) = (clock / baud) * 256
 800534a:	6018      	str	r0, [r3, #0]
}
 800534c:	bd70      	pop	{r4, r5, r6, pc}
 800534e:	46c0      	nop			; (mov r8, r8)
 8005350:	40013800 	.word	0x40013800
 8005354:	20000008 	.word	0x20000008
 8005358:	20000004 	.word	0x20000004
 800535c:	40004800 	.word	0x40004800
 8005360:	4000480c 	.word	0x4000480c

08005364 <usart_set_databits>:
@param[in] bits unsigned 32 bit. Word length in bits 8 or 9.
*/

void usart_set_databits(uint32_t usart, uint32_t bits)
{
	if (bits == 8) {
 8005364:	2908      	cmp	r1, #8
 8005366:	d104      	bne.n	8005372 <usart_set_databits+0xe>
		USART_CR1(usart) &= ~USART_CR1_M; /* 8 data bits */
 8005368:	6803      	ldr	r3, [r0, #0]
 800536a:	4a04      	ldr	r2, [pc, #16]	; (800537c <usart_set_databits+0x18>)
 800536c:	4013      	ands	r3, r2
	} else {
		USART_CR1(usart) |= USART_CR1_M;  /* 9 data bits */
 800536e:	6003      	str	r3, [r0, #0]
	}
}
 8005370:	4770      	bx	lr
		USART_CR1(usart) |= USART_CR1_M;  /* 9 data bits */
 8005372:	2380      	movs	r3, #128	; 0x80
 8005374:	6802      	ldr	r2, [r0, #0]
 8005376:	015b      	lsls	r3, r3, #5
 8005378:	4313      	orrs	r3, r2
 800537a:	e7f8      	b.n	800536e <usart_set_databits+0xa>
 800537c:	ffffefff 	.word	0xffffefff

08005380 <usart_set_stopbits>:

void usart_set_stopbits(uint32_t usart, uint32_t stopbits)
{
	uint32_t reg32;

	reg32 = USART_CR2(usart);
 8005380:	6843      	ldr	r3, [r0, #4]
	reg32 = (reg32 & ~USART_CR2_STOPBITS_MASK) | stopbits;
 8005382:	4a02      	ldr	r2, [pc, #8]	; (800538c <usart_set_stopbits+0xc>)
 8005384:	4013      	ands	r3, r2
 8005386:	430b      	orrs	r3, r1
	USART_CR2(usart) = reg32;
 8005388:	6043      	str	r3, [r0, #4]
}
 800538a:	4770      	bx	lr
 800538c:	ffffcfff 	.word	0xffffcfff

08005390 <usart_set_parity>:

void usart_set_parity(uint32_t usart, uint32_t parity)
{
	uint32_t reg32;

	reg32 = USART_CR1(usart);
 8005390:	6803      	ldr	r3, [r0, #0]
	reg32 = (reg32 & ~USART_PARITY_MASK) | parity;
 8005392:	4a02      	ldr	r2, [pc, #8]	; (800539c <usart_set_parity+0xc>)
 8005394:	4013      	ands	r3, r2
 8005396:	430b      	orrs	r3, r1
	USART_CR1(usart) = reg32;
 8005398:	6003      	str	r3, [r0, #0]
}
 800539a:	4770      	bx	lr
 800539c:	fffff9ff 	.word	0xfffff9ff

080053a0 <usart_set_mode>:
void usart_set_mode(uint32_t usart, uint32_t mode)
{
	uint32_t reg32;

	reg32 = USART_CR1(usart);
	reg32 = (reg32 & ~USART_MODE_MASK) | mode;
 80053a0:	220c      	movs	r2, #12
	reg32 = USART_CR1(usart);
 80053a2:	6803      	ldr	r3, [r0, #0]
	reg32 = (reg32 & ~USART_MODE_MASK) | mode;
 80053a4:	4393      	bics	r3, r2
 80053a6:	430b      	orrs	r3, r1
	USART_CR1(usart) = reg32;
 80053a8:	6003      	str	r3, [r0, #0]
}
 80053aa:	4770      	bx	lr

080053ac <usart_set_flow_control>:

void usart_set_flow_control(uint32_t usart, uint32_t flowcontrol)
{
	uint32_t reg32;

	reg32 = USART_CR3(usart);
 80053ac:	6883      	ldr	r3, [r0, #8]
	reg32 = (reg32 & ~USART_FLOWCONTROL_MASK) | flowcontrol;
 80053ae:	4a02      	ldr	r2, [pc, #8]	; (80053b8 <usart_set_flow_control+0xc>)
 80053b0:	4013      	ands	r3, r2
 80053b2:	430b      	orrs	r3, r1
	USART_CR3(usart) = reg32;
 80053b4:	6083      	str	r3, [r0, #8]
}
 80053b6:	4770      	bx	lr
 80053b8:	fffffcff 	.word	0xfffffcff

080053bc <usart_enable>:
usart_reg_base
*/

void usart_enable(uint32_t usart)
{
	USART_CR1(usart) |= USART_CR1_UE;
 80053bc:	2301      	movs	r3, #1
 80053be:	6802      	ldr	r2, [r0, #0]
 80053c0:	4313      	orrs	r3, r2
 80053c2:	6003      	str	r3, [r0, #0]
}
 80053c4:	4770      	bx	lr

080053c6 <usart_disable>:
usart_reg_base
*/

void usart_disable(uint32_t usart)
{
	USART_CR1(usart) &= ~USART_CR1_UE;
 80053c6:	2201      	movs	r2, #1
 80053c8:	6803      	ldr	r3, [r0, #0]
 80053ca:	4393      	bics	r3, r2
 80053cc:	6003      	str	r3, [r0, #0]
}
 80053ce:	4770      	bx	lr

080053d0 <usart_send_blocking>:
usart_reg_base
@param[in] data unsigned 16 bit.
*/

void usart_send_blocking(uint32_t usart, uint16_t data)
{
 80053d0:	b570      	push	{r4, r5, r6, lr}
 80053d2:	000d      	movs	r5, r1
 80053d4:	0004      	movs	r4, r0
	usart_wait_send_ready(usart);
 80053d6:	f000 f80d 	bl	80053f4 <usart_wait_send_ready>
	usart_send(usart, data);
 80053da:	0029      	movs	r1, r5
 80053dc:	0020      	movs	r0, r4
 80053de:	f000 f801 	bl	80053e4 <usart_send>
}
 80053e2:	bd70      	pop	{r4, r5, r6, pc}

080053e4 <usart_send>:
 */

void usart_send(uint32_t usart, uint16_t data)
{
	/* Send data. */
	USART_TDR(usart) = (data & USART_TDR_MASK);
 80053e4:	05c9      	lsls	r1, r1, #23
 80053e6:	0dc9      	lsrs	r1, r1, #23
 80053e8:	6281      	str	r1, [r0, #40]	; 0x28
}
 80053ea:	4770      	bx	lr

080053ec <usart_recv>:
 */

uint16_t usart_recv(uint32_t usart)
{
	/* Receive data. */
	return USART_RDR(usart) & USART_RDR_MASK;
 80053ec:	6a40      	ldr	r0, [r0, #36]	; 0x24
 80053ee:	05c0      	lsls	r0, r0, #23
 80053f0:	0dc0      	lsrs	r0, r0, #23
}
 80053f2:	4770      	bx	lr

080053f4 <usart_wait_send_ready>:
 */

void usart_wait_send_ready(uint32_t usart)
{
	/* Wait until the data has been transferred into the shift register. */
	while ((USART_ISR(usart) & USART_ISR_TXE) == 0);
 80053f4:	2380      	movs	r3, #128	; 0x80
 80053f6:	69c2      	ldr	r2, [r0, #28]
 80053f8:	421a      	tst	r2, r3
 80053fa:	d0fc      	beq.n	80053f6 <usart_wait_send_ready+0x2>
}
 80053fc:	4770      	bx	lr

080053fe <usart_get_flag>:
 * @returns boolean: flag set.
 */

bool usart_get_flag(uint32_t usart, uint32_t flag)
{
	return ((USART_ISR(usart) & flag) != 0);
 80053fe:	69c0      	ldr	r0, [r0, #28]
 8005400:	4008      	ands	r0, r1
 8005402:	1e41      	subs	r1, r0, #1
 8005404:	4188      	sbcs	r0, r1
 8005406:	b2c0      	uxtb	r0, r0
}
 8005408:	4770      	bx	lr

0800540a <blocking_handler>:

}

void blocking_handler(void)
{
	while (1);
 800540a:	e7fe      	b.n	800540a <blocking_handler>

0800540c <null_handler>:
}

void null_handler(void)
{
	/* Do nothing. */
}
 800540c:	4770      	bx	lr
	...

08005410 <reset_handler>:
{
 8005410:	b510      	push	{r4, lr}
	for (src = &_data_loadaddr, dest = &_data;
 8005412:	4b16      	ldr	r3, [pc, #88]	; (800546c <reset_handler+0x5c>)
 8005414:	4a16      	ldr	r2, [pc, #88]	; (8005470 <reset_handler+0x60>)
 8005416:	4917      	ldr	r1, [pc, #92]	; (8005474 <reset_handler+0x64>)
 8005418:	428b      	cmp	r3, r1
 800541a:	d318      	bcc.n	800544e <reset_handler+0x3e>
		*dest++ = 0;
 800541c:	2100      	movs	r1, #0
	while (dest < &_ebss) {
 800541e:	4a16      	ldr	r2, [pc, #88]	; (8005478 <reset_handler+0x68>)
 8005420:	4293      	cmp	r3, r2
 8005422:	d317      	bcc.n	8005454 <reset_handler+0x44>
	SCB_CCR |= SCB_CCR_STKALIGN;
 8005424:	2380      	movs	r3, #128	; 0x80
 8005426:	4a15      	ldr	r2, [pc, #84]	; (800547c <reset_handler+0x6c>)
 8005428:	009b      	lsls	r3, r3, #2
 800542a:	6811      	ldr	r1, [r2, #0]
	for (fp = &__preinit_array_start; fp < &__preinit_array_end; fp++) {
 800542c:	4c14      	ldr	r4, [pc, #80]	; (8005480 <reset_handler+0x70>)
	SCB_CCR |= SCB_CCR_STKALIGN;
 800542e:	430b      	orrs	r3, r1
 8005430:	6013      	str	r3, [r2, #0]
	for (fp = &__preinit_array_start; fp < &__preinit_array_end; fp++) {
 8005432:	4b14      	ldr	r3, [pc, #80]	; (8005484 <reset_handler+0x74>)
 8005434:	429c      	cmp	r4, r3
 8005436:	d30f      	bcc.n	8005458 <reset_handler+0x48>
	for (fp = &__init_array_start; fp < &__init_array_end; fp++) {
 8005438:	4c13      	ldr	r4, [pc, #76]	; (8005488 <reset_handler+0x78>)
 800543a:	4b14      	ldr	r3, [pc, #80]	; (800548c <reset_handler+0x7c>)
 800543c:	429c      	cmp	r4, r3
 800543e:	d30e      	bcc.n	800545e <reset_handler+0x4e>
	(void)main();
 8005440:	f7fe fe3e 	bl	80040c0 <main>
	for (fp = &__fini_array_start; fp < &__fini_array_end; fp++) {
 8005444:	4c12      	ldr	r4, [pc, #72]	; (8005490 <reset_handler+0x80>)
 8005446:	4b13      	ldr	r3, [pc, #76]	; (8005494 <reset_handler+0x84>)
 8005448:	429c      	cmp	r4, r3
 800544a:	d30b      	bcc.n	8005464 <reset_handler+0x54>
}
 800544c:	bd10      	pop	{r4, pc}
		*dest = *src;
 800544e:	ca01      	ldmia	r2!, {r0}
 8005450:	c301      	stmia	r3!, {r0}
		src++, dest++) {
 8005452:	e7e1      	b.n	8005418 <reset_handler+0x8>
		*dest++ = 0;
 8005454:	c302      	stmia	r3!, {r1}
 8005456:	e7e3      	b.n	8005420 <reset_handler+0x10>
		(*fp)();
 8005458:	cc08      	ldmia	r4!, {r3}
 800545a:	4798      	blx	r3
	for (fp = &__preinit_array_start; fp < &__preinit_array_end; fp++) {
 800545c:	e7e9      	b.n	8005432 <reset_handler+0x22>
		(*fp)();
 800545e:	cc08      	ldmia	r4!, {r3}
 8005460:	4798      	blx	r3
	for (fp = &__init_array_start; fp < &__init_array_end; fp++) {
 8005462:	e7ea      	b.n	800543a <reset_handler+0x2a>
		(*fp)();
 8005464:	cc08      	ldmia	r4!, {r3}
 8005466:	4798      	blx	r3
	for (fp = &__fini_array_start; fp < &__fini_array_end; fp++) {
 8005468:	e7ed      	b.n	8005446 <reset_handler+0x36>
 800546a:	46c0      	nop			; (mov r8, r8)
 800546c:	20000000 	.word	0x20000000
 8005470:	08006910 	.word	0x08006910
 8005474:	2000000c 	.word	0x2000000c
 8005478:	200002ac 	.word	0x200002ac
 800547c:	e000ed14 	.word	0xe000ed14
 8005480:	08006910 	.word	0x08006910
 8005484:	08006910 	.word	0x08006910
 8005488:	08006910 	.word	0x08006910
 800548c:	08006910 	.word	0x08006910
 8005490:	08006910 	.word	0x08006910
 8005494:	08006910 	.word	0x08006910

08005498 <__gnu_thumb1_case_uqi>:
 8005498:	b402      	push	{r1}
 800549a:	4671      	mov	r1, lr
 800549c:	0849      	lsrs	r1, r1, #1
 800549e:	0049      	lsls	r1, r1, #1
 80054a0:	5c09      	ldrb	r1, [r1, r0]
 80054a2:	0049      	lsls	r1, r1, #1
 80054a4:	448e      	add	lr, r1
 80054a6:	bc02      	pop	{r1}
 80054a8:	4770      	bx	lr
 80054aa:	46c0      	nop			; (mov r8, r8)

080054ac <__gnu_thumb1_case_shi>:
 80054ac:	b403      	push	{r0, r1}
 80054ae:	4671      	mov	r1, lr
 80054b0:	0849      	lsrs	r1, r1, #1
 80054b2:	0040      	lsls	r0, r0, #1
 80054b4:	0049      	lsls	r1, r1, #1
 80054b6:	5e09      	ldrsh	r1, [r1, r0]
 80054b8:	0049      	lsls	r1, r1, #1
 80054ba:	448e      	add	lr, r1
 80054bc:	bc03      	pop	{r0, r1}
 80054be:	4770      	bx	lr

080054c0 <__udivsi3>:
 80054c0:	2200      	movs	r2, #0
 80054c2:	0843      	lsrs	r3, r0, #1
 80054c4:	428b      	cmp	r3, r1
 80054c6:	d374      	bcc.n	80055b2 <__udivsi3+0xf2>
 80054c8:	0903      	lsrs	r3, r0, #4
 80054ca:	428b      	cmp	r3, r1
 80054cc:	d35f      	bcc.n	800558e <__udivsi3+0xce>
 80054ce:	0a03      	lsrs	r3, r0, #8
 80054d0:	428b      	cmp	r3, r1
 80054d2:	d344      	bcc.n	800555e <__udivsi3+0x9e>
 80054d4:	0b03      	lsrs	r3, r0, #12
 80054d6:	428b      	cmp	r3, r1
 80054d8:	d328      	bcc.n	800552c <__udivsi3+0x6c>
 80054da:	0c03      	lsrs	r3, r0, #16
 80054dc:	428b      	cmp	r3, r1
 80054de:	d30d      	bcc.n	80054fc <__udivsi3+0x3c>
 80054e0:	22ff      	movs	r2, #255	; 0xff
 80054e2:	0209      	lsls	r1, r1, #8
 80054e4:	ba12      	rev	r2, r2
 80054e6:	0c03      	lsrs	r3, r0, #16
 80054e8:	428b      	cmp	r3, r1
 80054ea:	d302      	bcc.n	80054f2 <__udivsi3+0x32>
 80054ec:	1212      	asrs	r2, r2, #8
 80054ee:	0209      	lsls	r1, r1, #8
 80054f0:	d065      	beq.n	80055be <__udivsi3+0xfe>
 80054f2:	0b03      	lsrs	r3, r0, #12
 80054f4:	428b      	cmp	r3, r1
 80054f6:	d319      	bcc.n	800552c <__udivsi3+0x6c>
 80054f8:	e000      	b.n	80054fc <__udivsi3+0x3c>
 80054fa:	0a09      	lsrs	r1, r1, #8
 80054fc:	0bc3      	lsrs	r3, r0, #15
 80054fe:	428b      	cmp	r3, r1
 8005500:	d301      	bcc.n	8005506 <__udivsi3+0x46>
 8005502:	03cb      	lsls	r3, r1, #15
 8005504:	1ac0      	subs	r0, r0, r3
 8005506:	4152      	adcs	r2, r2
 8005508:	0b83      	lsrs	r3, r0, #14
 800550a:	428b      	cmp	r3, r1
 800550c:	d301      	bcc.n	8005512 <__udivsi3+0x52>
 800550e:	038b      	lsls	r3, r1, #14
 8005510:	1ac0      	subs	r0, r0, r3
 8005512:	4152      	adcs	r2, r2
 8005514:	0b43      	lsrs	r3, r0, #13
 8005516:	428b      	cmp	r3, r1
 8005518:	d301      	bcc.n	800551e <__udivsi3+0x5e>
 800551a:	034b      	lsls	r3, r1, #13
 800551c:	1ac0      	subs	r0, r0, r3
 800551e:	4152      	adcs	r2, r2
 8005520:	0b03      	lsrs	r3, r0, #12
 8005522:	428b      	cmp	r3, r1
 8005524:	d301      	bcc.n	800552a <__udivsi3+0x6a>
 8005526:	030b      	lsls	r3, r1, #12
 8005528:	1ac0      	subs	r0, r0, r3
 800552a:	4152      	adcs	r2, r2
 800552c:	0ac3      	lsrs	r3, r0, #11
 800552e:	428b      	cmp	r3, r1
 8005530:	d301      	bcc.n	8005536 <__udivsi3+0x76>
 8005532:	02cb      	lsls	r3, r1, #11
 8005534:	1ac0      	subs	r0, r0, r3
 8005536:	4152      	adcs	r2, r2
 8005538:	0a83      	lsrs	r3, r0, #10
 800553a:	428b      	cmp	r3, r1
 800553c:	d301      	bcc.n	8005542 <__udivsi3+0x82>
 800553e:	028b      	lsls	r3, r1, #10
 8005540:	1ac0      	subs	r0, r0, r3
 8005542:	4152      	adcs	r2, r2
 8005544:	0a43      	lsrs	r3, r0, #9
 8005546:	428b      	cmp	r3, r1
 8005548:	d301      	bcc.n	800554e <__udivsi3+0x8e>
 800554a:	024b      	lsls	r3, r1, #9
 800554c:	1ac0      	subs	r0, r0, r3
 800554e:	4152      	adcs	r2, r2
 8005550:	0a03      	lsrs	r3, r0, #8
 8005552:	428b      	cmp	r3, r1
 8005554:	d301      	bcc.n	800555a <__udivsi3+0x9a>
 8005556:	020b      	lsls	r3, r1, #8
 8005558:	1ac0      	subs	r0, r0, r3
 800555a:	4152      	adcs	r2, r2
 800555c:	d2cd      	bcs.n	80054fa <__udivsi3+0x3a>
 800555e:	09c3      	lsrs	r3, r0, #7
 8005560:	428b      	cmp	r3, r1
 8005562:	d301      	bcc.n	8005568 <__udivsi3+0xa8>
 8005564:	01cb      	lsls	r3, r1, #7
 8005566:	1ac0      	subs	r0, r0, r3
 8005568:	4152      	adcs	r2, r2
 800556a:	0983      	lsrs	r3, r0, #6
 800556c:	428b      	cmp	r3, r1
 800556e:	d301      	bcc.n	8005574 <__udivsi3+0xb4>
 8005570:	018b      	lsls	r3, r1, #6
 8005572:	1ac0      	subs	r0, r0, r3
 8005574:	4152      	adcs	r2, r2
 8005576:	0943      	lsrs	r3, r0, #5
 8005578:	428b      	cmp	r3, r1
 800557a:	d301      	bcc.n	8005580 <__udivsi3+0xc0>
 800557c:	014b      	lsls	r3, r1, #5
 800557e:	1ac0      	subs	r0, r0, r3
 8005580:	4152      	adcs	r2, r2
 8005582:	0903      	lsrs	r3, r0, #4
 8005584:	428b      	cmp	r3, r1
 8005586:	d301      	bcc.n	800558c <__udivsi3+0xcc>
 8005588:	010b      	lsls	r3, r1, #4
 800558a:	1ac0      	subs	r0, r0, r3
 800558c:	4152      	adcs	r2, r2
 800558e:	08c3      	lsrs	r3, r0, #3
 8005590:	428b      	cmp	r3, r1
 8005592:	d301      	bcc.n	8005598 <__udivsi3+0xd8>
 8005594:	00cb      	lsls	r3, r1, #3
 8005596:	1ac0      	subs	r0, r0, r3
 8005598:	4152      	adcs	r2, r2
 800559a:	0883      	lsrs	r3, r0, #2
 800559c:	428b      	cmp	r3, r1
 800559e:	d301      	bcc.n	80055a4 <__udivsi3+0xe4>
 80055a0:	008b      	lsls	r3, r1, #2
 80055a2:	1ac0      	subs	r0, r0, r3
 80055a4:	4152      	adcs	r2, r2
 80055a6:	0843      	lsrs	r3, r0, #1
 80055a8:	428b      	cmp	r3, r1
 80055aa:	d301      	bcc.n	80055b0 <__udivsi3+0xf0>
 80055ac:	004b      	lsls	r3, r1, #1
 80055ae:	1ac0      	subs	r0, r0, r3
 80055b0:	4152      	adcs	r2, r2
 80055b2:	1a41      	subs	r1, r0, r1
 80055b4:	d200      	bcs.n	80055b8 <__udivsi3+0xf8>
 80055b6:	4601      	mov	r1, r0
 80055b8:	4152      	adcs	r2, r2
 80055ba:	4610      	mov	r0, r2
 80055bc:	4770      	bx	lr
 80055be:	e7ff      	b.n	80055c0 <__udivsi3+0x100>
 80055c0:	b501      	push	{r0, lr}
 80055c2:	2000      	movs	r0, #0
 80055c4:	f000 f8f0 	bl	80057a8 <__aeabi_idiv0>
 80055c8:	bd02      	pop	{r1, pc}
 80055ca:	46c0      	nop			; (mov r8, r8)

080055cc <__aeabi_uidivmod>:
 80055cc:	2900      	cmp	r1, #0
 80055ce:	d0f7      	beq.n	80055c0 <__udivsi3+0x100>
 80055d0:	e776      	b.n	80054c0 <__udivsi3>
 80055d2:	4770      	bx	lr

080055d4 <__divsi3>:
 80055d4:	4603      	mov	r3, r0
 80055d6:	430b      	orrs	r3, r1
 80055d8:	d47f      	bmi.n	80056da <__divsi3+0x106>
 80055da:	2200      	movs	r2, #0
 80055dc:	0843      	lsrs	r3, r0, #1
 80055de:	428b      	cmp	r3, r1
 80055e0:	d374      	bcc.n	80056cc <__divsi3+0xf8>
 80055e2:	0903      	lsrs	r3, r0, #4
 80055e4:	428b      	cmp	r3, r1
 80055e6:	d35f      	bcc.n	80056a8 <__divsi3+0xd4>
 80055e8:	0a03      	lsrs	r3, r0, #8
 80055ea:	428b      	cmp	r3, r1
 80055ec:	d344      	bcc.n	8005678 <__divsi3+0xa4>
 80055ee:	0b03      	lsrs	r3, r0, #12
 80055f0:	428b      	cmp	r3, r1
 80055f2:	d328      	bcc.n	8005646 <__divsi3+0x72>
 80055f4:	0c03      	lsrs	r3, r0, #16
 80055f6:	428b      	cmp	r3, r1
 80055f8:	d30d      	bcc.n	8005616 <__divsi3+0x42>
 80055fa:	22ff      	movs	r2, #255	; 0xff
 80055fc:	0209      	lsls	r1, r1, #8
 80055fe:	ba12      	rev	r2, r2
 8005600:	0c03      	lsrs	r3, r0, #16
 8005602:	428b      	cmp	r3, r1
 8005604:	d302      	bcc.n	800560c <__divsi3+0x38>
 8005606:	1212      	asrs	r2, r2, #8
 8005608:	0209      	lsls	r1, r1, #8
 800560a:	d065      	beq.n	80056d8 <__divsi3+0x104>
 800560c:	0b03      	lsrs	r3, r0, #12
 800560e:	428b      	cmp	r3, r1
 8005610:	d319      	bcc.n	8005646 <__divsi3+0x72>
 8005612:	e000      	b.n	8005616 <__divsi3+0x42>
 8005614:	0a09      	lsrs	r1, r1, #8
 8005616:	0bc3      	lsrs	r3, r0, #15
 8005618:	428b      	cmp	r3, r1
 800561a:	d301      	bcc.n	8005620 <__divsi3+0x4c>
 800561c:	03cb      	lsls	r3, r1, #15
 800561e:	1ac0      	subs	r0, r0, r3
 8005620:	4152      	adcs	r2, r2
 8005622:	0b83      	lsrs	r3, r0, #14
 8005624:	428b      	cmp	r3, r1
 8005626:	d301      	bcc.n	800562c <__divsi3+0x58>
 8005628:	038b      	lsls	r3, r1, #14
 800562a:	1ac0      	subs	r0, r0, r3
 800562c:	4152      	adcs	r2, r2
 800562e:	0b43      	lsrs	r3, r0, #13
 8005630:	428b      	cmp	r3, r1
 8005632:	d301      	bcc.n	8005638 <__divsi3+0x64>
 8005634:	034b      	lsls	r3, r1, #13
 8005636:	1ac0      	subs	r0, r0, r3
 8005638:	4152      	adcs	r2, r2
 800563a:	0b03      	lsrs	r3, r0, #12
 800563c:	428b      	cmp	r3, r1
 800563e:	d301      	bcc.n	8005644 <__divsi3+0x70>
 8005640:	030b      	lsls	r3, r1, #12
 8005642:	1ac0      	subs	r0, r0, r3
 8005644:	4152      	adcs	r2, r2
 8005646:	0ac3      	lsrs	r3, r0, #11
 8005648:	428b      	cmp	r3, r1
 800564a:	d301      	bcc.n	8005650 <__divsi3+0x7c>
 800564c:	02cb      	lsls	r3, r1, #11
 800564e:	1ac0      	subs	r0, r0, r3
 8005650:	4152      	adcs	r2, r2
 8005652:	0a83      	lsrs	r3, r0, #10
 8005654:	428b      	cmp	r3, r1
 8005656:	d301      	bcc.n	800565c <__divsi3+0x88>
 8005658:	028b      	lsls	r3, r1, #10
 800565a:	1ac0      	subs	r0, r0, r3
 800565c:	4152      	adcs	r2, r2
 800565e:	0a43      	lsrs	r3, r0, #9
 8005660:	428b      	cmp	r3, r1
 8005662:	d301      	bcc.n	8005668 <__divsi3+0x94>
 8005664:	024b      	lsls	r3, r1, #9
 8005666:	1ac0      	subs	r0, r0, r3
 8005668:	4152      	adcs	r2, r2
 800566a:	0a03      	lsrs	r3, r0, #8
 800566c:	428b      	cmp	r3, r1
 800566e:	d301      	bcc.n	8005674 <__divsi3+0xa0>
 8005670:	020b      	lsls	r3, r1, #8
 8005672:	1ac0      	subs	r0, r0, r3
 8005674:	4152      	adcs	r2, r2
 8005676:	d2cd      	bcs.n	8005614 <__divsi3+0x40>
 8005678:	09c3      	lsrs	r3, r0, #7
 800567a:	428b      	cmp	r3, r1
 800567c:	d301      	bcc.n	8005682 <__divsi3+0xae>
 800567e:	01cb      	lsls	r3, r1, #7
 8005680:	1ac0      	subs	r0, r0, r3
 8005682:	4152      	adcs	r2, r2
 8005684:	0983      	lsrs	r3, r0, #6
 8005686:	428b      	cmp	r3, r1
 8005688:	d301      	bcc.n	800568e <__divsi3+0xba>
 800568a:	018b      	lsls	r3, r1, #6
 800568c:	1ac0      	subs	r0, r0, r3
 800568e:	4152      	adcs	r2, r2
 8005690:	0943      	lsrs	r3, r0, #5
 8005692:	428b      	cmp	r3, r1
 8005694:	d301      	bcc.n	800569a <__divsi3+0xc6>
 8005696:	014b      	lsls	r3, r1, #5
 8005698:	1ac0      	subs	r0, r0, r3
 800569a:	4152      	adcs	r2, r2
 800569c:	0903      	lsrs	r3, r0, #4
 800569e:	428b      	cmp	r3, r1
 80056a0:	d301      	bcc.n	80056a6 <__divsi3+0xd2>
 80056a2:	010b      	lsls	r3, r1, #4
 80056a4:	1ac0      	subs	r0, r0, r3
 80056a6:	4152      	adcs	r2, r2
 80056a8:	08c3      	lsrs	r3, r0, #3
 80056aa:	428b      	cmp	r3, r1
 80056ac:	d301      	bcc.n	80056b2 <__divsi3+0xde>
 80056ae:	00cb      	lsls	r3, r1, #3
 80056b0:	1ac0      	subs	r0, r0, r3
 80056b2:	4152      	adcs	r2, r2
 80056b4:	0883      	lsrs	r3, r0, #2
 80056b6:	428b      	cmp	r3, r1
 80056b8:	d301      	bcc.n	80056be <__divsi3+0xea>
 80056ba:	008b      	lsls	r3, r1, #2
 80056bc:	1ac0      	subs	r0, r0, r3
 80056be:	4152      	adcs	r2, r2
 80056c0:	0843      	lsrs	r3, r0, #1
 80056c2:	428b      	cmp	r3, r1
 80056c4:	d301      	bcc.n	80056ca <__divsi3+0xf6>
 80056c6:	004b      	lsls	r3, r1, #1
 80056c8:	1ac0      	subs	r0, r0, r3
 80056ca:	4152      	adcs	r2, r2
 80056cc:	1a41      	subs	r1, r0, r1
 80056ce:	d200      	bcs.n	80056d2 <__divsi3+0xfe>
 80056d0:	4601      	mov	r1, r0
 80056d2:	4152      	adcs	r2, r2
 80056d4:	4610      	mov	r0, r2
 80056d6:	4770      	bx	lr
 80056d8:	e05d      	b.n	8005796 <__divsi3+0x1c2>
 80056da:	0fca      	lsrs	r2, r1, #31
 80056dc:	d000      	beq.n	80056e0 <__divsi3+0x10c>
 80056de:	4249      	negs	r1, r1
 80056e0:	1003      	asrs	r3, r0, #32
 80056e2:	d300      	bcc.n	80056e6 <__divsi3+0x112>
 80056e4:	4240      	negs	r0, r0
 80056e6:	4053      	eors	r3, r2
 80056e8:	2200      	movs	r2, #0
 80056ea:	469c      	mov	ip, r3
 80056ec:	0903      	lsrs	r3, r0, #4
 80056ee:	428b      	cmp	r3, r1
 80056f0:	d32d      	bcc.n	800574e <__divsi3+0x17a>
 80056f2:	0a03      	lsrs	r3, r0, #8
 80056f4:	428b      	cmp	r3, r1
 80056f6:	d312      	bcc.n	800571e <__divsi3+0x14a>
 80056f8:	22fc      	movs	r2, #252	; 0xfc
 80056fa:	0189      	lsls	r1, r1, #6
 80056fc:	ba12      	rev	r2, r2
 80056fe:	0a03      	lsrs	r3, r0, #8
 8005700:	428b      	cmp	r3, r1
 8005702:	d30c      	bcc.n	800571e <__divsi3+0x14a>
 8005704:	0189      	lsls	r1, r1, #6
 8005706:	1192      	asrs	r2, r2, #6
 8005708:	428b      	cmp	r3, r1
 800570a:	d308      	bcc.n	800571e <__divsi3+0x14a>
 800570c:	0189      	lsls	r1, r1, #6
 800570e:	1192      	asrs	r2, r2, #6
 8005710:	428b      	cmp	r3, r1
 8005712:	d304      	bcc.n	800571e <__divsi3+0x14a>
 8005714:	0189      	lsls	r1, r1, #6
 8005716:	d03a      	beq.n	800578e <__divsi3+0x1ba>
 8005718:	1192      	asrs	r2, r2, #6
 800571a:	e000      	b.n	800571e <__divsi3+0x14a>
 800571c:	0989      	lsrs	r1, r1, #6
 800571e:	09c3      	lsrs	r3, r0, #7
 8005720:	428b      	cmp	r3, r1
 8005722:	d301      	bcc.n	8005728 <__divsi3+0x154>
 8005724:	01cb      	lsls	r3, r1, #7
 8005726:	1ac0      	subs	r0, r0, r3
 8005728:	4152      	adcs	r2, r2
 800572a:	0983      	lsrs	r3, r0, #6
 800572c:	428b      	cmp	r3, r1
 800572e:	d301      	bcc.n	8005734 <__divsi3+0x160>
 8005730:	018b      	lsls	r3, r1, #6
 8005732:	1ac0      	subs	r0, r0, r3
 8005734:	4152      	adcs	r2, r2
 8005736:	0943      	lsrs	r3, r0, #5
 8005738:	428b      	cmp	r3, r1
 800573a:	d301      	bcc.n	8005740 <__divsi3+0x16c>
 800573c:	014b      	lsls	r3, r1, #5
 800573e:	1ac0      	subs	r0, r0, r3
 8005740:	4152      	adcs	r2, r2
 8005742:	0903      	lsrs	r3, r0, #4
 8005744:	428b      	cmp	r3, r1
 8005746:	d301      	bcc.n	800574c <__divsi3+0x178>
 8005748:	010b      	lsls	r3, r1, #4
 800574a:	1ac0      	subs	r0, r0, r3
 800574c:	4152      	adcs	r2, r2
 800574e:	08c3      	lsrs	r3, r0, #3
 8005750:	428b      	cmp	r3, r1
 8005752:	d301      	bcc.n	8005758 <__divsi3+0x184>
 8005754:	00cb      	lsls	r3, r1, #3
 8005756:	1ac0      	subs	r0, r0, r3
 8005758:	4152      	adcs	r2, r2
 800575a:	0883      	lsrs	r3, r0, #2
 800575c:	428b      	cmp	r3, r1
 800575e:	d301      	bcc.n	8005764 <__divsi3+0x190>
 8005760:	008b      	lsls	r3, r1, #2
 8005762:	1ac0      	subs	r0, r0, r3
 8005764:	4152      	adcs	r2, r2
 8005766:	d2d9      	bcs.n	800571c <__divsi3+0x148>
 8005768:	0843      	lsrs	r3, r0, #1
 800576a:	428b      	cmp	r3, r1
 800576c:	d301      	bcc.n	8005772 <__divsi3+0x19e>
 800576e:	004b      	lsls	r3, r1, #1
 8005770:	1ac0      	subs	r0, r0, r3
 8005772:	4152      	adcs	r2, r2
 8005774:	1a41      	subs	r1, r0, r1
 8005776:	d200      	bcs.n	800577a <__divsi3+0x1a6>
 8005778:	4601      	mov	r1, r0
 800577a:	4663      	mov	r3, ip
 800577c:	4152      	adcs	r2, r2
 800577e:	105b      	asrs	r3, r3, #1
 8005780:	4610      	mov	r0, r2
 8005782:	d301      	bcc.n	8005788 <__divsi3+0x1b4>
 8005784:	4240      	negs	r0, r0
 8005786:	2b00      	cmp	r3, #0
 8005788:	d500      	bpl.n	800578c <__divsi3+0x1b8>
 800578a:	4249      	negs	r1, r1
 800578c:	4770      	bx	lr
 800578e:	4663      	mov	r3, ip
 8005790:	105b      	asrs	r3, r3, #1
 8005792:	d300      	bcc.n	8005796 <__divsi3+0x1c2>
 8005794:	4240      	negs	r0, r0
 8005796:	b501      	push	{r0, lr}
 8005798:	2000      	movs	r0, #0
 800579a:	f000 f805 	bl	80057a8 <__aeabi_idiv0>
 800579e:	bd02      	pop	{r1, pc}

080057a0 <__aeabi_idivmod>:
 80057a0:	2900      	cmp	r1, #0
 80057a2:	d0f8      	beq.n	8005796 <__divsi3+0x1c2>
 80057a4:	e716      	b.n	80055d4 <__divsi3>
 80057a6:	4770      	bx	lr

080057a8 <__aeabi_idiv0>:
 80057a8:	4770      	bx	lr
 80057aa:	46c0      	nop			; (mov r8, r8)

080057ac <__aeabi_cdrcmple>:
 80057ac:	4684      	mov	ip, r0
 80057ae:	1c10      	adds	r0, r2, #0
 80057b0:	4662      	mov	r2, ip
 80057b2:	468c      	mov	ip, r1
 80057b4:	1c19      	adds	r1, r3, #0
 80057b6:	4663      	mov	r3, ip
 80057b8:	e000      	b.n	80057bc <__aeabi_cdcmpeq>
 80057ba:	46c0      	nop			; (mov r8, r8)

080057bc <__aeabi_cdcmpeq>:
 80057bc:	b51f      	push	{r0, r1, r2, r3, r4, lr}
 80057be:	f000 f8ff 	bl	80059c0 <__ledf2>
 80057c2:	2800      	cmp	r0, #0
 80057c4:	d401      	bmi.n	80057ca <__aeabi_cdcmpeq+0xe>
 80057c6:	2100      	movs	r1, #0
 80057c8:	42c8      	cmn	r0, r1
 80057ca:	bd1f      	pop	{r0, r1, r2, r3, r4, pc}

080057cc <__aeabi_dcmpeq>:
 80057cc:	b510      	push	{r4, lr}
 80057ce:	f000 f849 	bl	8005864 <__eqdf2>
 80057d2:	4240      	negs	r0, r0
 80057d4:	3001      	adds	r0, #1
 80057d6:	bd10      	pop	{r4, pc}

080057d8 <__aeabi_dcmplt>:
 80057d8:	b510      	push	{r4, lr}
 80057da:	f000 f8f1 	bl	80059c0 <__ledf2>
 80057de:	2800      	cmp	r0, #0
 80057e0:	db01      	blt.n	80057e6 <__aeabi_dcmplt+0xe>
 80057e2:	2000      	movs	r0, #0
 80057e4:	bd10      	pop	{r4, pc}
 80057e6:	2001      	movs	r0, #1
 80057e8:	bd10      	pop	{r4, pc}
 80057ea:	46c0      	nop			; (mov r8, r8)

080057ec <__aeabi_dcmple>:
 80057ec:	b510      	push	{r4, lr}
 80057ee:	f000 f8e7 	bl	80059c0 <__ledf2>
 80057f2:	2800      	cmp	r0, #0
 80057f4:	dd01      	ble.n	80057fa <__aeabi_dcmple+0xe>
 80057f6:	2000      	movs	r0, #0
 80057f8:	bd10      	pop	{r4, pc}
 80057fa:	2001      	movs	r0, #1
 80057fc:	bd10      	pop	{r4, pc}
 80057fe:	46c0      	nop			; (mov r8, r8)

08005800 <__aeabi_dcmpgt>:
 8005800:	b510      	push	{r4, lr}
 8005802:	f000 f86b 	bl	80058dc <__gedf2>
 8005806:	2800      	cmp	r0, #0
 8005808:	dc01      	bgt.n	800580e <__aeabi_dcmpgt+0xe>
 800580a:	2000      	movs	r0, #0
 800580c:	bd10      	pop	{r4, pc}
 800580e:	2001      	movs	r0, #1
 8005810:	bd10      	pop	{r4, pc}
 8005812:	46c0      	nop			; (mov r8, r8)

08005814 <__aeabi_dcmpge>:
 8005814:	b510      	push	{r4, lr}
 8005816:	f000 f861 	bl	80058dc <__gedf2>
 800581a:	2800      	cmp	r0, #0
 800581c:	da01      	bge.n	8005822 <__aeabi_dcmpge+0xe>
 800581e:	2000      	movs	r0, #0
 8005820:	bd10      	pop	{r4, pc}
 8005822:	2001      	movs	r0, #1
 8005824:	bd10      	pop	{r4, pc}
 8005826:	46c0      	nop			; (mov r8, r8)

08005828 <__aeabi_d2uiz>:
 8005828:	b570      	push	{r4, r5, r6, lr}
 800582a:	2200      	movs	r2, #0
 800582c:	4b0c      	ldr	r3, [pc, #48]	; (8005860 <__aeabi_d2uiz+0x38>)
 800582e:	0004      	movs	r4, r0
 8005830:	000d      	movs	r5, r1
 8005832:	f7ff ffef 	bl	8005814 <__aeabi_dcmpge>
 8005836:	2800      	cmp	r0, #0
 8005838:	d104      	bne.n	8005844 <__aeabi_d2uiz+0x1c>
 800583a:	0020      	movs	r0, r4
 800583c:	0029      	movs	r1, r5
 800583e:	f000 ff2d 	bl	800669c <__aeabi_d2iz>
 8005842:	bd70      	pop	{r4, r5, r6, pc}
 8005844:	4b06      	ldr	r3, [pc, #24]	; (8005860 <__aeabi_d2uiz+0x38>)
 8005846:	2200      	movs	r2, #0
 8005848:	0020      	movs	r0, r4
 800584a:	0029      	movs	r1, r5
 800584c:	f000 fb94 	bl	8005f78 <__aeabi_dsub>
 8005850:	f000 ff24 	bl	800669c <__aeabi_d2iz>
 8005854:	2380      	movs	r3, #128	; 0x80
 8005856:	061b      	lsls	r3, r3, #24
 8005858:	469c      	mov	ip, r3
 800585a:	4460      	add	r0, ip
 800585c:	e7f1      	b.n	8005842 <__aeabi_d2uiz+0x1a>
 800585e:	46c0      	nop			; (mov r8, r8)
 8005860:	41e00000 	.word	0x41e00000

08005864 <__eqdf2>:
 8005864:	b5f0      	push	{r4, r5, r6, r7, lr}
 8005866:	464f      	mov	r7, r9
 8005868:	4646      	mov	r6, r8
 800586a:	46d6      	mov	lr, sl
 800586c:	4694      	mov	ip, r2
 800586e:	4691      	mov	r9, r2
 8005870:	031a      	lsls	r2, r3, #12
 8005872:	0b12      	lsrs	r2, r2, #12
 8005874:	4d18      	ldr	r5, [pc, #96]	; (80058d8 <__eqdf2+0x74>)
 8005876:	b5c0      	push	{r6, r7, lr}
 8005878:	004c      	lsls	r4, r1, #1
 800587a:	030f      	lsls	r7, r1, #12
 800587c:	4692      	mov	sl, r2
 800587e:	005a      	lsls	r2, r3, #1
 8005880:	0006      	movs	r6, r0
 8005882:	4680      	mov	r8, r0
 8005884:	0b3f      	lsrs	r7, r7, #12
 8005886:	2001      	movs	r0, #1
 8005888:	0d64      	lsrs	r4, r4, #21
 800588a:	0fc9      	lsrs	r1, r1, #31
 800588c:	0d52      	lsrs	r2, r2, #21
 800588e:	0fdb      	lsrs	r3, r3, #31
 8005890:	42ac      	cmp	r4, r5
 8005892:	d00a      	beq.n	80058aa <__eqdf2+0x46>
 8005894:	42aa      	cmp	r2, r5
 8005896:	d003      	beq.n	80058a0 <__eqdf2+0x3c>
 8005898:	4294      	cmp	r4, r2
 800589a:	d101      	bne.n	80058a0 <__eqdf2+0x3c>
 800589c:	4557      	cmp	r7, sl
 800589e:	d00d      	beq.n	80058bc <__eqdf2+0x58>
 80058a0:	bce0      	pop	{r5, r6, r7}
 80058a2:	46ba      	mov	sl, r7
 80058a4:	46b1      	mov	r9, r6
 80058a6:	46a8      	mov	r8, r5
 80058a8:	bdf0      	pop	{r4, r5, r6, r7, pc}
 80058aa:	003d      	movs	r5, r7
 80058ac:	4335      	orrs	r5, r6
 80058ae:	d1f7      	bne.n	80058a0 <__eqdf2+0x3c>
 80058b0:	42a2      	cmp	r2, r4
 80058b2:	d1f5      	bne.n	80058a0 <__eqdf2+0x3c>
 80058b4:	4652      	mov	r2, sl
 80058b6:	4665      	mov	r5, ip
 80058b8:	432a      	orrs	r2, r5
 80058ba:	d1f1      	bne.n	80058a0 <__eqdf2+0x3c>
 80058bc:	2001      	movs	r0, #1
 80058be:	45c8      	cmp	r8, r9
 80058c0:	d1ee      	bne.n	80058a0 <__eqdf2+0x3c>
 80058c2:	4299      	cmp	r1, r3
 80058c4:	d006      	beq.n	80058d4 <__eqdf2+0x70>
 80058c6:	2c00      	cmp	r4, #0
 80058c8:	d1ea      	bne.n	80058a0 <__eqdf2+0x3c>
 80058ca:	433e      	orrs	r6, r7
 80058cc:	0030      	movs	r0, r6
 80058ce:	1e46      	subs	r6, r0, #1
 80058d0:	41b0      	sbcs	r0, r6
 80058d2:	e7e5      	b.n	80058a0 <__eqdf2+0x3c>
 80058d4:	2000      	movs	r0, #0
 80058d6:	e7e3      	b.n	80058a0 <__eqdf2+0x3c>
 80058d8:	000007ff 	.word	0x000007ff

080058dc <__gedf2>:
 80058dc:	b5f0      	push	{r4, r5, r6, r7, lr}
 80058de:	464e      	mov	r6, r9
 80058e0:	4645      	mov	r5, r8
 80058e2:	4657      	mov	r7, sl
 80058e4:	46de      	mov	lr, fp
 80058e6:	0004      	movs	r4, r0
 80058e8:	0018      	movs	r0, r3
 80058ea:	b5e0      	push	{r5, r6, r7, lr}
 80058ec:	0016      	movs	r6, r2
 80058ee:	031b      	lsls	r3, r3, #12
 80058f0:	0b1b      	lsrs	r3, r3, #12
 80058f2:	4d32      	ldr	r5, [pc, #200]	; (80059bc <__gedf2+0xe0>)
 80058f4:	030f      	lsls	r7, r1, #12
 80058f6:	004a      	lsls	r2, r1, #1
 80058f8:	4699      	mov	r9, r3
 80058fa:	0043      	lsls	r3, r0, #1
 80058fc:	46a4      	mov	ip, r4
 80058fe:	46b0      	mov	r8, r6
 8005900:	0b3f      	lsrs	r7, r7, #12
 8005902:	0d52      	lsrs	r2, r2, #21
 8005904:	0fc9      	lsrs	r1, r1, #31
 8005906:	0d5b      	lsrs	r3, r3, #21
 8005908:	0fc0      	lsrs	r0, r0, #31
 800590a:	42aa      	cmp	r2, r5
 800590c:	d029      	beq.n	8005962 <__gedf2+0x86>
 800590e:	42ab      	cmp	r3, r5
 8005910:	d018      	beq.n	8005944 <__gedf2+0x68>
 8005912:	2a00      	cmp	r2, #0
 8005914:	d12a      	bne.n	800596c <__gedf2+0x90>
 8005916:	433c      	orrs	r4, r7
 8005918:	46a3      	mov	fp, r4
 800591a:	4265      	negs	r5, r4
 800591c:	4165      	adcs	r5, r4
 800591e:	2b00      	cmp	r3, #0
 8005920:	d102      	bne.n	8005928 <__gedf2+0x4c>
 8005922:	464c      	mov	r4, r9
 8005924:	4326      	orrs	r6, r4
 8005926:	d027      	beq.n	8005978 <__gedf2+0x9c>
 8005928:	2d00      	cmp	r5, #0
 800592a:	d115      	bne.n	8005958 <__gedf2+0x7c>
 800592c:	4281      	cmp	r1, r0
 800592e:	d028      	beq.n	8005982 <__gedf2+0xa6>
 8005930:	2002      	movs	r0, #2
 8005932:	3901      	subs	r1, #1
 8005934:	4008      	ands	r0, r1
 8005936:	3801      	subs	r0, #1
 8005938:	bcf0      	pop	{r4, r5, r6, r7}
 800593a:	46bb      	mov	fp, r7
 800593c:	46b2      	mov	sl, r6
 800593e:	46a9      	mov	r9, r5
 8005940:	46a0      	mov	r8, r4
 8005942:	bdf0      	pop	{r4, r5, r6, r7, pc}
 8005944:	464d      	mov	r5, r9
 8005946:	432e      	orrs	r6, r5
 8005948:	d12f      	bne.n	80059aa <__gedf2+0xce>
 800594a:	2a00      	cmp	r2, #0
 800594c:	d1ee      	bne.n	800592c <__gedf2+0x50>
 800594e:	433c      	orrs	r4, r7
 8005950:	4265      	negs	r5, r4
 8005952:	4165      	adcs	r5, r4
 8005954:	2d00      	cmp	r5, #0
 8005956:	d0e9      	beq.n	800592c <__gedf2+0x50>
 8005958:	2800      	cmp	r0, #0
 800595a:	d1ed      	bne.n	8005938 <__gedf2+0x5c>
 800595c:	2001      	movs	r0, #1
 800595e:	4240      	negs	r0, r0
 8005960:	e7ea      	b.n	8005938 <__gedf2+0x5c>
 8005962:	003d      	movs	r5, r7
 8005964:	4325      	orrs	r5, r4
 8005966:	d120      	bne.n	80059aa <__gedf2+0xce>
 8005968:	4293      	cmp	r3, r2
 800596a:	d0eb      	beq.n	8005944 <__gedf2+0x68>
 800596c:	2b00      	cmp	r3, #0
 800596e:	d1dd      	bne.n	800592c <__gedf2+0x50>
 8005970:	464c      	mov	r4, r9
 8005972:	4326      	orrs	r6, r4
 8005974:	d1da      	bne.n	800592c <__gedf2+0x50>
 8005976:	e7db      	b.n	8005930 <__gedf2+0x54>
 8005978:	465b      	mov	r3, fp
 800597a:	2000      	movs	r0, #0
 800597c:	2b00      	cmp	r3, #0
 800597e:	d0db      	beq.n	8005938 <__gedf2+0x5c>
 8005980:	e7d6      	b.n	8005930 <__gedf2+0x54>
 8005982:	429a      	cmp	r2, r3
 8005984:	dc0a      	bgt.n	800599c <__gedf2+0xc0>
 8005986:	dbe7      	blt.n	8005958 <__gedf2+0x7c>
 8005988:	454f      	cmp	r7, r9
 800598a:	d8d1      	bhi.n	8005930 <__gedf2+0x54>
 800598c:	d010      	beq.n	80059b0 <__gedf2+0xd4>
 800598e:	2000      	movs	r0, #0
 8005990:	454f      	cmp	r7, r9
 8005992:	d2d1      	bcs.n	8005938 <__gedf2+0x5c>
 8005994:	2900      	cmp	r1, #0
 8005996:	d0e1      	beq.n	800595c <__gedf2+0x80>
 8005998:	0008      	movs	r0, r1
 800599a:	e7cd      	b.n	8005938 <__gedf2+0x5c>
 800599c:	4243      	negs	r3, r0
 800599e:	4158      	adcs	r0, r3
 80059a0:	2302      	movs	r3, #2
 80059a2:	4240      	negs	r0, r0
 80059a4:	4018      	ands	r0, r3
 80059a6:	3801      	subs	r0, #1
 80059a8:	e7c6      	b.n	8005938 <__gedf2+0x5c>
 80059aa:	2002      	movs	r0, #2
 80059ac:	4240      	negs	r0, r0
 80059ae:	e7c3      	b.n	8005938 <__gedf2+0x5c>
 80059b0:	45c4      	cmp	ip, r8
 80059b2:	d8bd      	bhi.n	8005930 <__gedf2+0x54>
 80059b4:	2000      	movs	r0, #0
 80059b6:	45c4      	cmp	ip, r8
 80059b8:	d2be      	bcs.n	8005938 <__gedf2+0x5c>
 80059ba:	e7eb      	b.n	8005994 <__gedf2+0xb8>
 80059bc:	000007ff 	.word	0x000007ff

080059c0 <__ledf2>:
 80059c0:	b5f0      	push	{r4, r5, r6, r7, lr}
 80059c2:	464e      	mov	r6, r9
 80059c4:	4645      	mov	r5, r8
 80059c6:	4657      	mov	r7, sl
 80059c8:	46de      	mov	lr, fp
 80059ca:	0004      	movs	r4, r0
 80059cc:	0018      	movs	r0, r3
 80059ce:	b5e0      	push	{r5, r6, r7, lr}
 80059d0:	0016      	movs	r6, r2
 80059d2:	031b      	lsls	r3, r3, #12
 80059d4:	0b1b      	lsrs	r3, r3, #12
 80059d6:	4d31      	ldr	r5, [pc, #196]	; (8005a9c <__ledf2+0xdc>)
 80059d8:	030f      	lsls	r7, r1, #12
 80059da:	004a      	lsls	r2, r1, #1
 80059dc:	4699      	mov	r9, r3
 80059de:	0043      	lsls	r3, r0, #1
 80059e0:	46a4      	mov	ip, r4
 80059e2:	46b0      	mov	r8, r6
 80059e4:	0b3f      	lsrs	r7, r7, #12
 80059e6:	0d52      	lsrs	r2, r2, #21
 80059e8:	0fc9      	lsrs	r1, r1, #31
 80059ea:	0d5b      	lsrs	r3, r3, #21
 80059ec:	0fc0      	lsrs	r0, r0, #31
 80059ee:	42aa      	cmp	r2, r5
 80059f0:	d011      	beq.n	8005a16 <__ledf2+0x56>
 80059f2:	42ab      	cmp	r3, r5
 80059f4:	d014      	beq.n	8005a20 <__ledf2+0x60>
 80059f6:	2a00      	cmp	r2, #0
 80059f8:	d12f      	bne.n	8005a5a <__ledf2+0x9a>
 80059fa:	433c      	orrs	r4, r7
 80059fc:	46a3      	mov	fp, r4
 80059fe:	4265      	negs	r5, r4
 8005a00:	4165      	adcs	r5, r4
 8005a02:	2b00      	cmp	r3, #0
 8005a04:	d114      	bne.n	8005a30 <__ledf2+0x70>
 8005a06:	464c      	mov	r4, r9
 8005a08:	4326      	orrs	r6, r4
 8005a0a:	d111      	bne.n	8005a30 <__ledf2+0x70>
 8005a0c:	465b      	mov	r3, fp
 8005a0e:	2000      	movs	r0, #0
 8005a10:	2b00      	cmp	r3, #0
 8005a12:	d017      	beq.n	8005a44 <__ledf2+0x84>
 8005a14:	e010      	b.n	8005a38 <__ledf2+0x78>
 8005a16:	003d      	movs	r5, r7
 8005a18:	4325      	orrs	r5, r4
 8005a1a:	d112      	bne.n	8005a42 <__ledf2+0x82>
 8005a1c:	4293      	cmp	r3, r2
 8005a1e:	d11c      	bne.n	8005a5a <__ledf2+0x9a>
 8005a20:	464d      	mov	r5, r9
 8005a22:	432e      	orrs	r6, r5
 8005a24:	d10d      	bne.n	8005a42 <__ledf2+0x82>
 8005a26:	2a00      	cmp	r2, #0
 8005a28:	d104      	bne.n	8005a34 <__ledf2+0x74>
 8005a2a:	433c      	orrs	r4, r7
 8005a2c:	4265      	negs	r5, r4
 8005a2e:	4165      	adcs	r5, r4
 8005a30:	2d00      	cmp	r5, #0
 8005a32:	d10d      	bne.n	8005a50 <__ledf2+0x90>
 8005a34:	4281      	cmp	r1, r0
 8005a36:	d016      	beq.n	8005a66 <__ledf2+0xa6>
 8005a38:	2002      	movs	r0, #2
 8005a3a:	3901      	subs	r1, #1
 8005a3c:	4008      	ands	r0, r1
 8005a3e:	3801      	subs	r0, #1
 8005a40:	e000      	b.n	8005a44 <__ledf2+0x84>
 8005a42:	2002      	movs	r0, #2
 8005a44:	bcf0      	pop	{r4, r5, r6, r7}
 8005a46:	46bb      	mov	fp, r7
 8005a48:	46b2      	mov	sl, r6
 8005a4a:	46a9      	mov	r9, r5
 8005a4c:	46a0      	mov	r8, r4
 8005a4e:	bdf0      	pop	{r4, r5, r6, r7, pc}
 8005a50:	2800      	cmp	r0, #0
 8005a52:	d1f7      	bne.n	8005a44 <__ledf2+0x84>
 8005a54:	2001      	movs	r0, #1
 8005a56:	4240      	negs	r0, r0
 8005a58:	e7f4      	b.n	8005a44 <__ledf2+0x84>
 8005a5a:	2b00      	cmp	r3, #0
 8005a5c:	d1ea      	bne.n	8005a34 <__ledf2+0x74>
 8005a5e:	464c      	mov	r4, r9
 8005a60:	4326      	orrs	r6, r4
 8005a62:	d1e7      	bne.n	8005a34 <__ledf2+0x74>
 8005a64:	e7e8      	b.n	8005a38 <__ledf2+0x78>
 8005a66:	429a      	cmp	r2, r3
 8005a68:	dd06      	ble.n	8005a78 <__ledf2+0xb8>
 8005a6a:	4243      	negs	r3, r0
 8005a6c:	4158      	adcs	r0, r3
 8005a6e:	2302      	movs	r3, #2
 8005a70:	4240      	negs	r0, r0
 8005a72:	4018      	ands	r0, r3
 8005a74:	3801      	subs	r0, #1
 8005a76:	e7e5      	b.n	8005a44 <__ledf2+0x84>
 8005a78:	429a      	cmp	r2, r3
 8005a7a:	dbe9      	blt.n	8005a50 <__ledf2+0x90>
 8005a7c:	454f      	cmp	r7, r9
 8005a7e:	d8db      	bhi.n	8005a38 <__ledf2+0x78>
 8005a80:	d006      	beq.n	8005a90 <__ledf2+0xd0>
 8005a82:	2000      	movs	r0, #0
 8005a84:	454f      	cmp	r7, r9
 8005a86:	d2dd      	bcs.n	8005a44 <__ledf2+0x84>
 8005a88:	2900      	cmp	r1, #0
 8005a8a:	d0e3      	beq.n	8005a54 <__ledf2+0x94>
 8005a8c:	0008      	movs	r0, r1
 8005a8e:	e7d9      	b.n	8005a44 <__ledf2+0x84>
 8005a90:	45c4      	cmp	ip, r8
 8005a92:	d8d1      	bhi.n	8005a38 <__ledf2+0x78>
 8005a94:	2000      	movs	r0, #0
 8005a96:	45c4      	cmp	ip, r8
 8005a98:	d2d4      	bcs.n	8005a44 <__ledf2+0x84>
 8005a9a:	e7f5      	b.n	8005a88 <__ledf2+0xc8>
 8005a9c:	000007ff 	.word	0x000007ff

08005aa0 <__aeabi_dmul>:
 8005aa0:	b5f0      	push	{r4, r5, r6, r7, lr}
 8005aa2:	4657      	mov	r7, sl
 8005aa4:	464e      	mov	r6, r9
 8005aa6:	4645      	mov	r5, r8
 8005aa8:	46de      	mov	lr, fp
 8005aaa:	b5e0      	push	{r5, r6, r7, lr}
 8005aac:	4698      	mov	r8, r3
 8005aae:	030c      	lsls	r4, r1, #12
 8005ab0:	004b      	lsls	r3, r1, #1
 8005ab2:	0006      	movs	r6, r0
 8005ab4:	4692      	mov	sl, r2
 8005ab6:	b087      	sub	sp, #28
 8005ab8:	0b24      	lsrs	r4, r4, #12
 8005aba:	0d5b      	lsrs	r3, r3, #21
 8005abc:	0fcf      	lsrs	r7, r1, #31
 8005abe:	2b00      	cmp	r3, #0
 8005ac0:	d06c      	beq.n	8005b9c <__aeabi_dmul+0xfc>
 8005ac2:	4add      	ldr	r2, [pc, #884]	; (8005e38 <__aeabi_dmul+0x398>)
 8005ac4:	4293      	cmp	r3, r2
 8005ac6:	d100      	bne.n	8005aca <__aeabi_dmul+0x2a>
 8005ac8:	e086      	b.n	8005bd8 <__aeabi_dmul+0x138>
 8005aca:	0f42      	lsrs	r2, r0, #29
 8005acc:	00e4      	lsls	r4, r4, #3
 8005ace:	4314      	orrs	r4, r2
 8005ad0:	2280      	movs	r2, #128	; 0x80
 8005ad2:	0412      	lsls	r2, r2, #16
 8005ad4:	4314      	orrs	r4, r2
 8005ad6:	4ad9      	ldr	r2, [pc, #868]	; (8005e3c <__aeabi_dmul+0x39c>)
 8005ad8:	00c5      	lsls	r5, r0, #3
 8005ada:	4694      	mov	ip, r2
 8005adc:	4463      	add	r3, ip
 8005ade:	9300      	str	r3, [sp, #0]
 8005ae0:	2300      	movs	r3, #0
 8005ae2:	4699      	mov	r9, r3
 8005ae4:	469b      	mov	fp, r3
 8005ae6:	4643      	mov	r3, r8
 8005ae8:	4642      	mov	r2, r8
 8005aea:	031e      	lsls	r6, r3, #12
 8005aec:	0fd2      	lsrs	r2, r2, #31
 8005aee:	005b      	lsls	r3, r3, #1
 8005af0:	4650      	mov	r0, sl
 8005af2:	4690      	mov	r8, r2
 8005af4:	0b36      	lsrs	r6, r6, #12
 8005af6:	0d5b      	lsrs	r3, r3, #21
 8005af8:	d100      	bne.n	8005afc <__aeabi_dmul+0x5c>
 8005afa:	e078      	b.n	8005bee <__aeabi_dmul+0x14e>
 8005afc:	4ace      	ldr	r2, [pc, #824]	; (8005e38 <__aeabi_dmul+0x398>)
 8005afe:	4293      	cmp	r3, r2
 8005b00:	d01d      	beq.n	8005b3e <__aeabi_dmul+0x9e>
 8005b02:	49ce      	ldr	r1, [pc, #824]	; (8005e3c <__aeabi_dmul+0x39c>)
 8005b04:	0f42      	lsrs	r2, r0, #29
 8005b06:	468c      	mov	ip, r1
 8005b08:	9900      	ldr	r1, [sp, #0]
 8005b0a:	4463      	add	r3, ip
 8005b0c:	00f6      	lsls	r6, r6, #3
 8005b0e:	468c      	mov	ip, r1
 8005b10:	4316      	orrs	r6, r2
 8005b12:	2280      	movs	r2, #128	; 0x80
 8005b14:	449c      	add	ip, r3
 8005b16:	0412      	lsls	r2, r2, #16
 8005b18:	4663      	mov	r3, ip
 8005b1a:	4316      	orrs	r6, r2
 8005b1c:	00c2      	lsls	r2, r0, #3
 8005b1e:	2000      	movs	r0, #0
 8005b20:	9300      	str	r3, [sp, #0]
 8005b22:	9900      	ldr	r1, [sp, #0]
 8005b24:	4643      	mov	r3, r8
 8005b26:	3101      	adds	r1, #1
 8005b28:	468c      	mov	ip, r1
 8005b2a:	4649      	mov	r1, r9
 8005b2c:	407b      	eors	r3, r7
 8005b2e:	9301      	str	r3, [sp, #4]
 8005b30:	290f      	cmp	r1, #15
 8005b32:	d900      	bls.n	8005b36 <__aeabi_dmul+0x96>
 8005b34:	e07e      	b.n	8005c34 <__aeabi_dmul+0x194>
 8005b36:	4bc2      	ldr	r3, [pc, #776]	; (8005e40 <__aeabi_dmul+0x3a0>)
 8005b38:	0089      	lsls	r1, r1, #2
 8005b3a:	5859      	ldr	r1, [r3, r1]
 8005b3c:	468f      	mov	pc, r1
 8005b3e:	4652      	mov	r2, sl
 8005b40:	9b00      	ldr	r3, [sp, #0]
 8005b42:	4332      	orrs	r2, r6
 8005b44:	d000      	beq.n	8005b48 <__aeabi_dmul+0xa8>
 8005b46:	e156      	b.n	8005df6 <__aeabi_dmul+0x356>
 8005b48:	49bb      	ldr	r1, [pc, #748]	; (8005e38 <__aeabi_dmul+0x398>)
 8005b4a:	2600      	movs	r6, #0
 8005b4c:	468c      	mov	ip, r1
 8005b4e:	4463      	add	r3, ip
 8005b50:	4649      	mov	r1, r9
 8005b52:	9300      	str	r3, [sp, #0]
 8005b54:	2302      	movs	r3, #2
 8005b56:	4319      	orrs	r1, r3
 8005b58:	4689      	mov	r9, r1
 8005b5a:	2002      	movs	r0, #2
 8005b5c:	e7e1      	b.n	8005b22 <__aeabi_dmul+0x82>
 8005b5e:	4643      	mov	r3, r8
 8005b60:	9301      	str	r3, [sp, #4]
 8005b62:	0034      	movs	r4, r6
 8005b64:	0015      	movs	r5, r2
 8005b66:	4683      	mov	fp, r0
 8005b68:	465b      	mov	r3, fp
 8005b6a:	2b02      	cmp	r3, #2
 8005b6c:	d05e      	beq.n	8005c2c <__aeabi_dmul+0x18c>
 8005b6e:	2b03      	cmp	r3, #3
 8005b70:	d100      	bne.n	8005b74 <__aeabi_dmul+0xd4>
 8005b72:	e1f3      	b.n	8005f5c <__aeabi_dmul+0x4bc>
 8005b74:	2b01      	cmp	r3, #1
 8005b76:	d000      	beq.n	8005b7a <__aeabi_dmul+0xda>
 8005b78:	e118      	b.n	8005dac <__aeabi_dmul+0x30c>
 8005b7a:	2200      	movs	r2, #0
 8005b7c:	2400      	movs	r4, #0
 8005b7e:	2500      	movs	r5, #0
 8005b80:	9b01      	ldr	r3, [sp, #4]
 8005b82:	0512      	lsls	r2, r2, #20
 8005b84:	4322      	orrs	r2, r4
 8005b86:	07db      	lsls	r3, r3, #31
 8005b88:	431a      	orrs	r2, r3
 8005b8a:	0028      	movs	r0, r5
 8005b8c:	0011      	movs	r1, r2
 8005b8e:	b007      	add	sp, #28
 8005b90:	bcf0      	pop	{r4, r5, r6, r7}
 8005b92:	46bb      	mov	fp, r7
 8005b94:	46b2      	mov	sl, r6
 8005b96:	46a9      	mov	r9, r5
 8005b98:	46a0      	mov	r8, r4
 8005b9a:	bdf0      	pop	{r4, r5, r6, r7, pc}
 8005b9c:	0025      	movs	r5, r4
 8005b9e:	4305      	orrs	r5, r0
 8005ba0:	d100      	bne.n	8005ba4 <__aeabi_dmul+0x104>
 8005ba2:	e141      	b.n	8005e28 <__aeabi_dmul+0x388>
 8005ba4:	2c00      	cmp	r4, #0
 8005ba6:	d100      	bne.n	8005baa <__aeabi_dmul+0x10a>
 8005ba8:	e1ad      	b.n	8005f06 <__aeabi_dmul+0x466>
 8005baa:	0020      	movs	r0, r4
 8005bac:	f000 fe02 	bl	80067b4 <__clzsi2>
 8005bb0:	0001      	movs	r1, r0
 8005bb2:	0002      	movs	r2, r0
 8005bb4:	390b      	subs	r1, #11
 8005bb6:	231d      	movs	r3, #29
 8005bb8:	0010      	movs	r0, r2
 8005bba:	1a5b      	subs	r3, r3, r1
 8005bbc:	0031      	movs	r1, r6
 8005bbe:	0035      	movs	r5, r6
 8005bc0:	3808      	subs	r0, #8
 8005bc2:	4084      	lsls	r4, r0
 8005bc4:	40d9      	lsrs	r1, r3
 8005bc6:	4085      	lsls	r5, r0
 8005bc8:	430c      	orrs	r4, r1
 8005bca:	489e      	ldr	r0, [pc, #632]	; (8005e44 <__aeabi_dmul+0x3a4>)
 8005bcc:	1a83      	subs	r3, r0, r2
 8005bce:	9300      	str	r3, [sp, #0]
 8005bd0:	2300      	movs	r3, #0
 8005bd2:	4699      	mov	r9, r3
 8005bd4:	469b      	mov	fp, r3
 8005bd6:	e786      	b.n	8005ae6 <__aeabi_dmul+0x46>
 8005bd8:	0005      	movs	r5, r0
 8005bda:	4325      	orrs	r5, r4
 8005bdc:	d000      	beq.n	8005be0 <__aeabi_dmul+0x140>
 8005bde:	e11c      	b.n	8005e1a <__aeabi_dmul+0x37a>
 8005be0:	2208      	movs	r2, #8
 8005be2:	9300      	str	r3, [sp, #0]
 8005be4:	2302      	movs	r3, #2
 8005be6:	2400      	movs	r4, #0
 8005be8:	4691      	mov	r9, r2
 8005bea:	469b      	mov	fp, r3
 8005bec:	e77b      	b.n	8005ae6 <__aeabi_dmul+0x46>
 8005bee:	4652      	mov	r2, sl
 8005bf0:	4332      	orrs	r2, r6
 8005bf2:	d100      	bne.n	8005bf6 <__aeabi_dmul+0x156>
 8005bf4:	e10a      	b.n	8005e0c <__aeabi_dmul+0x36c>
 8005bf6:	2e00      	cmp	r6, #0
 8005bf8:	d100      	bne.n	8005bfc <__aeabi_dmul+0x15c>
 8005bfa:	e176      	b.n	8005eea <__aeabi_dmul+0x44a>
 8005bfc:	0030      	movs	r0, r6
 8005bfe:	f000 fdd9 	bl	80067b4 <__clzsi2>
 8005c02:	0002      	movs	r2, r0
 8005c04:	3a0b      	subs	r2, #11
 8005c06:	231d      	movs	r3, #29
 8005c08:	0001      	movs	r1, r0
 8005c0a:	1a9b      	subs	r3, r3, r2
 8005c0c:	4652      	mov	r2, sl
 8005c0e:	3908      	subs	r1, #8
 8005c10:	40da      	lsrs	r2, r3
 8005c12:	408e      	lsls	r6, r1
 8005c14:	4316      	orrs	r6, r2
 8005c16:	4652      	mov	r2, sl
 8005c18:	408a      	lsls	r2, r1
 8005c1a:	9b00      	ldr	r3, [sp, #0]
 8005c1c:	4989      	ldr	r1, [pc, #548]	; (8005e44 <__aeabi_dmul+0x3a4>)
 8005c1e:	1a18      	subs	r0, r3, r0
 8005c20:	0003      	movs	r3, r0
 8005c22:	468c      	mov	ip, r1
 8005c24:	4463      	add	r3, ip
 8005c26:	2000      	movs	r0, #0
 8005c28:	9300      	str	r3, [sp, #0]
 8005c2a:	e77a      	b.n	8005b22 <__aeabi_dmul+0x82>
 8005c2c:	2400      	movs	r4, #0
 8005c2e:	2500      	movs	r5, #0
 8005c30:	4a81      	ldr	r2, [pc, #516]	; (8005e38 <__aeabi_dmul+0x398>)
 8005c32:	e7a5      	b.n	8005b80 <__aeabi_dmul+0xe0>
 8005c34:	0c2f      	lsrs	r7, r5, #16
 8005c36:	042d      	lsls	r5, r5, #16
 8005c38:	0c2d      	lsrs	r5, r5, #16
 8005c3a:	002b      	movs	r3, r5
 8005c3c:	0c11      	lsrs	r1, r2, #16
 8005c3e:	0412      	lsls	r2, r2, #16
 8005c40:	0c12      	lsrs	r2, r2, #16
 8005c42:	4353      	muls	r3, r2
 8005c44:	4698      	mov	r8, r3
 8005c46:	0013      	movs	r3, r2
 8005c48:	0028      	movs	r0, r5
 8005c4a:	437b      	muls	r3, r7
 8005c4c:	4699      	mov	r9, r3
 8005c4e:	4348      	muls	r0, r1
 8005c50:	4448      	add	r0, r9
 8005c52:	4683      	mov	fp, r0
 8005c54:	4640      	mov	r0, r8
 8005c56:	000b      	movs	r3, r1
 8005c58:	0c00      	lsrs	r0, r0, #16
 8005c5a:	4682      	mov	sl, r0
 8005c5c:	4658      	mov	r0, fp
 8005c5e:	437b      	muls	r3, r7
 8005c60:	4450      	add	r0, sl
 8005c62:	9302      	str	r3, [sp, #8]
 8005c64:	4581      	cmp	r9, r0
 8005c66:	d906      	bls.n	8005c76 <__aeabi_dmul+0x1d6>
 8005c68:	469a      	mov	sl, r3
 8005c6a:	2380      	movs	r3, #128	; 0x80
 8005c6c:	025b      	lsls	r3, r3, #9
 8005c6e:	4699      	mov	r9, r3
 8005c70:	44ca      	add	sl, r9
 8005c72:	4653      	mov	r3, sl
 8005c74:	9302      	str	r3, [sp, #8]
 8005c76:	0c03      	lsrs	r3, r0, #16
 8005c78:	469b      	mov	fp, r3
 8005c7a:	4643      	mov	r3, r8
 8005c7c:	041b      	lsls	r3, r3, #16
 8005c7e:	0400      	lsls	r0, r0, #16
 8005c80:	0c1b      	lsrs	r3, r3, #16
 8005c82:	4698      	mov	r8, r3
 8005c84:	0003      	movs	r3, r0
 8005c86:	4443      	add	r3, r8
 8005c88:	9304      	str	r3, [sp, #16]
 8005c8a:	0c33      	lsrs	r3, r6, #16
 8005c8c:	4699      	mov	r9, r3
 8005c8e:	002b      	movs	r3, r5
 8005c90:	0436      	lsls	r6, r6, #16
 8005c92:	0c36      	lsrs	r6, r6, #16
 8005c94:	4373      	muls	r3, r6
 8005c96:	4698      	mov	r8, r3
 8005c98:	0033      	movs	r3, r6
 8005c9a:	437b      	muls	r3, r7
 8005c9c:	469a      	mov	sl, r3
 8005c9e:	464b      	mov	r3, r9
 8005ca0:	435d      	muls	r5, r3
 8005ca2:	435f      	muls	r7, r3
 8005ca4:	4643      	mov	r3, r8
 8005ca6:	4455      	add	r5, sl
 8005ca8:	0c18      	lsrs	r0, r3, #16
 8005caa:	1940      	adds	r0, r0, r5
 8005cac:	4582      	cmp	sl, r0
 8005cae:	d903      	bls.n	8005cb8 <__aeabi_dmul+0x218>
 8005cb0:	2380      	movs	r3, #128	; 0x80
 8005cb2:	025b      	lsls	r3, r3, #9
 8005cb4:	469a      	mov	sl, r3
 8005cb6:	4457      	add	r7, sl
 8005cb8:	0c05      	lsrs	r5, r0, #16
 8005cba:	19eb      	adds	r3, r5, r7
 8005cbc:	9305      	str	r3, [sp, #20]
 8005cbe:	4643      	mov	r3, r8
 8005cc0:	041d      	lsls	r5, r3, #16
 8005cc2:	0c2d      	lsrs	r5, r5, #16
 8005cc4:	0400      	lsls	r0, r0, #16
 8005cc6:	1940      	adds	r0, r0, r5
 8005cc8:	0c25      	lsrs	r5, r4, #16
 8005cca:	0424      	lsls	r4, r4, #16
 8005ccc:	0c24      	lsrs	r4, r4, #16
 8005cce:	0027      	movs	r7, r4
 8005cd0:	4357      	muls	r7, r2
 8005cd2:	436a      	muls	r2, r5
 8005cd4:	4690      	mov	r8, r2
 8005cd6:	002a      	movs	r2, r5
 8005cd8:	0c3b      	lsrs	r3, r7, #16
 8005cda:	469a      	mov	sl, r3
 8005cdc:	434a      	muls	r2, r1
 8005cde:	4361      	muls	r1, r4
 8005ce0:	4441      	add	r1, r8
 8005ce2:	4451      	add	r1, sl
 8005ce4:	4483      	add	fp, r0
 8005ce6:	4588      	cmp	r8, r1
 8005ce8:	d903      	bls.n	8005cf2 <__aeabi_dmul+0x252>
 8005cea:	2380      	movs	r3, #128	; 0x80
 8005cec:	025b      	lsls	r3, r3, #9
 8005cee:	4698      	mov	r8, r3
 8005cf0:	4442      	add	r2, r8
 8005cf2:	043f      	lsls	r7, r7, #16
 8005cf4:	0c0b      	lsrs	r3, r1, #16
 8005cf6:	0c3f      	lsrs	r7, r7, #16
 8005cf8:	0409      	lsls	r1, r1, #16
 8005cfa:	19c9      	adds	r1, r1, r7
 8005cfc:	0027      	movs	r7, r4
 8005cfe:	4698      	mov	r8, r3
 8005d00:	464b      	mov	r3, r9
 8005d02:	4377      	muls	r7, r6
 8005d04:	435c      	muls	r4, r3
 8005d06:	436e      	muls	r6, r5
 8005d08:	435d      	muls	r5, r3
 8005d0a:	0c3b      	lsrs	r3, r7, #16
 8005d0c:	4699      	mov	r9, r3
 8005d0e:	19a4      	adds	r4, r4, r6
 8005d10:	444c      	add	r4, r9
 8005d12:	4442      	add	r2, r8
 8005d14:	9503      	str	r5, [sp, #12]
 8005d16:	42a6      	cmp	r6, r4
 8005d18:	d904      	bls.n	8005d24 <__aeabi_dmul+0x284>
 8005d1a:	2380      	movs	r3, #128	; 0x80
 8005d1c:	025b      	lsls	r3, r3, #9
 8005d1e:	4698      	mov	r8, r3
 8005d20:	4445      	add	r5, r8
 8005d22:	9503      	str	r5, [sp, #12]
 8005d24:	9b02      	ldr	r3, [sp, #8]
 8005d26:	043f      	lsls	r7, r7, #16
 8005d28:	445b      	add	r3, fp
 8005d2a:	001e      	movs	r6, r3
 8005d2c:	4283      	cmp	r3, r0
 8005d2e:	4180      	sbcs	r0, r0
 8005d30:	0423      	lsls	r3, r4, #16
 8005d32:	4698      	mov	r8, r3
 8005d34:	9b05      	ldr	r3, [sp, #20]
 8005d36:	0c3f      	lsrs	r7, r7, #16
 8005d38:	4447      	add	r7, r8
 8005d3a:	4698      	mov	r8, r3
 8005d3c:	1876      	adds	r6, r6, r1
 8005d3e:	428e      	cmp	r6, r1
 8005d40:	4189      	sbcs	r1, r1
 8005d42:	4447      	add	r7, r8
 8005d44:	4240      	negs	r0, r0
 8005d46:	183d      	adds	r5, r7, r0
 8005d48:	46a8      	mov	r8, r5
 8005d4a:	4693      	mov	fp, r2
 8005d4c:	4249      	negs	r1, r1
 8005d4e:	468a      	mov	sl, r1
 8005d50:	44c3      	add	fp, r8
 8005d52:	429f      	cmp	r7, r3
 8005d54:	41bf      	sbcs	r7, r7
 8005d56:	4580      	cmp	r8, r0
 8005d58:	4180      	sbcs	r0, r0
 8005d5a:	9b03      	ldr	r3, [sp, #12]
 8005d5c:	44da      	add	sl, fp
 8005d5e:	4698      	mov	r8, r3
 8005d60:	4653      	mov	r3, sl
 8005d62:	4240      	negs	r0, r0
 8005d64:	427f      	negs	r7, r7
 8005d66:	4307      	orrs	r7, r0
 8005d68:	0c24      	lsrs	r4, r4, #16
 8005d6a:	4593      	cmp	fp, r2
 8005d6c:	4192      	sbcs	r2, r2
 8005d6e:	458a      	cmp	sl, r1
 8005d70:	4189      	sbcs	r1, r1
 8005d72:	193f      	adds	r7, r7, r4
 8005d74:	0ddc      	lsrs	r4, r3, #23
 8005d76:	9b04      	ldr	r3, [sp, #16]
 8005d78:	0275      	lsls	r5, r6, #9
 8005d7a:	431d      	orrs	r5, r3
 8005d7c:	1e68      	subs	r0, r5, #1
 8005d7e:	4185      	sbcs	r5, r0
 8005d80:	4653      	mov	r3, sl
 8005d82:	4252      	negs	r2, r2
 8005d84:	4249      	negs	r1, r1
 8005d86:	430a      	orrs	r2, r1
 8005d88:	18bf      	adds	r7, r7, r2
 8005d8a:	4447      	add	r7, r8
 8005d8c:	0df6      	lsrs	r6, r6, #23
 8005d8e:	027f      	lsls	r7, r7, #9
 8005d90:	4335      	orrs	r5, r6
 8005d92:	025a      	lsls	r2, r3, #9
 8005d94:	433c      	orrs	r4, r7
 8005d96:	4315      	orrs	r5, r2
 8005d98:	01fb      	lsls	r3, r7, #7
 8005d9a:	d400      	bmi.n	8005d9e <__aeabi_dmul+0x2fe>
 8005d9c:	e0c1      	b.n	8005f22 <__aeabi_dmul+0x482>
 8005d9e:	2101      	movs	r1, #1
 8005da0:	086a      	lsrs	r2, r5, #1
 8005da2:	400d      	ands	r5, r1
 8005da4:	4315      	orrs	r5, r2
 8005da6:	07e2      	lsls	r2, r4, #31
 8005da8:	4315      	orrs	r5, r2
 8005daa:	0864      	lsrs	r4, r4, #1
 8005dac:	4926      	ldr	r1, [pc, #152]	; (8005e48 <__aeabi_dmul+0x3a8>)
 8005dae:	4461      	add	r1, ip
 8005db0:	2900      	cmp	r1, #0
 8005db2:	dd56      	ble.n	8005e62 <__aeabi_dmul+0x3c2>
 8005db4:	076b      	lsls	r3, r5, #29
 8005db6:	d009      	beq.n	8005dcc <__aeabi_dmul+0x32c>
 8005db8:	220f      	movs	r2, #15
 8005dba:	402a      	ands	r2, r5
 8005dbc:	2a04      	cmp	r2, #4
 8005dbe:	d005      	beq.n	8005dcc <__aeabi_dmul+0x32c>
 8005dc0:	1d2a      	adds	r2, r5, #4
 8005dc2:	42aa      	cmp	r2, r5
 8005dc4:	41ad      	sbcs	r5, r5
 8005dc6:	426d      	negs	r5, r5
 8005dc8:	1964      	adds	r4, r4, r5
 8005dca:	0015      	movs	r5, r2
 8005dcc:	01e3      	lsls	r3, r4, #7
 8005dce:	d504      	bpl.n	8005dda <__aeabi_dmul+0x33a>
 8005dd0:	2180      	movs	r1, #128	; 0x80
 8005dd2:	4a1e      	ldr	r2, [pc, #120]	; (8005e4c <__aeabi_dmul+0x3ac>)
 8005dd4:	00c9      	lsls	r1, r1, #3
 8005dd6:	4014      	ands	r4, r2
 8005dd8:	4461      	add	r1, ip
 8005dda:	4a1d      	ldr	r2, [pc, #116]	; (8005e50 <__aeabi_dmul+0x3b0>)
 8005ddc:	4291      	cmp	r1, r2
 8005dde:	dd00      	ble.n	8005de2 <__aeabi_dmul+0x342>
 8005de0:	e724      	b.n	8005c2c <__aeabi_dmul+0x18c>
 8005de2:	0762      	lsls	r2, r4, #29
 8005de4:	08ed      	lsrs	r5, r5, #3
 8005de6:	0264      	lsls	r4, r4, #9
 8005de8:	0549      	lsls	r1, r1, #21
 8005dea:	4315      	orrs	r5, r2
 8005dec:	0b24      	lsrs	r4, r4, #12
 8005dee:	0d4a      	lsrs	r2, r1, #21
 8005df0:	e6c6      	b.n	8005b80 <__aeabi_dmul+0xe0>
 8005df2:	9701      	str	r7, [sp, #4]
 8005df4:	e6b8      	b.n	8005b68 <__aeabi_dmul+0xc8>
 8005df6:	4a10      	ldr	r2, [pc, #64]	; (8005e38 <__aeabi_dmul+0x398>)
 8005df8:	2003      	movs	r0, #3
 8005dfa:	4694      	mov	ip, r2
 8005dfc:	4463      	add	r3, ip
 8005dfe:	464a      	mov	r2, r9
 8005e00:	9300      	str	r3, [sp, #0]
 8005e02:	2303      	movs	r3, #3
 8005e04:	431a      	orrs	r2, r3
 8005e06:	4691      	mov	r9, r2
 8005e08:	4652      	mov	r2, sl
 8005e0a:	e68a      	b.n	8005b22 <__aeabi_dmul+0x82>
 8005e0c:	4649      	mov	r1, r9
 8005e0e:	2301      	movs	r3, #1
 8005e10:	4319      	orrs	r1, r3
 8005e12:	4689      	mov	r9, r1
 8005e14:	2600      	movs	r6, #0
 8005e16:	2001      	movs	r0, #1
 8005e18:	e683      	b.n	8005b22 <__aeabi_dmul+0x82>
 8005e1a:	220c      	movs	r2, #12
 8005e1c:	9300      	str	r3, [sp, #0]
 8005e1e:	2303      	movs	r3, #3
 8005e20:	0005      	movs	r5, r0
 8005e22:	4691      	mov	r9, r2
 8005e24:	469b      	mov	fp, r3
 8005e26:	e65e      	b.n	8005ae6 <__aeabi_dmul+0x46>
 8005e28:	2304      	movs	r3, #4
 8005e2a:	4699      	mov	r9, r3
 8005e2c:	2300      	movs	r3, #0
 8005e2e:	9300      	str	r3, [sp, #0]
 8005e30:	3301      	adds	r3, #1
 8005e32:	2400      	movs	r4, #0
 8005e34:	469b      	mov	fp, r3
 8005e36:	e656      	b.n	8005ae6 <__aeabi_dmul+0x46>
 8005e38:	000007ff 	.word	0x000007ff
 8005e3c:	fffffc01 	.word	0xfffffc01
 8005e40:	080068d0 	.word	0x080068d0
 8005e44:	fffffc0d 	.word	0xfffffc0d
 8005e48:	000003ff 	.word	0x000003ff
 8005e4c:	feffffff 	.word	0xfeffffff
 8005e50:	000007fe 	.word	0x000007fe
 8005e54:	2300      	movs	r3, #0
 8005e56:	2480      	movs	r4, #128	; 0x80
 8005e58:	2500      	movs	r5, #0
 8005e5a:	4a44      	ldr	r2, [pc, #272]	; (8005f6c <__aeabi_dmul+0x4cc>)
 8005e5c:	9301      	str	r3, [sp, #4]
 8005e5e:	0324      	lsls	r4, r4, #12
 8005e60:	e68e      	b.n	8005b80 <__aeabi_dmul+0xe0>
 8005e62:	2001      	movs	r0, #1
 8005e64:	1a40      	subs	r0, r0, r1
 8005e66:	2838      	cmp	r0, #56	; 0x38
 8005e68:	dd00      	ble.n	8005e6c <__aeabi_dmul+0x3cc>
 8005e6a:	e686      	b.n	8005b7a <__aeabi_dmul+0xda>
 8005e6c:	281f      	cmp	r0, #31
 8005e6e:	dd5b      	ble.n	8005f28 <__aeabi_dmul+0x488>
 8005e70:	221f      	movs	r2, #31
 8005e72:	0023      	movs	r3, r4
 8005e74:	4252      	negs	r2, r2
 8005e76:	1a51      	subs	r1, r2, r1
 8005e78:	40cb      	lsrs	r3, r1
 8005e7a:	0019      	movs	r1, r3
 8005e7c:	2820      	cmp	r0, #32
 8005e7e:	d003      	beq.n	8005e88 <__aeabi_dmul+0x3e8>
 8005e80:	4a3b      	ldr	r2, [pc, #236]	; (8005f70 <__aeabi_dmul+0x4d0>)
 8005e82:	4462      	add	r2, ip
 8005e84:	4094      	lsls	r4, r2
 8005e86:	4325      	orrs	r5, r4
 8005e88:	1e6a      	subs	r2, r5, #1
 8005e8a:	4195      	sbcs	r5, r2
 8005e8c:	002a      	movs	r2, r5
 8005e8e:	430a      	orrs	r2, r1
 8005e90:	2107      	movs	r1, #7
 8005e92:	000d      	movs	r5, r1
 8005e94:	2400      	movs	r4, #0
 8005e96:	4015      	ands	r5, r2
 8005e98:	4211      	tst	r1, r2
 8005e9a:	d05b      	beq.n	8005f54 <__aeabi_dmul+0x4b4>
 8005e9c:	210f      	movs	r1, #15
 8005e9e:	2400      	movs	r4, #0
 8005ea0:	4011      	ands	r1, r2
 8005ea2:	2904      	cmp	r1, #4
 8005ea4:	d053      	beq.n	8005f4e <__aeabi_dmul+0x4ae>
 8005ea6:	1d11      	adds	r1, r2, #4
 8005ea8:	4291      	cmp	r1, r2
 8005eaa:	4192      	sbcs	r2, r2
 8005eac:	4252      	negs	r2, r2
 8005eae:	18a4      	adds	r4, r4, r2
 8005eb0:	000a      	movs	r2, r1
 8005eb2:	0223      	lsls	r3, r4, #8
 8005eb4:	d54b      	bpl.n	8005f4e <__aeabi_dmul+0x4ae>
 8005eb6:	2201      	movs	r2, #1
 8005eb8:	2400      	movs	r4, #0
 8005eba:	2500      	movs	r5, #0
 8005ebc:	e660      	b.n	8005b80 <__aeabi_dmul+0xe0>
 8005ebe:	2380      	movs	r3, #128	; 0x80
 8005ec0:	031b      	lsls	r3, r3, #12
 8005ec2:	421c      	tst	r4, r3
 8005ec4:	d009      	beq.n	8005eda <__aeabi_dmul+0x43a>
 8005ec6:	421e      	tst	r6, r3
 8005ec8:	d107      	bne.n	8005eda <__aeabi_dmul+0x43a>
 8005eca:	4333      	orrs	r3, r6
 8005ecc:	031c      	lsls	r4, r3, #12
 8005ece:	4643      	mov	r3, r8
 8005ed0:	0015      	movs	r5, r2
 8005ed2:	0b24      	lsrs	r4, r4, #12
 8005ed4:	4a25      	ldr	r2, [pc, #148]	; (8005f6c <__aeabi_dmul+0x4cc>)
 8005ed6:	9301      	str	r3, [sp, #4]
 8005ed8:	e652      	b.n	8005b80 <__aeabi_dmul+0xe0>
 8005eda:	2280      	movs	r2, #128	; 0x80
 8005edc:	0312      	lsls	r2, r2, #12
 8005ede:	4314      	orrs	r4, r2
 8005ee0:	0324      	lsls	r4, r4, #12
 8005ee2:	4a22      	ldr	r2, [pc, #136]	; (8005f6c <__aeabi_dmul+0x4cc>)
 8005ee4:	0b24      	lsrs	r4, r4, #12
 8005ee6:	9701      	str	r7, [sp, #4]
 8005ee8:	e64a      	b.n	8005b80 <__aeabi_dmul+0xe0>
 8005eea:	f000 fc63 	bl	80067b4 <__clzsi2>
 8005eee:	0003      	movs	r3, r0
 8005ef0:	001a      	movs	r2, r3
 8005ef2:	3215      	adds	r2, #21
 8005ef4:	3020      	adds	r0, #32
 8005ef6:	2a1c      	cmp	r2, #28
 8005ef8:	dc00      	bgt.n	8005efc <__aeabi_dmul+0x45c>
 8005efa:	e684      	b.n	8005c06 <__aeabi_dmul+0x166>
 8005efc:	4656      	mov	r6, sl
 8005efe:	3b08      	subs	r3, #8
 8005f00:	2200      	movs	r2, #0
 8005f02:	409e      	lsls	r6, r3
 8005f04:	e689      	b.n	8005c1a <__aeabi_dmul+0x17a>
 8005f06:	f000 fc55 	bl	80067b4 <__clzsi2>
 8005f0a:	0001      	movs	r1, r0
 8005f0c:	0002      	movs	r2, r0
 8005f0e:	3115      	adds	r1, #21
 8005f10:	3220      	adds	r2, #32
 8005f12:	291c      	cmp	r1, #28
 8005f14:	dc00      	bgt.n	8005f18 <__aeabi_dmul+0x478>
 8005f16:	e64e      	b.n	8005bb6 <__aeabi_dmul+0x116>
 8005f18:	0034      	movs	r4, r6
 8005f1a:	3808      	subs	r0, #8
 8005f1c:	2500      	movs	r5, #0
 8005f1e:	4084      	lsls	r4, r0
 8005f20:	e653      	b.n	8005bca <__aeabi_dmul+0x12a>
 8005f22:	9b00      	ldr	r3, [sp, #0]
 8005f24:	469c      	mov	ip, r3
 8005f26:	e741      	b.n	8005dac <__aeabi_dmul+0x30c>
 8005f28:	4912      	ldr	r1, [pc, #72]	; (8005f74 <__aeabi_dmul+0x4d4>)
 8005f2a:	0022      	movs	r2, r4
 8005f2c:	4461      	add	r1, ip
 8005f2e:	002e      	movs	r6, r5
 8005f30:	408d      	lsls	r5, r1
 8005f32:	408a      	lsls	r2, r1
 8005f34:	40c6      	lsrs	r6, r0
 8005f36:	1e69      	subs	r1, r5, #1
 8005f38:	418d      	sbcs	r5, r1
 8005f3a:	4332      	orrs	r2, r6
 8005f3c:	432a      	orrs	r2, r5
 8005f3e:	40c4      	lsrs	r4, r0
 8005f40:	0753      	lsls	r3, r2, #29
 8005f42:	d0b6      	beq.n	8005eb2 <__aeabi_dmul+0x412>
 8005f44:	210f      	movs	r1, #15
 8005f46:	4011      	ands	r1, r2
 8005f48:	2904      	cmp	r1, #4
 8005f4a:	d1ac      	bne.n	8005ea6 <__aeabi_dmul+0x406>
 8005f4c:	e7b1      	b.n	8005eb2 <__aeabi_dmul+0x412>
 8005f4e:	0765      	lsls	r5, r4, #29
 8005f50:	0264      	lsls	r4, r4, #9
 8005f52:	0b24      	lsrs	r4, r4, #12
 8005f54:	08d2      	lsrs	r2, r2, #3
 8005f56:	4315      	orrs	r5, r2
 8005f58:	2200      	movs	r2, #0
 8005f5a:	e611      	b.n	8005b80 <__aeabi_dmul+0xe0>
 8005f5c:	2280      	movs	r2, #128	; 0x80
 8005f5e:	0312      	lsls	r2, r2, #12
 8005f60:	4314      	orrs	r4, r2
 8005f62:	0324      	lsls	r4, r4, #12
 8005f64:	4a01      	ldr	r2, [pc, #4]	; (8005f6c <__aeabi_dmul+0x4cc>)
 8005f66:	0b24      	lsrs	r4, r4, #12
 8005f68:	e60a      	b.n	8005b80 <__aeabi_dmul+0xe0>
 8005f6a:	46c0      	nop			; (mov r8, r8)
 8005f6c:	000007ff 	.word	0x000007ff
 8005f70:	0000043e 	.word	0x0000043e
 8005f74:	0000041e 	.word	0x0000041e

08005f78 <__aeabi_dsub>:
 8005f78:	b5f8      	push	{r3, r4, r5, r6, r7, lr}
 8005f7a:	4657      	mov	r7, sl
 8005f7c:	464e      	mov	r6, r9
 8005f7e:	4645      	mov	r5, r8
 8005f80:	46de      	mov	lr, fp
 8005f82:	0004      	movs	r4, r0
 8005f84:	b5e0      	push	{r5, r6, r7, lr}
 8005f86:	001f      	movs	r7, r3
 8005f88:	0010      	movs	r0, r2
 8005f8a:	030b      	lsls	r3, r1, #12
 8005f8c:	0f62      	lsrs	r2, r4, #29
 8005f8e:	004e      	lsls	r6, r1, #1
 8005f90:	0fcd      	lsrs	r5, r1, #31
 8005f92:	0a5b      	lsrs	r3, r3, #9
 8005f94:	0339      	lsls	r1, r7, #12
 8005f96:	4313      	orrs	r3, r2
 8005f98:	0a49      	lsrs	r1, r1, #9
 8005f9a:	00e2      	lsls	r2, r4, #3
 8005f9c:	0f44      	lsrs	r4, r0, #29
 8005f9e:	4321      	orrs	r1, r4
 8005fa0:	4cc2      	ldr	r4, [pc, #776]	; (80062ac <__aeabi_dsub+0x334>)
 8005fa2:	4691      	mov	r9, r2
 8005fa4:	4692      	mov	sl, r2
 8005fa6:	00c0      	lsls	r0, r0, #3
 8005fa8:	007a      	lsls	r2, r7, #1
 8005faa:	4680      	mov	r8, r0
 8005fac:	0d76      	lsrs	r6, r6, #21
 8005fae:	0d52      	lsrs	r2, r2, #21
 8005fb0:	0fff      	lsrs	r7, r7, #31
 8005fb2:	42a2      	cmp	r2, r4
 8005fb4:	d100      	bne.n	8005fb8 <__aeabi_dsub+0x40>
 8005fb6:	e0b4      	b.n	8006122 <__aeabi_dsub+0x1aa>
 8005fb8:	2401      	movs	r4, #1
 8005fba:	4067      	eors	r7, r4
 8005fbc:	46bb      	mov	fp, r7
 8005fbe:	42bd      	cmp	r5, r7
 8005fc0:	d100      	bne.n	8005fc4 <__aeabi_dsub+0x4c>
 8005fc2:	e088      	b.n	80060d6 <__aeabi_dsub+0x15e>
 8005fc4:	1ab4      	subs	r4, r6, r2
 8005fc6:	46a4      	mov	ip, r4
 8005fc8:	2c00      	cmp	r4, #0
 8005fca:	dc00      	bgt.n	8005fce <__aeabi_dsub+0x56>
 8005fcc:	e0b2      	b.n	8006134 <__aeabi_dsub+0x1bc>
 8005fce:	2a00      	cmp	r2, #0
 8005fd0:	d100      	bne.n	8005fd4 <__aeabi_dsub+0x5c>
 8005fd2:	e0c5      	b.n	8006160 <__aeabi_dsub+0x1e8>
 8005fd4:	4ab5      	ldr	r2, [pc, #724]	; (80062ac <__aeabi_dsub+0x334>)
 8005fd6:	4296      	cmp	r6, r2
 8005fd8:	d100      	bne.n	8005fdc <__aeabi_dsub+0x64>
 8005fda:	e28b      	b.n	80064f4 <__aeabi_dsub+0x57c>
 8005fdc:	2280      	movs	r2, #128	; 0x80
 8005fde:	0412      	lsls	r2, r2, #16
 8005fe0:	4311      	orrs	r1, r2
 8005fe2:	4662      	mov	r2, ip
 8005fe4:	2a38      	cmp	r2, #56	; 0x38
 8005fe6:	dd00      	ble.n	8005fea <__aeabi_dsub+0x72>
 8005fe8:	e1a1      	b.n	800632e <__aeabi_dsub+0x3b6>
 8005fea:	2a1f      	cmp	r2, #31
 8005fec:	dd00      	ble.n	8005ff0 <__aeabi_dsub+0x78>
 8005fee:	e216      	b.n	800641e <__aeabi_dsub+0x4a6>
 8005ff0:	2720      	movs	r7, #32
 8005ff2:	000c      	movs	r4, r1
 8005ff4:	1abf      	subs	r7, r7, r2
 8005ff6:	40bc      	lsls	r4, r7
 8005ff8:	0002      	movs	r2, r0
 8005ffa:	46a0      	mov	r8, r4
 8005ffc:	4664      	mov	r4, ip
 8005ffe:	40b8      	lsls	r0, r7
 8006000:	40e2      	lsrs	r2, r4
 8006002:	4644      	mov	r4, r8
 8006004:	4314      	orrs	r4, r2
 8006006:	0002      	movs	r2, r0
 8006008:	1e50      	subs	r0, r2, #1
 800600a:	4182      	sbcs	r2, r0
 800600c:	4660      	mov	r0, ip
 800600e:	40c1      	lsrs	r1, r0
 8006010:	4322      	orrs	r2, r4
 8006012:	1a5b      	subs	r3, r3, r1
 8006014:	4649      	mov	r1, r9
 8006016:	1a8c      	subs	r4, r1, r2
 8006018:	45a1      	cmp	r9, r4
 800601a:	4192      	sbcs	r2, r2
 800601c:	4252      	negs	r2, r2
 800601e:	1a9b      	subs	r3, r3, r2
 8006020:	4698      	mov	r8, r3
 8006022:	4643      	mov	r3, r8
 8006024:	021b      	lsls	r3, r3, #8
 8006026:	d400      	bmi.n	800602a <__aeabi_dsub+0xb2>
 8006028:	e117      	b.n	800625a <__aeabi_dsub+0x2e2>
 800602a:	4643      	mov	r3, r8
 800602c:	025b      	lsls	r3, r3, #9
 800602e:	0a5b      	lsrs	r3, r3, #9
 8006030:	4698      	mov	r8, r3
 8006032:	4643      	mov	r3, r8
 8006034:	2b00      	cmp	r3, #0
 8006036:	d100      	bne.n	800603a <__aeabi_dsub+0xc2>
 8006038:	e16c      	b.n	8006314 <__aeabi_dsub+0x39c>
 800603a:	4640      	mov	r0, r8
 800603c:	f000 fbba 	bl	80067b4 <__clzsi2>
 8006040:	0002      	movs	r2, r0
 8006042:	3a08      	subs	r2, #8
 8006044:	2120      	movs	r1, #32
 8006046:	0020      	movs	r0, r4
 8006048:	4643      	mov	r3, r8
 800604a:	1a89      	subs	r1, r1, r2
 800604c:	4093      	lsls	r3, r2
 800604e:	40c8      	lsrs	r0, r1
 8006050:	4094      	lsls	r4, r2
 8006052:	4303      	orrs	r3, r0
 8006054:	4296      	cmp	r6, r2
 8006056:	dd00      	ble.n	800605a <__aeabi_dsub+0xe2>
 8006058:	e157      	b.n	800630a <__aeabi_dsub+0x392>
 800605a:	1b96      	subs	r6, r2, r6
 800605c:	1c71      	adds	r1, r6, #1
 800605e:	291f      	cmp	r1, #31
 8006060:	dd00      	ble.n	8006064 <__aeabi_dsub+0xec>
 8006062:	e1cb      	b.n	80063fc <__aeabi_dsub+0x484>
 8006064:	2220      	movs	r2, #32
 8006066:	0018      	movs	r0, r3
 8006068:	0026      	movs	r6, r4
 800606a:	1a52      	subs	r2, r2, r1
 800606c:	4094      	lsls	r4, r2
 800606e:	4090      	lsls	r0, r2
 8006070:	40ce      	lsrs	r6, r1
 8006072:	40cb      	lsrs	r3, r1
 8006074:	1e62      	subs	r2, r4, #1
 8006076:	4194      	sbcs	r4, r2
 8006078:	4330      	orrs	r0, r6
 800607a:	4698      	mov	r8, r3
 800607c:	2600      	movs	r6, #0
 800607e:	4304      	orrs	r4, r0
 8006080:	0763      	lsls	r3, r4, #29
 8006082:	d009      	beq.n	8006098 <__aeabi_dsub+0x120>
 8006084:	230f      	movs	r3, #15
 8006086:	4023      	ands	r3, r4
 8006088:	2b04      	cmp	r3, #4
 800608a:	d005      	beq.n	8006098 <__aeabi_dsub+0x120>
 800608c:	1d23      	adds	r3, r4, #4
 800608e:	42a3      	cmp	r3, r4
 8006090:	41a4      	sbcs	r4, r4
 8006092:	4264      	negs	r4, r4
 8006094:	44a0      	add	r8, r4
 8006096:	001c      	movs	r4, r3
 8006098:	4643      	mov	r3, r8
 800609a:	021b      	lsls	r3, r3, #8
 800609c:	d400      	bmi.n	80060a0 <__aeabi_dsub+0x128>
 800609e:	e0df      	b.n	8006260 <__aeabi_dsub+0x2e8>
 80060a0:	4b82      	ldr	r3, [pc, #520]	; (80062ac <__aeabi_dsub+0x334>)
 80060a2:	3601      	adds	r6, #1
 80060a4:	429e      	cmp	r6, r3
 80060a6:	d100      	bne.n	80060aa <__aeabi_dsub+0x132>
 80060a8:	e0fb      	b.n	80062a2 <__aeabi_dsub+0x32a>
 80060aa:	4642      	mov	r2, r8
 80060ac:	4b80      	ldr	r3, [pc, #512]	; (80062b0 <__aeabi_dsub+0x338>)
 80060ae:	08e4      	lsrs	r4, r4, #3
 80060b0:	401a      	ands	r2, r3
 80060b2:	0013      	movs	r3, r2
 80060b4:	0571      	lsls	r1, r6, #21
 80060b6:	0752      	lsls	r2, r2, #29
 80060b8:	025b      	lsls	r3, r3, #9
 80060ba:	4322      	orrs	r2, r4
 80060bc:	0b1b      	lsrs	r3, r3, #12
 80060be:	0d49      	lsrs	r1, r1, #21
 80060c0:	0509      	lsls	r1, r1, #20
 80060c2:	07ed      	lsls	r5, r5, #31
 80060c4:	4319      	orrs	r1, r3
 80060c6:	4329      	orrs	r1, r5
 80060c8:	0010      	movs	r0, r2
 80060ca:	bcf0      	pop	{r4, r5, r6, r7}
 80060cc:	46bb      	mov	fp, r7
 80060ce:	46b2      	mov	sl, r6
 80060d0:	46a9      	mov	r9, r5
 80060d2:	46a0      	mov	r8, r4
 80060d4:	bdf8      	pop	{r3, r4, r5, r6, r7, pc}
 80060d6:	1ab4      	subs	r4, r6, r2
 80060d8:	46a4      	mov	ip, r4
 80060da:	2c00      	cmp	r4, #0
 80060dc:	dd58      	ble.n	8006190 <__aeabi_dsub+0x218>
 80060de:	2a00      	cmp	r2, #0
 80060e0:	d100      	bne.n	80060e4 <__aeabi_dsub+0x16c>
 80060e2:	e09e      	b.n	8006222 <__aeabi_dsub+0x2aa>
 80060e4:	4a71      	ldr	r2, [pc, #452]	; (80062ac <__aeabi_dsub+0x334>)
 80060e6:	4296      	cmp	r6, r2
 80060e8:	d100      	bne.n	80060ec <__aeabi_dsub+0x174>
 80060ea:	e13b      	b.n	8006364 <__aeabi_dsub+0x3ec>
 80060ec:	2280      	movs	r2, #128	; 0x80
 80060ee:	0412      	lsls	r2, r2, #16
 80060f0:	4311      	orrs	r1, r2
 80060f2:	4662      	mov	r2, ip
 80060f4:	2a38      	cmp	r2, #56	; 0x38
 80060f6:	dd00      	ble.n	80060fa <__aeabi_dsub+0x182>
 80060f8:	e0c1      	b.n	800627e <__aeabi_dsub+0x306>
 80060fa:	2a1f      	cmp	r2, #31
 80060fc:	dc00      	bgt.n	8006100 <__aeabi_dsub+0x188>
 80060fe:	e1bb      	b.n	8006478 <__aeabi_dsub+0x500>
 8006100:	000c      	movs	r4, r1
 8006102:	3a20      	subs	r2, #32
 8006104:	40d4      	lsrs	r4, r2
 8006106:	0022      	movs	r2, r4
 8006108:	4664      	mov	r4, ip
 800610a:	2c20      	cmp	r4, #32
 800610c:	d004      	beq.n	8006118 <__aeabi_dsub+0x1a0>
 800610e:	2740      	movs	r7, #64	; 0x40
 8006110:	1b3f      	subs	r7, r7, r4
 8006112:	40b9      	lsls	r1, r7
 8006114:	4308      	orrs	r0, r1
 8006116:	4680      	mov	r8, r0
 8006118:	4644      	mov	r4, r8
 800611a:	1e61      	subs	r1, r4, #1
 800611c:	418c      	sbcs	r4, r1
 800611e:	4314      	orrs	r4, r2
 8006120:	e0b1      	b.n	8006286 <__aeabi_dsub+0x30e>
 8006122:	000c      	movs	r4, r1
 8006124:	4304      	orrs	r4, r0
 8006126:	d02a      	beq.n	800617e <__aeabi_dsub+0x206>
 8006128:	46bb      	mov	fp, r7
 800612a:	42bd      	cmp	r5, r7
 800612c:	d02d      	beq.n	800618a <__aeabi_dsub+0x212>
 800612e:	4c61      	ldr	r4, [pc, #388]	; (80062b4 <__aeabi_dsub+0x33c>)
 8006130:	46a4      	mov	ip, r4
 8006132:	44b4      	add	ip, r6
 8006134:	4664      	mov	r4, ip
 8006136:	2c00      	cmp	r4, #0
 8006138:	d05c      	beq.n	80061f4 <__aeabi_dsub+0x27c>
 800613a:	1b94      	subs	r4, r2, r6
 800613c:	46a4      	mov	ip, r4
 800613e:	2e00      	cmp	r6, #0
 8006140:	d000      	beq.n	8006144 <__aeabi_dsub+0x1cc>
 8006142:	e115      	b.n	8006370 <__aeabi_dsub+0x3f8>
 8006144:	464d      	mov	r5, r9
 8006146:	431d      	orrs	r5, r3
 8006148:	d100      	bne.n	800614c <__aeabi_dsub+0x1d4>
 800614a:	e1c3      	b.n	80064d4 <__aeabi_dsub+0x55c>
 800614c:	1e65      	subs	r5, r4, #1
 800614e:	2c01      	cmp	r4, #1
 8006150:	d100      	bne.n	8006154 <__aeabi_dsub+0x1dc>
 8006152:	e20c      	b.n	800656e <__aeabi_dsub+0x5f6>
 8006154:	4e55      	ldr	r6, [pc, #340]	; (80062ac <__aeabi_dsub+0x334>)
 8006156:	42b4      	cmp	r4, r6
 8006158:	d100      	bne.n	800615c <__aeabi_dsub+0x1e4>
 800615a:	e1f8      	b.n	800654e <__aeabi_dsub+0x5d6>
 800615c:	46ac      	mov	ip, r5
 800615e:	e10e      	b.n	800637e <__aeabi_dsub+0x406>
 8006160:	000a      	movs	r2, r1
 8006162:	4302      	orrs	r2, r0
 8006164:	d100      	bne.n	8006168 <__aeabi_dsub+0x1f0>
 8006166:	e136      	b.n	80063d6 <__aeabi_dsub+0x45e>
 8006168:	0022      	movs	r2, r4
 800616a:	3a01      	subs	r2, #1
 800616c:	2c01      	cmp	r4, #1
 800616e:	d100      	bne.n	8006172 <__aeabi_dsub+0x1fa>
 8006170:	e1c6      	b.n	8006500 <__aeabi_dsub+0x588>
 8006172:	4c4e      	ldr	r4, [pc, #312]	; (80062ac <__aeabi_dsub+0x334>)
 8006174:	45a4      	cmp	ip, r4
 8006176:	d100      	bne.n	800617a <__aeabi_dsub+0x202>
 8006178:	e0f4      	b.n	8006364 <__aeabi_dsub+0x3ec>
 800617a:	4694      	mov	ip, r2
 800617c:	e731      	b.n	8005fe2 <__aeabi_dsub+0x6a>
 800617e:	2401      	movs	r4, #1
 8006180:	4067      	eors	r7, r4
 8006182:	46bb      	mov	fp, r7
 8006184:	42bd      	cmp	r5, r7
 8006186:	d000      	beq.n	800618a <__aeabi_dsub+0x212>
 8006188:	e71c      	b.n	8005fc4 <__aeabi_dsub+0x4c>
 800618a:	4c4a      	ldr	r4, [pc, #296]	; (80062b4 <__aeabi_dsub+0x33c>)
 800618c:	46a4      	mov	ip, r4
 800618e:	44b4      	add	ip, r6
 8006190:	4664      	mov	r4, ip
 8006192:	2c00      	cmp	r4, #0
 8006194:	d100      	bne.n	8006198 <__aeabi_dsub+0x220>
 8006196:	e0cf      	b.n	8006338 <__aeabi_dsub+0x3c0>
 8006198:	1b94      	subs	r4, r2, r6
 800619a:	46a4      	mov	ip, r4
 800619c:	2e00      	cmp	r6, #0
 800619e:	d100      	bne.n	80061a2 <__aeabi_dsub+0x22a>
 80061a0:	e15c      	b.n	800645c <__aeabi_dsub+0x4e4>
 80061a2:	4e42      	ldr	r6, [pc, #264]	; (80062ac <__aeabi_dsub+0x334>)
 80061a4:	42b2      	cmp	r2, r6
 80061a6:	d100      	bne.n	80061aa <__aeabi_dsub+0x232>
 80061a8:	e1ec      	b.n	8006584 <__aeabi_dsub+0x60c>
 80061aa:	2680      	movs	r6, #128	; 0x80
 80061ac:	0436      	lsls	r6, r6, #16
 80061ae:	4333      	orrs	r3, r6
 80061b0:	4664      	mov	r4, ip
 80061b2:	2c38      	cmp	r4, #56	; 0x38
 80061b4:	dd00      	ble.n	80061b8 <__aeabi_dsub+0x240>
 80061b6:	e1b3      	b.n	8006520 <__aeabi_dsub+0x5a8>
 80061b8:	2c1f      	cmp	r4, #31
 80061ba:	dd00      	ble.n	80061be <__aeabi_dsub+0x246>
 80061bc:	e238      	b.n	8006630 <__aeabi_dsub+0x6b8>
 80061be:	2620      	movs	r6, #32
 80061c0:	1b36      	subs	r6, r6, r4
 80061c2:	001c      	movs	r4, r3
 80061c4:	40b4      	lsls	r4, r6
 80061c6:	464f      	mov	r7, r9
 80061c8:	46a0      	mov	r8, r4
 80061ca:	4664      	mov	r4, ip
 80061cc:	40e7      	lsrs	r7, r4
 80061ce:	4644      	mov	r4, r8
 80061d0:	433c      	orrs	r4, r7
 80061d2:	464f      	mov	r7, r9
 80061d4:	40b7      	lsls	r7, r6
 80061d6:	003e      	movs	r6, r7
 80061d8:	1e77      	subs	r7, r6, #1
 80061da:	41be      	sbcs	r6, r7
 80061dc:	4334      	orrs	r4, r6
 80061de:	4666      	mov	r6, ip
 80061e0:	40f3      	lsrs	r3, r6
 80061e2:	18c9      	adds	r1, r1, r3
 80061e4:	1824      	adds	r4, r4, r0
 80061e6:	4284      	cmp	r4, r0
 80061e8:	419b      	sbcs	r3, r3
 80061ea:	425b      	negs	r3, r3
 80061ec:	4698      	mov	r8, r3
 80061ee:	0016      	movs	r6, r2
 80061f0:	4488      	add	r8, r1
 80061f2:	e04e      	b.n	8006292 <__aeabi_dsub+0x31a>
 80061f4:	4a30      	ldr	r2, [pc, #192]	; (80062b8 <__aeabi_dsub+0x340>)
 80061f6:	1c74      	adds	r4, r6, #1
 80061f8:	4214      	tst	r4, r2
 80061fa:	d000      	beq.n	80061fe <__aeabi_dsub+0x286>
 80061fc:	e0d6      	b.n	80063ac <__aeabi_dsub+0x434>
 80061fe:	464a      	mov	r2, r9
 8006200:	431a      	orrs	r2, r3
 8006202:	2e00      	cmp	r6, #0
 8006204:	d000      	beq.n	8006208 <__aeabi_dsub+0x290>
 8006206:	e15b      	b.n	80064c0 <__aeabi_dsub+0x548>
 8006208:	2a00      	cmp	r2, #0
 800620a:	d100      	bne.n	800620e <__aeabi_dsub+0x296>
 800620c:	e1a5      	b.n	800655a <__aeabi_dsub+0x5e2>
 800620e:	000a      	movs	r2, r1
 8006210:	4302      	orrs	r2, r0
 8006212:	d000      	beq.n	8006216 <__aeabi_dsub+0x29e>
 8006214:	e1bb      	b.n	800658e <__aeabi_dsub+0x616>
 8006216:	464a      	mov	r2, r9
 8006218:	0759      	lsls	r1, r3, #29
 800621a:	08d2      	lsrs	r2, r2, #3
 800621c:	430a      	orrs	r2, r1
 800621e:	08db      	lsrs	r3, r3, #3
 8006220:	e027      	b.n	8006272 <__aeabi_dsub+0x2fa>
 8006222:	000a      	movs	r2, r1
 8006224:	4302      	orrs	r2, r0
 8006226:	d100      	bne.n	800622a <__aeabi_dsub+0x2b2>
 8006228:	e174      	b.n	8006514 <__aeabi_dsub+0x59c>
 800622a:	0022      	movs	r2, r4
 800622c:	3a01      	subs	r2, #1
 800622e:	2c01      	cmp	r4, #1
 8006230:	d005      	beq.n	800623e <__aeabi_dsub+0x2c6>
 8006232:	4c1e      	ldr	r4, [pc, #120]	; (80062ac <__aeabi_dsub+0x334>)
 8006234:	45a4      	cmp	ip, r4
 8006236:	d100      	bne.n	800623a <__aeabi_dsub+0x2c2>
 8006238:	e094      	b.n	8006364 <__aeabi_dsub+0x3ec>
 800623a:	4694      	mov	ip, r2
 800623c:	e759      	b.n	80060f2 <__aeabi_dsub+0x17a>
 800623e:	4448      	add	r0, r9
 8006240:	4548      	cmp	r0, r9
 8006242:	4192      	sbcs	r2, r2
 8006244:	185b      	adds	r3, r3, r1
 8006246:	4698      	mov	r8, r3
 8006248:	0004      	movs	r4, r0
 800624a:	4252      	negs	r2, r2
 800624c:	4490      	add	r8, r2
 800624e:	4643      	mov	r3, r8
 8006250:	2602      	movs	r6, #2
 8006252:	021b      	lsls	r3, r3, #8
 8006254:	d500      	bpl.n	8006258 <__aeabi_dsub+0x2e0>
 8006256:	e0c4      	b.n	80063e2 <__aeabi_dsub+0x46a>
 8006258:	3e01      	subs	r6, #1
 800625a:	0763      	lsls	r3, r4, #29
 800625c:	d000      	beq.n	8006260 <__aeabi_dsub+0x2e8>
 800625e:	e711      	b.n	8006084 <__aeabi_dsub+0x10c>
 8006260:	4643      	mov	r3, r8
 8006262:	46b4      	mov	ip, r6
 8006264:	0759      	lsls	r1, r3, #29
 8006266:	08e2      	lsrs	r2, r4, #3
 8006268:	430a      	orrs	r2, r1
 800626a:	08db      	lsrs	r3, r3, #3
 800626c:	490f      	ldr	r1, [pc, #60]	; (80062ac <__aeabi_dsub+0x334>)
 800626e:	458c      	cmp	ip, r1
 8006270:	d040      	beq.n	80062f4 <__aeabi_dsub+0x37c>
 8006272:	4661      	mov	r1, ip
 8006274:	031b      	lsls	r3, r3, #12
 8006276:	0549      	lsls	r1, r1, #21
 8006278:	0b1b      	lsrs	r3, r3, #12
 800627a:	0d49      	lsrs	r1, r1, #21
 800627c:	e720      	b.n	80060c0 <__aeabi_dsub+0x148>
 800627e:	4301      	orrs	r1, r0
 8006280:	000c      	movs	r4, r1
 8006282:	1e61      	subs	r1, r4, #1
 8006284:	418c      	sbcs	r4, r1
 8006286:	444c      	add	r4, r9
 8006288:	454c      	cmp	r4, r9
 800628a:	4192      	sbcs	r2, r2
 800628c:	4252      	negs	r2, r2
 800628e:	4690      	mov	r8, r2
 8006290:	4498      	add	r8, r3
 8006292:	4643      	mov	r3, r8
 8006294:	021b      	lsls	r3, r3, #8
 8006296:	d5e0      	bpl.n	800625a <__aeabi_dsub+0x2e2>
 8006298:	4b04      	ldr	r3, [pc, #16]	; (80062ac <__aeabi_dsub+0x334>)
 800629a:	3601      	adds	r6, #1
 800629c:	429e      	cmp	r6, r3
 800629e:	d000      	beq.n	80062a2 <__aeabi_dsub+0x32a>
 80062a0:	e09f      	b.n	80063e2 <__aeabi_dsub+0x46a>
 80062a2:	0031      	movs	r1, r6
 80062a4:	2300      	movs	r3, #0
 80062a6:	2200      	movs	r2, #0
 80062a8:	e70a      	b.n	80060c0 <__aeabi_dsub+0x148>
 80062aa:	46c0      	nop			; (mov r8, r8)
 80062ac:	000007ff 	.word	0x000007ff
 80062b0:	ff7fffff 	.word	0xff7fffff
 80062b4:	fffff801 	.word	0xfffff801
 80062b8:	000007fe 	.word	0x000007fe
 80062bc:	2a00      	cmp	r2, #0
 80062be:	d100      	bne.n	80062c2 <__aeabi_dsub+0x34a>
 80062c0:	e160      	b.n	8006584 <__aeabi_dsub+0x60c>
 80062c2:	000a      	movs	r2, r1
 80062c4:	4302      	orrs	r2, r0
 80062c6:	d04d      	beq.n	8006364 <__aeabi_dsub+0x3ec>
 80062c8:	464a      	mov	r2, r9
 80062ca:	075c      	lsls	r4, r3, #29
 80062cc:	08d2      	lsrs	r2, r2, #3
 80062ce:	4322      	orrs	r2, r4
 80062d0:	2480      	movs	r4, #128	; 0x80
 80062d2:	08db      	lsrs	r3, r3, #3
 80062d4:	0324      	lsls	r4, r4, #12
 80062d6:	4223      	tst	r3, r4
 80062d8:	d007      	beq.n	80062ea <__aeabi_dsub+0x372>
 80062da:	08ce      	lsrs	r6, r1, #3
 80062dc:	4226      	tst	r6, r4
 80062de:	d104      	bne.n	80062ea <__aeabi_dsub+0x372>
 80062e0:	465d      	mov	r5, fp
 80062e2:	0033      	movs	r3, r6
 80062e4:	08c2      	lsrs	r2, r0, #3
 80062e6:	0749      	lsls	r1, r1, #29
 80062e8:	430a      	orrs	r2, r1
 80062ea:	0f51      	lsrs	r1, r2, #29
 80062ec:	00d2      	lsls	r2, r2, #3
 80062ee:	08d2      	lsrs	r2, r2, #3
 80062f0:	0749      	lsls	r1, r1, #29
 80062f2:	430a      	orrs	r2, r1
 80062f4:	0011      	movs	r1, r2
 80062f6:	4319      	orrs	r1, r3
 80062f8:	d100      	bne.n	80062fc <__aeabi_dsub+0x384>
 80062fa:	e1c8      	b.n	800668e <__aeabi_dsub+0x716>
 80062fc:	2180      	movs	r1, #128	; 0x80
 80062fe:	0309      	lsls	r1, r1, #12
 8006300:	430b      	orrs	r3, r1
 8006302:	031b      	lsls	r3, r3, #12
 8006304:	49d5      	ldr	r1, [pc, #852]	; (800665c <__aeabi_dsub+0x6e4>)
 8006306:	0b1b      	lsrs	r3, r3, #12
 8006308:	e6da      	b.n	80060c0 <__aeabi_dsub+0x148>
 800630a:	49d5      	ldr	r1, [pc, #852]	; (8006660 <__aeabi_dsub+0x6e8>)
 800630c:	1ab6      	subs	r6, r6, r2
 800630e:	400b      	ands	r3, r1
 8006310:	4698      	mov	r8, r3
 8006312:	e6b5      	b.n	8006080 <__aeabi_dsub+0x108>
 8006314:	0020      	movs	r0, r4
 8006316:	f000 fa4d 	bl	80067b4 <__clzsi2>
 800631a:	0002      	movs	r2, r0
 800631c:	3218      	adds	r2, #24
 800631e:	2a1f      	cmp	r2, #31
 8006320:	dc00      	bgt.n	8006324 <__aeabi_dsub+0x3ac>
 8006322:	e68f      	b.n	8006044 <__aeabi_dsub+0xcc>
 8006324:	0023      	movs	r3, r4
 8006326:	3808      	subs	r0, #8
 8006328:	4083      	lsls	r3, r0
 800632a:	2400      	movs	r4, #0
 800632c:	e692      	b.n	8006054 <__aeabi_dsub+0xdc>
 800632e:	4308      	orrs	r0, r1
 8006330:	0002      	movs	r2, r0
 8006332:	1e50      	subs	r0, r2, #1
 8006334:	4182      	sbcs	r2, r0
 8006336:	e66d      	b.n	8006014 <__aeabi_dsub+0x9c>
 8006338:	4cca      	ldr	r4, [pc, #808]	; (8006664 <__aeabi_dsub+0x6ec>)
 800633a:	1c72      	adds	r2, r6, #1
 800633c:	4222      	tst	r2, r4
 800633e:	d000      	beq.n	8006342 <__aeabi_dsub+0x3ca>
 8006340:	e0ad      	b.n	800649e <__aeabi_dsub+0x526>
 8006342:	464a      	mov	r2, r9
 8006344:	431a      	orrs	r2, r3
 8006346:	2e00      	cmp	r6, #0
 8006348:	d1b8      	bne.n	80062bc <__aeabi_dsub+0x344>
 800634a:	2a00      	cmp	r2, #0
 800634c:	d100      	bne.n	8006350 <__aeabi_dsub+0x3d8>
 800634e:	e158      	b.n	8006602 <__aeabi_dsub+0x68a>
 8006350:	000a      	movs	r2, r1
 8006352:	4302      	orrs	r2, r0
 8006354:	d000      	beq.n	8006358 <__aeabi_dsub+0x3e0>
 8006356:	e159      	b.n	800660c <__aeabi_dsub+0x694>
 8006358:	464a      	mov	r2, r9
 800635a:	0759      	lsls	r1, r3, #29
 800635c:	08d2      	lsrs	r2, r2, #3
 800635e:	430a      	orrs	r2, r1
 8006360:	08db      	lsrs	r3, r3, #3
 8006362:	e786      	b.n	8006272 <__aeabi_dsub+0x2fa>
 8006364:	464a      	mov	r2, r9
 8006366:	0759      	lsls	r1, r3, #29
 8006368:	08d2      	lsrs	r2, r2, #3
 800636a:	430a      	orrs	r2, r1
 800636c:	08db      	lsrs	r3, r3, #3
 800636e:	e7c1      	b.n	80062f4 <__aeabi_dsub+0x37c>
 8006370:	4dba      	ldr	r5, [pc, #744]	; (800665c <__aeabi_dsub+0x6e4>)
 8006372:	42aa      	cmp	r2, r5
 8006374:	d100      	bne.n	8006378 <__aeabi_dsub+0x400>
 8006376:	e11e      	b.n	80065b6 <__aeabi_dsub+0x63e>
 8006378:	2580      	movs	r5, #128	; 0x80
 800637a:	042d      	lsls	r5, r5, #16
 800637c:	432b      	orrs	r3, r5
 800637e:	4664      	mov	r4, ip
 8006380:	2c38      	cmp	r4, #56	; 0x38
 8006382:	dc5d      	bgt.n	8006440 <__aeabi_dsub+0x4c8>
 8006384:	2c1f      	cmp	r4, #31
 8006386:	dd00      	ble.n	800638a <__aeabi_dsub+0x412>
 8006388:	e0d0      	b.n	800652c <__aeabi_dsub+0x5b4>
 800638a:	2520      	movs	r5, #32
 800638c:	4667      	mov	r7, ip
 800638e:	1b2d      	subs	r5, r5, r4
 8006390:	464e      	mov	r6, r9
 8006392:	001c      	movs	r4, r3
 8006394:	40fe      	lsrs	r6, r7
 8006396:	40ac      	lsls	r4, r5
 8006398:	4334      	orrs	r4, r6
 800639a:	464e      	mov	r6, r9
 800639c:	40ae      	lsls	r6, r5
 800639e:	0035      	movs	r5, r6
 80063a0:	40fb      	lsrs	r3, r7
 80063a2:	1e6e      	subs	r6, r5, #1
 80063a4:	41b5      	sbcs	r5, r6
 80063a6:	1ac9      	subs	r1, r1, r3
 80063a8:	432c      	orrs	r4, r5
 80063aa:	e04e      	b.n	800644a <__aeabi_dsub+0x4d2>
 80063ac:	464a      	mov	r2, r9
 80063ae:	1a14      	subs	r4, r2, r0
 80063b0:	45a1      	cmp	r9, r4
 80063b2:	4192      	sbcs	r2, r2
 80063b4:	4252      	negs	r2, r2
 80063b6:	4690      	mov	r8, r2
 80063b8:	1a5f      	subs	r7, r3, r1
 80063ba:	003a      	movs	r2, r7
 80063bc:	4647      	mov	r7, r8
 80063be:	1bd2      	subs	r2, r2, r7
 80063c0:	4690      	mov	r8, r2
 80063c2:	0212      	lsls	r2, r2, #8
 80063c4:	d500      	bpl.n	80063c8 <__aeabi_dsub+0x450>
 80063c6:	e08b      	b.n	80064e0 <__aeabi_dsub+0x568>
 80063c8:	4642      	mov	r2, r8
 80063ca:	4322      	orrs	r2, r4
 80063cc:	d000      	beq.n	80063d0 <__aeabi_dsub+0x458>
 80063ce:	e630      	b.n	8006032 <__aeabi_dsub+0xba>
 80063d0:	2300      	movs	r3, #0
 80063d2:	2500      	movs	r5, #0
 80063d4:	e74d      	b.n	8006272 <__aeabi_dsub+0x2fa>
 80063d6:	464a      	mov	r2, r9
 80063d8:	0759      	lsls	r1, r3, #29
 80063da:	08d2      	lsrs	r2, r2, #3
 80063dc:	430a      	orrs	r2, r1
 80063de:	08db      	lsrs	r3, r3, #3
 80063e0:	e744      	b.n	800626c <__aeabi_dsub+0x2f4>
 80063e2:	4642      	mov	r2, r8
 80063e4:	4b9e      	ldr	r3, [pc, #632]	; (8006660 <__aeabi_dsub+0x6e8>)
 80063e6:	0861      	lsrs	r1, r4, #1
 80063e8:	401a      	ands	r2, r3
 80063ea:	0013      	movs	r3, r2
 80063ec:	2201      	movs	r2, #1
 80063ee:	4014      	ands	r4, r2
 80063f0:	430c      	orrs	r4, r1
 80063f2:	07da      	lsls	r2, r3, #31
 80063f4:	085b      	lsrs	r3, r3, #1
 80063f6:	4698      	mov	r8, r3
 80063f8:	4314      	orrs	r4, r2
 80063fa:	e641      	b.n	8006080 <__aeabi_dsub+0x108>
 80063fc:	001a      	movs	r2, r3
 80063fe:	3e1f      	subs	r6, #31
 8006400:	40f2      	lsrs	r2, r6
 8006402:	0016      	movs	r6, r2
 8006404:	2920      	cmp	r1, #32
 8006406:	d003      	beq.n	8006410 <__aeabi_dsub+0x498>
 8006408:	2240      	movs	r2, #64	; 0x40
 800640a:	1a51      	subs	r1, r2, r1
 800640c:	408b      	lsls	r3, r1
 800640e:	431c      	orrs	r4, r3
 8006410:	1e62      	subs	r2, r4, #1
 8006412:	4194      	sbcs	r4, r2
 8006414:	2300      	movs	r3, #0
 8006416:	4334      	orrs	r4, r6
 8006418:	4698      	mov	r8, r3
 800641a:	2600      	movs	r6, #0
 800641c:	e71d      	b.n	800625a <__aeabi_dsub+0x2e2>
 800641e:	000c      	movs	r4, r1
 8006420:	3a20      	subs	r2, #32
 8006422:	40d4      	lsrs	r4, r2
 8006424:	0022      	movs	r2, r4
 8006426:	4664      	mov	r4, ip
 8006428:	2c20      	cmp	r4, #32
 800642a:	d004      	beq.n	8006436 <__aeabi_dsub+0x4be>
 800642c:	2740      	movs	r7, #64	; 0x40
 800642e:	1b3f      	subs	r7, r7, r4
 8006430:	40b9      	lsls	r1, r7
 8006432:	4308      	orrs	r0, r1
 8006434:	4680      	mov	r8, r0
 8006436:	4644      	mov	r4, r8
 8006438:	1e61      	subs	r1, r4, #1
 800643a:	418c      	sbcs	r4, r1
 800643c:	4322      	orrs	r2, r4
 800643e:	e5e9      	b.n	8006014 <__aeabi_dsub+0x9c>
 8006440:	464c      	mov	r4, r9
 8006442:	4323      	orrs	r3, r4
 8006444:	001c      	movs	r4, r3
 8006446:	1e63      	subs	r3, r4, #1
 8006448:	419c      	sbcs	r4, r3
 800644a:	1b04      	subs	r4, r0, r4
 800644c:	42a0      	cmp	r0, r4
 800644e:	419b      	sbcs	r3, r3
 8006450:	425b      	negs	r3, r3
 8006452:	1acb      	subs	r3, r1, r3
 8006454:	4698      	mov	r8, r3
 8006456:	465d      	mov	r5, fp
 8006458:	0016      	movs	r6, r2
 800645a:	e5e2      	b.n	8006022 <__aeabi_dsub+0xaa>
 800645c:	464e      	mov	r6, r9
 800645e:	431e      	orrs	r6, r3
 8006460:	d100      	bne.n	8006464 <__aeabi_dsub+0x4ec>
 8006462:	e0ae      	b.n	80065c2 <__aeabi_dsub+0x64a>
 8006464:	1e66      	subs	r6, r4, #1
 8006466:	2c01      	cmp	r4, #1
 8006468:	d100      	bne.n	800646c <__aeabi_dsub+0x4f4>
 800646a:	e0fd      	b.n	8006668 <__aeabi_dsub+0x6f0>
 800646c:	4f7b      	ldr	r7, [pc, #492]	; (800665c <__aeabi_dsub+0x6e4>)
 800646e:	42bc      	cmp	r4, r7
 8006470:	d100      	bne.n	8006474 <__aeabi_dsub+0x4fc>
 8006472:	e107      	b.n	8006684 <__aeabi_dsub+0x70c>
 8006474:	46b4      	mov	ip, r6
 8006476:	e69b      	b.n	80061b0 <__aeabi_dsub+0x238>
 8006478:	4664      	mov	r4, ip
 800647a:	2220      	movs	r2, #32
 800647c:	1b12      	subs	r2, r2, r4
 800647e:	000c      	movs	r4, r1
 8006480:	4094      	lsls	r4, r2
 8006482:	0007      	movs	r7, r0
 8006484:	4090      	lsls	r0, r2
 8006486:	46a0      	mov	r8, r4
 8006488:	4664      	mov	r4, ip
 800648a:	1e42      	subs	r2, r0, #1
 800648c:	4190      	sbcs	r0, r2
 800648e:	4662      	mov	r2, ip
 8006490:	40e7      	lsrs	r7, r4
 8006492:	4644      	mov	r4, r8
 8006494:	40d1      	lsrs	r1, r2
 8006496:	433c      	orrs	r4, r7
 8006498:	4304      	orrs	r4, r0
 800649a:	185b      	adds	r3, r3, r1
 800649c:	e6f3      	b.n	8006286 <__aeabi_dsub+0x30e>
 800649e:	4c6f      	ldr	r4, [pc, #444]	; (800665c <__aeabi_dsub+0x6e4>)
 80064a0:	42a2      	cmp	r2, r4
 80064a2:	d100      	bne.n	80064a6 <__aeabi_dsub+0x52e>
 80064a4:	e0d5      	b.n	8006652 <__aeabi_dsub+0x6da>
 80064a6:	4448      	add	r0, r9
 80064a8:	185b      	adds	r3, r3, r1
 80064aa:	4548      	cmp	r0, r9
 80064ac:	4189      	sbcs	r1, r1
 80064ae:	4249      	negs	r1, r1
 80064b0:	185b      	adds	r3, r3, r1
 80064b2:	07dc      	lsls	r4, r3, #31
 80064b4:	0840      	lsrs	r0, r0, #1
 80064b6:	085b      	lsrs	r3, r3, #1
 80064b8:	4698      	mov	r8, r3
 80064ba:	0016      	movs	r6, r2
 80064bc:	4304      	orrs	r4, r0
 80064be:	e6cc      	b.n	800625a <__aeabi_dsub+0x2e2>
 80064c0:	2a00      	cmp	r2, #0
 80064c2:	d000      	beq.n	80064c6 <__aeabi_dsub+0x54e>
 80064c4:	e082      	b.n	80065cc <__aeabi_dsub+0x654>
 80064c6:	000a      	movs	r2, r1
 80064c8:	4302      	orrs	r2, r0
 80064ca:	d140      	bne.n	800654e <__aeabi_dsub+0x5d6>
 80064cc:	2380      	movs	r3, #128	; 0x80
 80064ce:	2500      	movs	r5, #0
 80064d0:	031b      	lsls	r3, r3, #12
 80064d2:	e713      	b.n	80062fc <__aeabi_dsub+0x384>
 80064d4:	074b      	lsls	r3, r1, #29
 80064d6:	08c2      	lsrs	r2, r0, #3
 80064d8:	431a      	orrs	r2, r3
 80064da:	465d      	mov	r5, fp
 80064dc:	08cb      	lsrs	r3, r1, #3
 80064de:	e6c5      	b.n	800626c <__aeabi_dsub+0x2f4>
 80064e0:	464a      	mov	r2, r9
 80064e2:	1a84      	subs	r4, r0, r2
 80064e4:	42a0      	cmp	r0, r4
 80064e6:	4192      	sbcs	r2, r2
 80064e8:	1acb      	subs	r3, r1, r3
 80064ea:	4252      	negs	r2, r2
 80064ec:	1a9b      	subs	r3, r3, r2
 80064ee:	4698      	mov	r8, r3
 80064f0:	465d      	mov	r5, fp
 80064f2:	e59e      	b.n	8006032 <__aeabi_dsub+0xba>
 80064f4:	464a      	mov	r2, r9
 80064f6:	0759      	lsls	r1, r3, #29
 80064f8:	08d2      	lsrs	r2, r2, #3
 80064fa:	430a      	orrs	r2, r1
 80064fc:	08db      	lsrs	r3, r3, #3
 80064fe:	e6f9      	b.n	80062f4 <__aeabi_dsub+0x37c>
 8006500:	464a      	mov	r2, r9
 8006502:	1a14      	subs	r4, r2, r0
 8006504:	45a1      	cmp	r9, r4
 8006506:	4192      	sbcs	r2, r2
 8006508:	1a5b      	subs	r3, r3, r1
 800650a:	4252      	negs	r2, r2
 800650c:	1a9b      	subs	r3, r3, r2
 800650e:	4698      	mov	r8, r3
 8006510:	2601      	movs	r6, #1
 8006512:	e586      	b.n	8006022 <__aeabi_dsub+0xaa>
 8006514:	464a      	mov	r2, r9
 8006516:	0759      	lsls	r1, r3, #29
 8006518:	08d2      	lsrs	r2, r2, #3
 800651a:	430a      	orrs	r2, r1
 800651c:	08db      	lsrs	r3, r3, #3
 800651e:	e6a5      	b.n	800626c <__aeabi_dsub+0x2f4>
 8006520:	464c      	mov	r4, r9
 8006522:	4323      	orrs	r3, r4
 8006524:	001c      	movs	r4, r3
 8006526:	1e63      	subs	r3, r4, #1
 8006528:	419c      	sbcs	r4, r3
 800652a:	e65b      	b.n	80061e4 <__aeabi_dsub+0x26c>
 800652c:	4665      	mov	r5, ip
 800652e:	001e      	movs	r6, r3
 8006530:	3d20      	subs	r5, #32
 8006532:	40ee      	lsrs	r6, r5
 8006534:	2c20      	cmp	r4, #32
 8006536:	d005      	beq.n	8006544 <__aeabi_dsub+0x5cc>
 8006538:	2540      	movs	r5, #64	; 0x40
 800653a:	1b2d      	subs	r5, r5, r4
 800653c:	40ab      	lsls	r3, r5
 800653e:	464c      	mov	r4, r9
 8006540:	431c      	orrs	r4, r3
 8006542:	46a2      	mov	sl, r4
 8006544:	4654      	mov	r4, sl
 8006546:	1e63      	subs	r3, r4, #1
 8006548:	419c      	sbcs	r4, r3
 800654a:	4334      	orrs	r4, r6
 800654c:	e77d      	b.n	800644a <__aeabi_dsub+0x4d2>
 800654e:	074b      	lsls	r3, r1, #29
 8006550:	08c2      	lsrs	r2, r0, #3
 8006552:	431a      	orrs	r2, r3
 8006554:	465d      	mov	r5, fp
 8006556:	08cb      	lsrs	r3, r1, #3
 8006558:	e6cc      	b.n	80062f4 <__aeabi_dsub+0x37c>
 800655a:	000a      	movs	r2, r1
 800655c:	4302      	orrs	r2, r0
 800655e:	d100      	bne.n	8006562 <__aeabi_dsub+0x5ea>
 8006560:	e736      	b.n	80063d0 <__aeabi_dsub+0x458>
 8006562:	074b      	lsls	r3, r1, #29
 8006564:	08c2      	lsrs	r2, r0, #3
 8006566:	431a      	orrs	r2, r3
 8006568:	465d      	mov	r5, fp
 800656a:	08cb      	lsrs	r3, r1, #3
 800656c:	e681      	b.n	8006272 <__aeabi_dsub+0x2fa>
 800656e:	464a      	mov	r2, r9
 8006570:	1a84      	subs	r4, r0, r2
 8006572:	42a0      	cmp	r0, r4
 8006574:	4192      	sbcs	r2, r2
 8006576:	1acb      	subs	r3, r1, r3
 8006578:	4252      	negs	r2, r2
 800657a:	1a9b      	subs	r3, r3, r2
 800657c:	4698      	mov	r8, r3
 800657e:	465d      	mov	r5, fp
 8006580:	2601      	movs	r6, #1
 8006582:	e54e      	b.n	8006022 <__aeabi_dsub+0xaa>
 8006584:	074b      	lsls	r3, r1, #29
 8006586:	08c2      	lsrs	r2, r0, #3
 8006588:	431a      	orrs	r2, r3
 800658a:	08cb      	lsrs	r3, r1, #3
 800658c:	e6b2      	b.n	80062f4 <__aeabi_dsub+0x37c>
 800658e:	464a      	mov	r2, r9
 8006590:	1a14      	subs	r4, r2, r0
 8006592:	45a1      	cmp	r9, r4
 8006594:	4192      	sbcs	r2, r2
 8006596:	1a5f      	subs	r7, r3, r1
 8006598:	4252      	negs	r2, r2
 800659a:	1aba      	subs	r2, r7, r2
 800659c:	4690      	mov	r8, r2
 800659e:	0212      	lsls	r2, r2, #8
 80065a0:	d56b      	bpl.n	800667a <__aeabi_dsub+0x702>
 80065a2:	464a      	mov	r2, r9
 80065a4:	1a84      	subs	r4, r0, r2
 80065a6:	42a0      	cmp	r0, r4
 80065a8:	4192      	sbcs	r2, r2
 80065aa:	1acb      	subs	r3, r1, r3
 80065ac:	4252      	negs	r2, r2
 80065ae:	1a9b      	subs	r3, r3, r2
 80065b0:	4698      	mov	r8, r3
 80065b2:	465d      	mov	r5, fp
 80065b4:	e564      	b.n	8006080 <__aeabi_dsub+0x108>
 80065b6:	074b      	lsls	r3, r1, #29
 80065b8:	08c2      	lsrs	r2, r0, #3
 80065ba:	431a      	orrs	r2, r3
 80065bc:	465d      	mov	r5, fp
 80065be:	08cb      	lsrs	r3, r1, #3
 80065c0:	e698      	b.n	80062f4 <__aeabi_dsub+0x37c>
 80065c2:	074b      	lsls	r3, r1, #29
 80065c4:	08c2      	lsrs	r2, r0, #3
 80065c6:	431a      	orrs	r2, r3
 80065c8:	08cb      	lsrs	r3, r1, #3
 80065ca:	e64f      	b.n	800626c <__aeabi_dsub+0x2f4>
 80065cc:	000a      	movs	r2, r1
 80065ce:	4302      	orrs	r2, r0
 80065d0:	d090      	beq.n	80064f4 <__aeabi_dsub+0x57c>
 80065d2:	464a      	mov	r2, r9
 80065d4:	075c      	lsls	r4, r3, #29
 80065d6:	08d2      	lsrs	r2, r2, #3
 80065d8:	4314      	orrs	r4, r2
 80065da:	2280      	movs	r2, #128	; 0x80
 80065dc:	08db      	lsrs	r3, r3, #3
 80065de:	0312      	lsls	r2, r2, #12
 80065e0:	4213      	tst	r3, r2
 80065e2:	d008      	beq.n	80065f6 <__aeabi_dsub+0x67e>
 80065e4:	08ce      	lsrs	r6, r1, #3
 80065e6:	4216      	tst	r6, r2
 80065e8:	d105      	bne.n	80065f6 <__aeabi_dsub+0x67e>
 80065ea:	08c0      	lsrs	r0, r0, #3
 80065ec:	0749      	lsls	r1, r1, #29
 80065ee:	4308      	orrs	r0, r1
 80065f0:	0004      	movs	r4, r0
 80065f2:	465d      	mov	r5, fp
 80065f4:	0033      	movs	r3, r6
 80065f6:	0f61      	lsrs	r1, r4, #29
 80065f8:	00e2      	lsls	r2, r4, #3
 80065fa:	0749      	lsls	r1, r1, #29
 80065fc:	08d2      	lsrs	r2, r2, #3
 80065fe:	430a      	orrs	r2, r1
 8006600:	e678      	b.n	80062f4 <__aeabi_dsub+0x37c>
 8006602:	074b      	lsls	r3, r1, #29
 8006604:	08c2      	lsrs	r2, r0, #3
 8006606:	431a      	orrs	r2, r3
 8006608:	08cb      	lsrs	r3, r1, #3
 800660a:	e632      	b.n	8006272 <__aeabi_dsub+0x2fa>
 800660c:	4448      	add	r0, r9
 800660e:	185b      	adds	r3, r3, r1
 8006610:	4548      	cmp	r0, r9
 8006612:	4192      	sbcs	r2, r2
 8006614:	4698      	mov	r8, r3
 8006616:	4252      	negs	r2, r2
 8006618:	4490      	add	r8, r2
 800661a:	4643      	mov	r3, r8
 800661c:	0004      	movs	r4, r0
 800661e:	021b      	lsls	r3, r3, #8
 8006620:	d400      	bmi.n	8006624 <__aeabi_dsub+0x6ac>
 8006622:	e61a      	b.n	800625a <__aeabi_dsub+0x2e2>
 8006624:	4642      	mov	r2, r8
 8006626:	4b0e      	ldr	r3, [pc, #56]	; (8006660 <__aeabi_dsub+0x6e8>)
 8006628:	2601      	movs	r6, #1
 800662a:	401a      	ands	r2, r3
 800662c:	4690      	mov	r8, r2
 800662e:	e614      	b.n	800625a <__aeabi_dsub+0x2e2>
 8006630:	4666      	mov	r6, ip
 8006632:	001f      	movs	r7, r3
 8006634:	3e20      	subs	r6, #32
 8006636:	40f7      	lsrs	r7, r6
 8006638:	2c20      	cmp	r4, #32
 800663a:	d005      	beq.n	8006648 <__aeabi_dsub+0x6d0>
 800663c:	2640      	movs	r6, #64	; 0x40
 800663e:	1b36      	subs	r6, r6, r4
 8006640:	40b3      	lsls	r3, r6
 8006642:	464c      	mov	r4, r9
 8006644:	431c      	orrs	r4, r3
 8006646:	46a2      	mov	sl, r4
 8006648:	4654      	mov	r4, sl
 800664a:	1e63      	subs	r3, r4, #1
 800664c:	419c      	sbcs	r4, r3
 800664e:	433c      	orrs	r4, r7
 8006650:	e5c8      	b.n	80061e4 <__aeabi_dsub+0x26c>
 8006652:	0011      	movs	r1, r2
 8006654:	2300      	movs	r3, #0
 8006656:	2200      	movs	r2, #0
 8006658:	e532      	b.n	80060c0 <__aeabi_dsub+0x148>
 800665a:	46c0      	nop			; (mov r8, r8)
 800665c:	000007ff 	.word	0x000007ff
 8006660:	ff7fffff 	.word	0xff7fffff
 8006664:	000007fe 	.word	0x000007fe
 8006668:	464a      	mov	r2, r9
 800666a:	1814      	adds	r4, r2, r0
 800666c:	4284      	cmp	r4, r0
 800666e:	4192      	sbcs	r2, r2
 8006670:	185b      	adds	r3, r3, r1
 8006672:	4698      	mov	r8, r3
 8006674:	4252      	negs	r2, r2
 8006676:	4490      	add	r8, r2
 8006678:	e5e9      	b.n	800624e <__aeabi_dsub+0x2d6>
 800667a:	4642      	mov	r2, r8
 800667c:	4322      	orrs	r2, r4
 800667e:	d100      	bne.n	8006682 <__aeabi_dsub+0x70a>
 8006680:	e6a6      	b.n	80063d0 <__aeabi_dsub+0x458>
 8006682:	e5ea      	b.n	800625a <__aeabi_dsub+0x2e2>
 8006684:	074b      	lsls	r3, r1, #29
 8006686:	08c2      	lsrs	r2, r0, #3
 8006688:	431a      	orrs	r2, r3
 800668a:	08cb      	lsrs	r3, r1, #3
 800668c:	e632      	b.n	80062f4 <__aeabi_dsub+0x37c>
 800668e:	2200      	movs	r2, #0
 8006690:	4901      	ldr	r1, [pc, #4]	; (8006698 <__aeabi_dsub+0x720>)
 8006692:	0013      	movs	r3, r2
 8006694:	e514      	b.n	80060c0 <__aeabi_dsub+0x148>
 8006696:	46c0      	nop			; (mov r8, r8)
 8006698:	000007ff 	.word	0x000007ff

0800669c <__aeabi_d2iz>:
 800669c:	000a      	movs	r2, r1
 800669e:	b530      	push	{r4, r5, lr}
 80066a0:	4c13      	ldr	r4, [pc, #76]	; (80066f0 <__aeabi_d2iz+0x54>)
 80066a2:	0053      	lsls	r3, r2, #1
 80066a4:	0309      	lsls	r1, r1, #12
 80066a6:	0005      	movs	r5, r0
 80066a8:	0b09      	lsrs	r1, r1, #12
 80066aa:	2000      	movs	r0, #0
 80066ac:	0d5b      	lsrs	r3, r3, #21
 80066ae:	0fd2      	lsrs	r2, r2, #31
 80066b0:	42a3      	cmp	r3, r4
 80066b2:	dd04      	ble.n	80066be <__aeabi_d2iz+0x22>
 80066b4:	480f      	ldr	r0, [pc, #60]	; (80066f4 <__aeabi_d2iz+0x58>)
 80066b6:	4283      	cmp	r3, r0
 80066b8:	dd02      	ble.n	80066c0 <__aeabi_d2iz+0x24>
 80066ba:	4b0f      	ldr	r3, [pc, #60]	; (80066f8 <__aeabi_d2iz+0x5c>)
 80066bc:	18d0      	adds	r0, r2, r3
 80066be:	bd30      	pop	{r4, r5, pc}
 80066c0:	2080      	movs	r0, #128	; 0x80
 80066c2:	0340      	lsls	r0, r0, #13
 80066c4:	4301      	orrs	r1, r0
 80066c6:	480d      	ldr	r0, [pc, #52]	; (80066fc <__aeabi_d2iz+0x60>)
 80066c8:	1ac0      	subs	r0, r0, r3
 80066ca:	281f      	cmp	r0, #31
 80066cc:	dd08      	ble.n	80066e0 <__aeabi_d2iz+0x44>
 80066ce:	480c      	ldr	r0, [pc, #48]	; (8006700 <__aeabi_d2iz+0x64>)
 80066d0:	1ac3      	subs	r3, r0, r3
 80066d2:	40d9      	lsrs	r1, r3
 80066d4:	000b      	movs	r3, r1
 80066d6:	4258      	negs	r0, r3
 80066d8:	2a00      	cmp	r2, #0
 80066da:	d1f0      	bne.n	80066be <__aeabi_d2iz+0x22>
 80066dc:	0018      	movs	r0, r3
 80066de:	e7ee      	b.n	80066be <__aeabi_d2iz+0x22>
 80066e0:	4c08      	ldr	r4, [pc, #32]	; (8006704 <__aeabi_d2iz+0x68>)
 80066e2:	40c5      	lsrs	r5, r0
 80066e4:	46a4      	mov	ip, r4
 80066e6:	4463      	add	r3, ip
 80066e8:	4099      	lsls	r1, r3
 80066ea:	000b      	movs	r3, r1
 80066ec:	432b      	orrs	r3, r5
 80066ee:	e7f2      	b.n	80066d6 <__aeabi_d2iz+0x3a>
 80066f0:	000003fe 	.word	0x000003fe
 80066f4:	0000041d 	.word	0x0000041d
 80066f8:	7fffffff 	.word	0x7fffffff
 80066fc:	00000433 	.word	0x00000433
 8006700:	00000413 	.word	0x00000413
 8006704:	fffffbed 	.word	0xfffffbed

08006708 <__aeabi_i2d>:
 8006708:	b570      	push	{r4, r5, r6, lr}
 800670a:	2800      	cmp	r0, #0
 800670c:	d016      	beq.n	800673c <__aeabi_i2d+0x34>
 800670e:	17c3      	asrs	r3, r0, #31
 8006710:	18c5      	adds	r5, r0, r3
 8006712:	405d      	eors	r5, r3
 8006714:	0fc4      	lsrs	r4, r0, #31
 8006716:	0028      	movs	r0, r5
 8006718:	f000 f84c 	bl	80067b4 <__clzsi2>
 800671c:	4a11      	ldr	r2, [pc, #68]	; (8006764 <__aeabi_i2d+0x5c>)
 800671e:	1a12      	subs	r2, r2, r0
 8006720:	280a      	cmp	r0, #10
 8006722:	dc16      	bgt.n	8006752 <__aeabi_i2d+0x4a>
 8006724:	0003      	movs	r3, r0
 8006726:	002e      	movs	r6, r5
 8006728:	3315      	adds	r3, #21
 800672a:	409e      	lsls	r6, r3
 800672c:	230b      	movs	r3, #11
 800672e:	1a18      	subs	r0, r3, r0
 8006730:	40c5      	lsrs	r5, r0
 8006732:	0553      	lsls	r3, r2, #21
 8006734:	032d      	lsls	r5, r5, #12
 8006736:	0b2d      	lsrs	r5, r5, #12
 8006738:	0d5b      	lsrs	r3, r3, #21
 800673a:	e003      	b.n	8006744 <__aeabi_i2d+0x3c>
 800673c:	2400      	movs	r4, #0
 800673e:	2300      	movs	r3, #0
 8006740:	2500      	movs	r5, #0
 8006742:	2600      	movs	r6, #0
 8006744:	051b      	lsls	r3, r3, #20
 8006746:	432b      	orrs	r3, r5
 8006748:	07e4      	lsls	r4, r4, #31
 800674a:	4323      	orrs	r3, r4
 800674c:	0030      	movs	r0, r6
 800674e:	0019      	movs	r1, r3
 8006750:	bd70      	pop	{r4, r5, r6, pc}
 8006752:	380b      	subs	r0, #11
 8006754:	4085      	lsls	r5, r0
 8006756:	0553      	lsls	r3, r2, #21
 8006758:	032d      	lsls	r5, r5, #12
 800675a:	2600      	movs	r6, #0
 800675c:	0b2d      	lsrs	r5, r5, #12
 800675e:	0d5b      	lsrs	r3, r3, #21
 8006760:	e7f0      	b.n	8006744 <__aeabi_i2d+0x3c>
 8006762:	46c0      	nop			; (mov r8, r8)
 8006764:	0000041e 	.word	0x0000041e

08006768 <__aeabi_ui2d>:
 8006768:	b510      	push	{r4, lr}
 800676a:	1e04      	subs	r4, r0, #0
 800676c:	d010      	beq.n	8006790 <__aeabi_ui2d+0x28>
 800676e:	f000 f821 	bl	80067b4 <__clzsi2>
 8006772:	4b0f      	ldr	r3, [pc, #60]	; (80067b0 <__aeabi_ui2d+0x48>)
 8006774:	1a1b      	subs	r3, r3, r0
 8006776:	280a      	cmp	r0, #10
 8006778:	dc11      	bgt.n	800679e <__aeabi_ui2d+0x36>
 800677a:	220b      	movs	r2, #11
 800677c:	0021      	movs	r1, r4
 800677e:	1a12      	subs	r2, r2, r0
 8006780:	40d1      	lsrs	r1, r2
 8006782:	3015      	adds	r0, #21
 8006784:	030a      	lsls	r2, r1, #12
 8006786:	055b      	lsls	r3, r3, #21
 8006788:	4084      	lsls	r4, r0
 800678a:	0b12      	lsrs	r2, r2, #12
 800678c:	0d5b      	lsrs	r3, r3, #21
 800678e:	e001      	b.n	8006794 <__aeabi_ui2d+0x2c>
 8006790:	2300      	movs	r3, #0
 8006792:	2200      	movs	r2, #0
 8006794:	051b      	lsls	r3, r3, #20
 8006796:	4313      	orrs	r3, r2
 8006798:	0020      	movs	r0, r4
 800679a:	0019      	movs	r1, r3
 800679c:	bd10      	pop	{r4, pc}
 800679e:	0022      	movs	r2, r4
 80067a0:	380b      	subs	r0, #11
 80067a2:	4082      	lsls	r2, r0
 80067a4:	055b      	lsls	r3, r3, #21
 80067a6:	0312      	lsls	r2, r2, #12
 80067a8:	2400      	movs	r4, #0
 80067aa:	0b12      	lsrs	r2, r2, #12
 80067ac:	0d5b      	lsrs	r3, r3, #21
 80067ae:	e7f1      	b.n	8006794 <__aeabi_ui2d+0x2c>
 80067b0:	0000041e 	.word	0x0000041e

080067b4 <__clzsi2>:
 80067b4:	211c      	movs	r1, #28
 80067b6:	2301      	movs	r3, #1
 80067b8:	041b      	lsls	r3, r3, #16
 80067ba:	4298      	cmp	r0, r3
 80067bc:	d301      	bcc.n	80067c2 <__clzsi2+0xe>
 80067be:	0c00      	lsrs	r0, r0, #16
 80067c0:	3910      	subs	r1, #16
 80067c2:	0a1b      	lsrs	r3, r3, #8
 80067c4:	4298      	cmp	r0, r3
 80067c6:	d301      	bcc.n	80067cc <__clzsi2+0x18>
 80067c8:	0a00      	lsrs	r0, r0, #8
 80067ca:	3908      	subs	r1, #8
 80067cc:	091b      	lsrs	r3, r3, #4
 80067ce:	4298      	cmp	r0, r3
 80067d0:	d301      	bcc.n	80067d6 <__clzsi2+0x22>
 80067d2:	0900      	lsrs	r0, r0, #4
 80067d4:	3904      	subs	r1, #4
 80067d6:	a202      	add	r2, pc, #8	; (adr r2, 80067e0 <__clzsi2+0x2c>)
 80067d8:	5c10      	ldrb	r0, [r2, r0]
 80067da:	1840      	adds	r0, r0, r1
 80067dc:	4770      	bx	lr
 80067de:	46c0      	nop			; (mov r8, r8)
 80067e0:	02020304 	.word	0x02020304
 80067e4:	01010101 	.word	0x01010101
	...
 80067f0:	0a696d6e 	.word	0x0a696d6e
 80067f4:	00          	.byte	0x00
 80067f5:	68          	.byte	0x68
 80067f6:	7261      	.short	0x7261
 80067f8:	61662064 	.word	0x61662064
 80067fc:	0a746c75 	.word	0x0a746c75
 8006800:	00          	.byte	0x00
 8006801:	50          	.byte	0x50
 8006802:	756c      	.short	0x756c
 8006804:	64656767 	.word	0x64656767
 8006808:	74754f20 	.word	0x74754f20
 800680c:	6c50000a 	.word	0x6c50000a
 8006810:	65676775 	.word	0x65676775
 8006814:	6e492064 	.word	0x6e492064
 8006818:	6552000a 	.word	0x6552000a
 800681c:	20746573 	.word	0x20746573
 8006820:	75716553 	.word	0x75716553
 8006824:	65636e65 	.word	0x65636e65
 8006828:	7245000a 	.word	0x7245000a
 800682c:	20726f72 	.word	0x20726f72
 8006830:	20434441 	.word	0x20434441
 8006834:	20525349 	.word	0x20525349
 8006838:	61666544 	.word	0x61666544
 800683c:	43207475 	.word	0x43207475
 8006840:	0a657361 	.word	0x0a657361
 8006844:	00          	.byte	0x00
 8006845:	66          	.byte	0x66
 8006846:	696e      	.short	0x696e
 8006848:	6e66002b 	.word	0x6e66002b
 800684c:	616e0069 	.word	0x616e0069
 8006850:	6e66006e 	.word	0x6e66006e
 8006854:	00002d69 	.word	0x00002d69

08006858 <pow10.4171>:
 8006858:	00000000 3ff00000 00000000 40240000     .......?......$@
 8006868:	00000000 40590000 00000000 408f4000     ......Y@.....@.@
 8006878:	00000000 40c38800 00000000 40f86a00     .......@.....j.@
 8006888:	00000000 412e8480 00000000 416312d0     .......A......cA
 8006898:	00000000 4197d784 00000000 41cdcd65     .......A....e..A
 80068a8:	204d4652 20495053 74697257 69540065     RFM SPI Write.Ti
 80068b8:	756f656d 73252074 38302520 52000a58     meout %s %08X..R
 80068c8:	49204354 000a5253 08005c34 08005b62     TC ISR..4\..b[..
 80068d8:	08005b62 08005b5e 08005b68 08005b68     b[..^[..h[..h[..
 80068e8:	08005e54 08005b5e 08005b68 08005e54     T^..^[..h[..T^..
 80068f8:	08005b68 08005b5e 08005df2 08005df2     h[..^[...]...]..
 8006908:	08005df2 08005ebe                       .]...^..
