ARM GAS  /var/folders/jl/lskhb0_j53jf26l9_b8c7ppm0000gn/T//ccwisIEZ.s 			page 1


   1              		.cpu cortex-m0plus
   2              		.eabi_attribute 20, 1
   3              		.eabi_attribute 21, 1
   4              		.eabi_attribute 23, 3
   5              		.eabi_attribute 24, 1
   6              		.eabi_attribute 25, 1
   7              		.eabi_attribute 26, 1
   8              		.eabi_attribute 30, 1
   9              		.eabi_attribute 34, 0
  10              		.eabi_attribute 18, 4
  11              		.file	"main.c"
  12              		.text
  13              	.Ltext0:
  14              		.cfi_sections	.debug_frame
  15              		.section	.text.MX_GPIO_Init,"ax",%progbits
  16              		.align	1
  17              		.arch armv6s-m
  18              		.syntax unified
  19              		.code	16
  20              		.thumb_func
  21              		.fpu softvfp
  23              	MX_GPIO_Init:
  24              	.LFB44:
  25              		.file 1 "Src/main.c"
   1:Src/main.c    **** /* USER CODE BEGIN Header */
   2:Src/main.c    **** /**
   3:Src/main.c    ****   ******************************************************************************
   4:Src/main.c    ****   * @file           : main.c
   5:Src/main.c    ****   * @brief          : Main program body
   6:Src/main.c    ****   ******************************************************************************
   7:Src/main.c    ****   * @attention
   8:Src/main.c    ****   *
   9:Src/main.c    ****   * <h2><center>&copy; Copyright (c) 2020 STMicroelectronics.
  10:Src/main.c    ****   * All rights reserved.</center></h2>
  11:Src/main.c    ****   *
  12:Src/main.c    ****   * This software component is licensed by ST under Ultimate Liberty license
  13:Src/main.c    ****   * SLA0044, the "License"; You may not use this file except in compliance with
  14:Src/main.c    ****   * the License. You may obtain a copy of the License at:
  15:Src/main.c    ****   *                             www.st.com/SLA0044
  16:Src/main.c    ****   *
  17:Src/main.c    ****   ******************************************************************************
  18:Src/main.c    ****   */
  19:Src/main.c    **** /* USER CODE END Header */
  20:Src/main.c    **** 
  21:Src/main.c    **** /* Includes ------------------------------------------------------------------*/
  22:Src/main.c    **** #include "main.h"
  23:Src/main.c    **** #include "usb_device.h"
  24:Src/main.c    **** 
  25:Src/main.c    **** /* Private includes ----------------------------------------------------------*/
  26:Src/main.c    **** /* USER CODE BEGIN Includes */
  27:Src/main.c    **** 
  28:Src/main.c    **** /* USER CODE END Includes */
  29:Src/main.c    **** 
  30:Src/main.c    **** /* Private typedef -----------------------------------------------------------*/
  31:Src/main.c    **** /* USER CODE BEGIN PTD */
  32:Src/main.c    **** 
  33:Src/main.c    **** /* USER CODE END PTD */
ARM GAS  /var/folders/jl/lskhb0_j53jf26l9_b8c7ppm0000gn/T//ccwisIEZ.s 			page 2


  34:Src/main.c    **** 
  35:Src/main.c    **** /* Private define ------------------------------------------------------------*/
  36:Src/main.c    **** /* USER CODE BEGIN PD */
  37:Src/main.c    **** /* USER CODE END PD */
  38:Src/main.c    **** 
  39:Src/main.c    **** /* Private macro -------------------------------------------------------------*/
  40:Src/main.c    **** /* USER CODE BEGIN PM */
  41:Src/main.c    **** 
  42:Src/main.c    **** /* USER CODE END PM */
  43:Src/main.c    **** 
  44:Src/main.c    **** /* Private variables ---------------------------------------------------------*/
  45:Src/main.c    **** ADC_HandleTypeDef hadc;
  46:Src/main.c    **** 
  47:Src/main.c    **** SPI_HandleTypeDef hspi1;
  48:Src/main.c    **** SPI_HandleTypeDef hspi2;
  49:Src/main.c    **** 
  50:Src/main.c    **** UART_HandleTypeDef huart1;
  51:Src/main.c    **** UART_HandleTypeDef huart2;
  52:Src/main.c    **** 
  53:Src/main.c    **** /* USER CODE BEGIN PV */
  54:Src/main.c    **** 
  55:Src/main.c    **** /* USER CODE END PV */
  56:Src/main.c    **** 
  57:Src/main.c    **** /* Private function prototypes -----------------------------------------------*/
  58:Src/main.c    **** void SystemClock_Config(void);
  59:Src/main.c    **** static void MX_GPIO_Init(void);
  60:Src/main.c    **** static void MX_ADC_Init(void);
  61:Src/main.c    **** static void MX_SPI1_Init(void);
  62:Src/main.c    **** static void MX_SPI2_Init(void);
  63:Src/main.c    **** static void MX_USART1_UART_Init(void);
  64:Src/main.c    **** static void MX_USART2_UART_Init(void);
  65:Src/main.c    **** /* USER CODE BEGIN PFP */
  66:Src/main.c    **** 
  67:Src/main.c    **** /* USER CODE END PFP */
  68:Src/main.c    **** 
  69:Src/main.c    **** /* Private user code ---------------------------------------------------------*/
  70:Src/main.c    **** /* USER CODE BEGIN 0 */
  71:Src/main.c    **** 
  72:Src/main.c    **** /* USER CODE END 0 */
  73:Src/main.c    **** 
  74:Src/main.c    **** /**
  75:Src/main.c    ****   * @brief  The application entry point.
  76:Src/main.c    ****   * @retval int
  77:Src/main.c    ****   */
  78:Src/main.c    **** int main(void)
  79:Src/main.c    **** {
  80:Src/main.c    ****   /* USER CODE BEGIN 1 */
  81:Src/main.c    **** 
  82:Src/main.c    ****   /* USER CODE END 1 */
  83:Src/main.c    **** 
  84:Src/main.c    ****   /* MCU Configuration--------------------------------------------------------*/
  85:Src/main.c    **** 
  86:Src/main.c    ****   /* Reset of all peripherals, Initializes the Flash interface and the Systick. */
  87:Src/main.c    ****   HAL_Init();
  88:Src/main.c    **** 
  89:Src/main.c    ****   /* USER CODE BEGIN Init */
  90:Src/main.c    **** 
ARM GAS  /var/folders/jl/lskhb0_j53jf26l9_b8c7ppm0000gn/T//ccwisIEZ.s 			page 3


  91:Src/main.c    ****   /* USER CODE END Init */
  92:Src/main.c    **** 
  93:Src/main.c    ****   /* Configure the system clock */
  94:Src/main.c    ****   SystemClock_Config();
  95:Src/main.c    **** 
  96:Src/main.c    ****   /* USER CODE BEGIN SysInit */
  97:Src/main.c    **** 
  98:Src/main.c    ****   /* USER CODE END SysInit */
  99:Src/main.c    **** 
 100:Src/main.c    ****   /* Initialize all configured peripherals */
 101:Src/main.c    ****   MX_GPIO_Init();
 102:Src/main.c    ****   MX_ADC_Init();
 103:Src/main.c    ****   MX_SPI1_Init();
 104:Src/main.c    ****   MX_SPI2_Init();
 105:Src/main.c    ****   MX_USART1_UART_Init();
 106:Src/main.c    ****   MX_USART2_UART_Init();
 107:Src/main.c    ****   MX_USB_DEVICE_Init();
 108:Src/main.c    ****   /* USER CODE BEGIN 2 */
 109:Src/main.c    **** 
 110:Src/main.c    ****   /* USER CODE END 2 */
 111:Src/main.c    **** 
 112:Src/main.c    ****   /* Infinite loop */
 113:Src/main.c    ****   /* USER CODE BEGIN WHILE */
 114:Src/main.c    ****   while (1)
 115:Src/main.c    ****   {
 116:Src/main.c    ****     /* USER CODE END WHILE */
 117:Src/main.c    **** 
 118:Src/main.c    ****     /* USER CODE BEGIN 3 */
 119:Src/main.c    ****   }
 120:Src/main.c    ****   /* USER CODE END 3 */
 121:Src/main.c    **** }
 122:Src/main.c    **** 
 123:Src/main.c    **** /**
 124:Src/main.c    ****   * @brief System Clock Configuration
 125:Src/main.c    ****   * @retval None
 126:Src/main.c    ****   */
 127:Src/main.c    **** void SystemClock_Config(void)
 128:Src/main.c    **** {
 129:Src/main.c    ****   RCC_OscInitTypeDef RCC_OscInitStruct = {0};
 130:Src/main.c    ****   RCC_ClkInitTypeDef RCC_ClkInitStruct = {0};
 131:Src/main.c    ****   RCC_PeriphCLKInitTypeDef PeriphClkInit = {0};
 132:Src/main.c    **** 
 133:Src/main.c    ****   /** Configure the main internal regulator output voltage 
 134:Src/main.c    ****   */
 135:Src/main.c    ****   __HAL_PWR_VOLTAGESCALING_CONFIG(PWR_REGULATOR_VOLTAGE_SCALE1);
 136:Src/main.c    ****   /** Initializes the CPU, AHB and APB busses clocks 
 137:Src/main.c    ****   */
 138:Src/main.c    ****   RCC_OscInitStruct.OscillatorType = RCC_OSCILLATORTYPE_HSI|RCC_OSCILLATORTYPE_HSI48;
 139:Src/main.c    ****   RCC_OscInitStruct.HSIState = RCC_HSI_ON;
 140:Src/main.c    ****   RCC_OscInitStruct.HSICalibrationValue = RCC_HSICALIBRATION_DEFAULT;
 141:Src/main.c    ****   RCC_OscInitStruct.HSI48State = RCC_HSI48_ON;
 142:Src/main.c    ****   RCC_OscInitStruct.PLL.PLLState = RCC_PLL_NONE;
 143:Src/main.c    ****   if (HAL_RCC_OscConfig(&RCC_OscInitStruct) != HAL_OK)
 144:Src/main.c    ****   {
 145:Src/main.c    ****     Error_Handler();
 146:Src/main.c    ****   }
 147:Src/main.c    ****   /** Initializes the CPU, AHB and APB busses clocks 
ARM GAS  /var/folders/jl/lskhb0_j53jf26l9_b8c7ppm0000gn/T//ccwisIEZ.s 			page 4


 148:Src/main.c    ****   */
 149:Src/main.c    ****   RCC_ClkInitStruct.ClockType = RCC_CLOCKTYPE_HCLK|RCC_CLOCKTYPE_SYSCLK
 150:Src/main.c    ****                               |RCC_CLOCKTYPE_PCLK1|RCC_CLOCKTYPE_PCLK2;
 151:Src/main.c    ****   RCC_ClkInitStruct.SYSCLKSource = RCC_SYSCLKSOURCE_HSI;
 152:Src/main.c    ****   RCC_ClkInitStruct.AHBCLKDivider = RCC_SYSCLK_DIV1;
 153:Src/main.c    ****   RCC_ClkInitStruct.APB1CLKDivider = RCC_HCLK_DIV1;
 154:Src/main.c    ****   RCC_ClkInitStruct.APB2CLKDivider = RCC_HCLK_DIV1;
 155:Src/main.c    **** 
 156:Src/main.c    ****   if (HAL_RCC_ClockConfig(&RCC_ClkInitStruct, FLASH_LATENCY_0) != HAL_OK)
 157:Src/main.c    ****   {
 158:Src/main.c    ****     Error_Handler();
 159:Src/main.c    ****   }
 160:Src/main.c    ****   PeriphClkInit.PeriphClockSelection = RCC_PERIPHCLK_USART1|RCC_PERIPHCLK_USART2
 161:Src/main.c    ****                               |RCC_PERIPHCLK_USB;
 162:Src/main.c    ****   PeriphClkInit.Usart1ClockSelection = RCC_USART1CLKSOURCE_PCLK2;
 163:Src/main.c    ****   PeriphClkInit.Usart2ClockSelection = RCC_USART2CLKSOURCE_PCLK1;
 164:Src/main.c    ****   PeriphClkInit.UsbClockSelection = RCC_USBCLKSOURCE_HSI48;
 165:Src/main.c    ****   if (HAL_RCCEx_PeriphCLKConfig(&PeriphClkInit) != HAL_OK)
 166:Src/main.c    ****   {
 167:Src/main.c    ****     Error_Handler();
 168:Src/main.c    ****   }
 169:Src/main.c    **** }
 170:Src/main.c    **** 
 171:Src/main.c    **** /**
 172:Src/main.c    ****   * @brief ADC Initialization Function
 173:Src/main.c    ****   * @param None
 174:Src/main.c    ****   * @retval None
 175:Src/main.c    ****   */
 176:Src/main.c    **** static void MX_ADC_Init(void)
 177:Src/main.c    **** {
 178:Src/main.c    **** 
 179:Src/main.c    ****   /* USER CODE BEGIN ADC_Init 0 */
 180:Src/main.c    **** 
 181:Src/main.c    ****   /* USER CODE END ADC_Init 0 */
 182:Src/main.c    **** 
 183:Src/main.c    ****   ADC_ChannelConfTypeDef sConfig = {0};
 184:Src/main.c    **** 
 185:Src/main.c    ****   /* USER CODE BEGIN ADC_Init 1 */
 186:Src/main.c    **** 
 187:Src/main.c    ****   /* USER CODE END ADC_Init 1 */
 188:Src/main.c    ****   /** Configure the global features of the ADC (Clock, Resolution, Data Alignment and number of con
 189:Src/main.c    ****   */
 190:Src/main.c    ****   hadc.Instance = ADC1;
 191:Src/main.c    ****   hadc.Init.OversamplingMode = DISABLE;
 192:Src/main.c    ****   hadc.Init.ClockPrescaler = ADC_CLOCK_SYNC_PCLK_DIV1;
 193:Src/main.c    ****   hadc.Init.Resolution = ADC_RESOLUTION_12B;
 194:Src/main.c    ****   hadc.Init.SamplingTime = ADC_SAMPLETIME_1CYCLE_5;
 195:Src/main.c    ****   hadc.Init.ScanConvMode = ADC_SCAN_DIRECTION_FORWARD;
 196:Src/main.c    ****   hadc.Init.DataAlign = ADC_DATAALIGN_RIGHT;
 197:Src/main.c    ****   hadc.Init.ContinuousConvMode = DISABLE;
 198:Src/main.c    ****   hadc.Init.DiscontinuousConvMode = DISABLE;
 199:Src/main.c    ****   hadc.Init.ExternalTrigConvEdge = ADC_EXTERNALTRIGCONVEDGE_NONE;
 200:Src/main.c    ****   hadc.Init.ExternalTrigConv = ADC_SOFTWARE_START;
 201:Src/main.c    ****   hadc.Init.DMAContinuousRequests = DISABLE;
 202:Src/main.c    ****   hadc.Init.EOCSelection = ADC_EOC_SINGLE_CONV;
 203:Src/main.c    ****   hadc.Init.Overrun = ADC_OVR_DATA_PRESERVED;
 204:Src/main.c    ****   hadc.Init.LowPowerAutoWait = DISABLE;
ARM GAS  /var/folders/jl/lskhb0_j53jf26l9_b8c7ppm0000gn/T//ccwisIEZ.s 			page 5


 205:Src/main.c    ****   hadc.Init.LowPowerFrequencyMode = DISABLE;
 206:Src/main.c    ****   hadc.Init.LowPowerAutoPowerOff = DISABLE;
 207:Src/main.c    ****   if (HAL_ADC_Init(&hadc) != HAL_OK)
 208:Src/main.c    ****   {
 209:Src/main.c    ****     Error_Handler();
 210:Src/main.c    ****   }
 211:Src/main.c    ****   /** Configure for the selected ADC regular channel to be converted. 
 212:Src/main.c    ****   */
 213:Src/main.c    ****   sConfig.Channel = ADC_CHANNEL_0;
 214:Src/main.c    ****   sConfig.Rank = ADC_RANK_CHANNEL_NUMBER;
 215:Src/main.c    ****   if (HAL_ADC_ConfigChannel(&hadc, &sConfig) != HAL_OK)
 216:Src/main.c    ****   {
 217:Src/main.c    ****     Error_Handler();
 218:Src/main.c    ****   }
 219:Src/main.c    ****   /** Configure for the selected ADC regular channel to be converted. 
 220:Src/main.c    ****   */
 221:Src/main.c    ****   sConfig.Channel = ADC_CHANNEL_1;
 222:Src/main.c    ****   if (HAL_ADC_ConfigChannel(&hadc, &sConfig) != HAL_OK)
 223:Src/main.c    ****   {
 224:Src/main.c    ****     Error_Handler();
 225:Src/main.c    ****   }
 226:Src/main.c    ****   /* USER CODE BEGIN ADC_Init 2 */
 227:Src/main.c    **** 
 228:Src/main.c    ****   /* USER CODE END ADC_Init 2 */
 229:Src/main.c    **** 
 230:Src/main.c    **** }
 231:Src/main.c    **** 
 232:Src/main.c    **** /**
 233:Src/main.c    ****   * @brief SPI1 Initialization Function
 234:Src/main.c    ****   * @param None
 235:Src/main.c    ****   * @retval None
 236:Src/main.c    ****   */
 237:Src/main.c    **** static void MX_SPI1_Init(void)
 238:Src/main.c    **** {
 239:Src/main.c    **** 
 240:Src/main.c    ****   /* USER CODE BEGIN SPI1_Init 0 */
 241:Src/main.c    **** 
 242:Src/main.c    ****   /* USER CODE END SPI1_Init 0 */
 243:Src/main.c    **** 
 244:Src/main.c    ****   /* USER CODE BEGIN SPI1_Init 1 */
 245:Src/main.c    **** 
 246:Src/main.c    ****   /* USER CODE END SPI1_Init 1 */
 247:Src/main.c    ****   /* SPI1 parameter configuration*/
 248:Src/main.c    ****   hspi1.Instance = SPI1;
 249:Src/main.c    ****   hspi1.Init.Mode = SPI_MODE_MASTER;
 250:Src/main.c    ****   hspi1.Init.Direction = SPI_DIRECTION_2LINES;
 251:Src/main.c    ****   hspi1.Init.DataSize = SPI_DATASIZE_8BIT;
 252:Src/main.c    ****   hspi1.Init.CLKPolarity = SPI_POLARITY_LOW;
 253:Src/main.c    ****   hspi1.Init.CLKPhase = SPI_PHASE_1EDGE;
 254:Src/main.c    ****   hspi1.Init.NSS = SPI_NSS_SOFT;
 255:Src/main.c    ****   hspi1.Init.BaudRatePrescaler = SPI_BAUDRATEPRESCALER_2;
 256:Src/main.c    ****   hspi1.Init.FirstBit = SPI_FIRSTBIT_MSB;
 257:Src/main.c    ****   hspi1.Init.TIMode = SPI_TIMODE_DISABLE;
 258:Src/main.c    ****   hspi1.Init.CRCCalculation = SPI_CRCCALCULATION_DISABLE;
 259:Src/main.c    ****   hspi1.Init.CRCPolynomial = 7;
 260:Src/main.c    ****   if (HAL_SPI_Init(&hspi1) != HAL_OK)
 261:Src/main.c    ****   {
ARM GAS  /var/folders/jl/lskhb0_j53jf26l9_b8c7ppm0000gn/T//ccwisIEZ.s 			page 6


 262:Src/main.c    ****     Error_Handler();
 263:Src/main.c    ****   }
 264:Src/main.c    ****   /* USER CODE BEGIN SPI1_Init 2 */
 265:Src/main.c    **** 
 266:Src/main.c    ****   /* USER CODE END SPI1_Init 2 */
 267:Src/main.c    **** 
 268:Src/main.c    **** }
 269:Src/main.c    **** 
 270:Src/main.c    **** /**
 271:Src/main.c    ****   * @brief SPI2 Initialization Function
 272:Src/main.c    ****   * @param None
 273:Src/main.c    ****   * @retval None
 274:Src/main.c    ****   */
 275:Src/main.c    **** static void MX_SPI2_Init(void)
 276:Src/main.c    **** {
 277:Src/main.c    **** 
 278:Src/main.c    ****   /* USER CODE BEGIN SPI2_Init 0 */
 279:Src/main.c    **** 
 280:Src/main.c    ****   /* USER CODE END SPI2_Init 0 */
 281:Src/main.c    **** 
 282:Src/main.c    ****   /* USER CODE BEGIN SPI2_Init 1 */
 283:Src/main.c    **** 
 284:Src/main.c    ****   /* USER CODE END SPI2_Init 1 */
 285:Src/main.c    ****   /* SPI2 parameter configuration*/
 286:Src/main.c    ****   hspi2.Instance = SPI2;
 287:Src/main.c    ****   hspi2.Init.Mode = SPI_MODE_MASTER;
 288:Src/main.c    ****   hspi2.Init.Direction = SPI_DIRECTION_2LINES;
 289:Src/main.c    ****   hspi2.Init.DataSize = SPI_DATASIZE_8BIT;
 290:Src/main.c    ****   hspi2.Init.CLKPolarity = SPI_POLARITY_LOW;
 291:Src/main.c    ****   hspi2.Init.CLKPhase = SPI_PHASE_1EDGE;
 292:Src/main.c    ****   hspi2.Init.NSS = SPI_NSS_SOFT;
 293:Src/main.c    ****   hspi2.Init.BaudRatePrescaler = SPI_BAUDRATEPRESCALER_2;
 294:Src/main.c    ****   hspi2.Init.FirstBit = SPI_FIRSTBIT_MSB;
 295:Src/main.c    ****   hspi2.Init.TIMode = SPI_TIMODE_DISABLE;
 296:Src/main.c    ****   hspi2.Init.CRCCalculation = SPI_CRCCALCULATION_DISABLE;
 297:Src/main.c    ****   hspi2.Init.CRCPolynomial = 7;
 298:Src/main.c    ****   if (HAL_SPI_Init(&hspi2) != HAL_OK)
 299:Src/main.c    ****   {
 300:Src/main.c    ****     Error_Handler();
 301:Src/main.c    ****   }
 302:Src/main.c    ****   /* USER CODE BEGIN SPI2_Init 2 */
 303:Src/main.c    **** 
 304:Src/main.c    ****   /* USER CODE END SPI2_Init 2 */
 305:Src/main.c    **** 
 306:Src/main.c    **** }
 307:Src/main.c    **** 
 308:Src/main.c    **** /**
 309:Src/main.c    ****   * @brief USART1 Initialization Function
 310:Src/main.c    ****   * @param None
 311:Src/main.c    ****   * @retval None
 312:Src/main.c    ****   */
 313:Src/main.c    **** static void MX_USART1_UART_Init(void)
 314:Src/main.c    **** {
 315:Src/main.c    **** 
 316:Src/main.c    ****   /* USER CODE BEGIN USART1_Init 0 */
 317:Src/main.c    **** 
 318:Src/main.c    ****   /* USER CODE END USART1_Init 0 */
ARM GAS  /var/folders/jl/lskhb0_j53jf26l9_b8c7ppm0000gn/T//ccwisIEZ.s 			page 7


 319:Src/main.c    **** 
 320:Src/main.c    ****   /* USER CODE BEGIN USART1_Init 1 */
 321:Src/main.c    **** 
 322:Src/main.c    ****   /* USER CODE END USART1_Init 1 */
 323:Src/main.c    ****   huart1.Instance = USART1;
 324:Src/main.c    ****   huart1.Init.BaudRate = 115200;
 325:Src/main.c    ****   huart1.Init.WordLength = UART_WORDLENGTH_8B;
 326:Src/main.c    ****   huart1.Init.StopBits = UART_STOPBITS_1;
 327:Src/main.c    ****   huart1.Init.Parity = UART_PARITY_NONE;
 328:Src/main.c    ****   huart1.Init.Mode = UART_MODE_TX_RX;
 329:Src/main.c    ****   huart1.Init.HwFlowCtl = UART_HWCONTROL_NONE;
 330:Src/main.c    ****   huart1.Init.OverSampling = UART_OVERSAMPLING_16;
 331:Src/main.c    ****   huart1.Init.OneBitSampling = UART_ONE_BIT_SAMPLE_DISABLE;
 332:Src/main.c    ****   huart1.AdvancedInit.AdvFeatureInit = UART_ADVFEATURE_NO_INIT;
 333:Src/main.c    ****   if (HAL_UART_Init(&huart1) != HAL_OK)
 334:Src/main.c    ****   {
 335:Src/main.c    ****     Error_Handler();
 336:Src/main.c    ****   }
 337:Src/main.c    ****   /* USER CODE BEGIN USART1_Init 2 */
 338:Src/main.c    **** 
 339:Src/main.c    ****   /* USER CODE END USART1_Init 2 */
 340:Src/main.c    **** 
 341:Src/main.c    **** }
 342:Src/main.c    **** 
 343:Src/main.c    **** /**
 344:Src/main.c    ****   * @brief USART2 Initialization Function
 345:Src/main.c    ****   * @param None
 346:Src/main.c    ****   * @retval None
 347:Src/main.c    ****   */
 348:Src/main.c    **** static void MX_USART2_UART_Init(void)
 349:Src/main.c    **** {
 350:Src/main.c    **** 
 351:Src/main.c    ****   /* USER CODE BEGIN USART2_Init 0 */
 352:Src/main.c    **** 
 353:Src/main.c    ****   /* USER CODE END USART2_Init 0 */
 354:Src/main.c    **** 
 355:Src/main.c    ****   /* USER CODE BEGIN USART2_Init 1 */
 356:Src/main.c    **** 
 357:Src/main.c    ****   /* USER CODE END USART2_Init 1 */
 358:Src/main.c    ****   huart2.Instance = USART2;
 359:Src/main.c    ****   huart2.Init.BaudRate = 115200;
 360:Src/main.c    ****   huart2.Init.WordLength = UART_WORDLENGTH_8B;
 361:Src/main.c    ****   huart2.Init.StopBits = UART_STOPBITS_1;
 362:Src/main.c    ****   huart2.Init.Parity = UART_PARITY_NONE;
 363:Src/main.c    ****   huart2.Init.Mode = UART_MODE_TX_RX;
 364:Src/main.c    ****   huart2.Init.HwFlowCtl = UART_HWCONTROL_NONE;
 365:Src/main.c    ****   huart2.Init.OverSampling = UART_OVERSAMPLING_16;
 366:Src/main.c    ****   huart2.Init.OneBitSampling = UART_ONE_BIT_SAMPLE_DISABLE;
 367:Src/main.c    ****   huart2.AdvancedInit.AdvFeatureInit = UART_ADVFEATURE_NO_INIT;
 368:Src/main.c    ****   if (HAL_UART_Init(&huart2) != HAL_OK)
 369:Src/main.c    ****   {
 370:Src/main.c    ****     Error_Handler();
 371:Src/main.c    ****   }
 372:Src/main.c    ****   /* USER CODE BEGIN USART2_Init 2 */
 373:Src/main.c    **** 
 374:Src/main.c    ****   /* USER CODE END USART2_Init 2 */
 375:Src/main.c    **** 
ARM GAS  /var/folders/jl/lskhb0_j53jf26l9_b8c7ppm0000gn/T//ccwisIEZ.s 			page 8


 376:Src/main.c    **** }
 377:Src/main.c    **** 
 378:Src/main.c    **** /**
 379:Src/main.c    ****   * @brief GPIO Initialization Function
 380:Src/main.c    ****   * @param None
 381:Src/main.c    ****   * @retval None
 382:Src/main.c    ****   */
 383:Src/main.c    **** static void MX_GPIO_Init(void)
 384:Src/main.c    **** {
  26              		.loc 1 384 1 view -0
  27              		.cfi_startproc
  28              		@ args = 0, pretend = 0, frame = 32
  29              		@ frame_needed = 0, uses_anonymous_args = 0
  30 0000 F0B5     		push	{r4, r5, r6, r7, lr}
  31              	.LCFI0:
  32              		.cfi_def_cfa_offset 20
  33              		.cfi_offset 4, -20
  34              		.cfi_offset 5, -16
  35              		.cfi_offset 6, -12
  36              		.cfi_offset 7, -8
  37              		.cfi_offset 14, -4
  38 0002 C646     		mov	lr, r8
  39 0004 00B5     		push	{lr}
  40              	.LCFI1:
  41              		.cfi_def_cfa_offset 24
  42              		.cfi_offset 8, -24
  43 0006 88B0     		sub	sp, sp, #32
  44              	.LCFI2:
  45              		.cfi_def_cfa_offset 56
 385:Src/main.c    ****   GPIO_InitTypeDef GPIO_InitStruct = {0};
  46              		.loc 1 385 3 view .LVU1
  47              		.loc 1 385 20 is_stmt 0 view .LVU2
  48 0008 1422     		movs	r2, #20
  49 000a 0021     		movs	r1, #0
  50 000c 03A8     		add	r0, sp, #12
  51 000e FFF7FEFF 		bl	memset
  52              	.LVL0:
 386:Src/main.c    **** 
 387:Src/main.c    ****   /* GPIO Ports Clock Enable */
 388:Src/main.c    ****   __HAL_RCC_GPIOC_CLK_ENABLE();
  53              		.loc 1 388 3 is_stmt 1 view .LVU3
  54              	.LBB2:
  55              		.loc 1 388 3 view .LVU4
  56              		.loc 1 388 3 view .LVU5
  57 0012 1F4B     		ldr	r3, .L2
  58 0014 D96A     		ldr	r1, [r3, #44]
  59 0016 0422     		movs	r2, #4
  60 0018 1143     		orrs	r1, r2
  61 001a D962     		str	r1, [r3, #44]
  62              		.loc 1 388 3 view .LVU6
  63 001c D96A     		ldr	r1, [r3, #44]
  64 001e 0A40     		ands	r2, r1
  65 0020 0092     		str	r2, [sp]
  66              		.loc 1 388 3 view .LVU7
  67 0022 009A     		ldr	r2, [sp]
  68              	.LBE2:
  69              		.loc 1 388 3 view .LVU8
ARM GAS  /var/folders/jl/lskhb0_j53jf26l9_b8c7ppm0000gn/T//ccwisIEZ.s 			page 9


 389:Src/main.c    ****   __HAL_RCC_GPIOA_CLK_ENABLE();
  70              		.loc 1 389 3 view .LVU9
  71              	.LBB3:
  72              		.loc 1 389 3 view .LVU10
  73              		.loc 1 389 3 view .LVU11
  74 0024 DA6A     		ldr	r2, [r3, #44]
  75 0026 0125     		movs	r5, #1
  76 0028 2A43     		orrs	r2, r5
  77 002a DA62     		str	r2, [r3, #44]
  78              		.loc 1 389 3 view .LVU12
  79 002c DA6A     		ldr	r2, [r3, #44]
  80 002e 2A40     		ands	r2, r5
  81 0030 0192     		str	r2, [sp, #4]
  82              		.loc 1 389 3 view .LVU13
  83 0032 019A     		ldr	r2, [sp, #4]
  84              	.LBE3:
  85              		.loc 1 389 3 view .LVU14
 390:Src/main.c    ****   __HAL_RCC_GPIOB_CLK_ENABLE();
  86              		.loc 1 390 3 view .LVU15
  87              	.LBB4:
  88              		.loc 1 390 3 view .LVU16
  89              		.loc 1 390 3 view .LVU17
  90 0034 D96A     		ldr	r1, [r3, #44]
  91 0036 0222     		movs	r2, #2
  92 0038 1143     		orrs	r1, r2
  93 003a D962     		str	r1, [r3, #44]
  94              		.loc 1 390 3 view .LVU18
  95 003c DB6A     		ldr	r3, [r3, #44]
  96 003e 1A40     		ands	r2, r3
  97 0040 0292     		str	r2, [sp, #8]
  98              		.loc 1 390 3 view .LVU19
  99 0042 029B     		ldr	r3, [sp, #8]
 100              	.LBE4:
 101              		.loc 1 390 3 view .LVU20
 391:Src/main.c    **** 
 392:Src/main.c    ****   /*Configure GPIO pin Output Level */
 393:Src/main.c    ****   HAL_GPIO_WritePin(GPIOA, SIM_RESET_Pin|RF_RESET_Pin|RF_IO0_Pin, GPIO_PIN_RESET);
 102              		.loc 1 393 3 view .LVU21
 103 0044 A023     		movs	r3, #160
 104 0046 DB05     		lsls	r3, r3, #23
 105 0048 9846     		mov	r8, r3
 106 004a 0022     		movs	r2, #0
 107 004c D021     		movs	r1, #208
 108 004e 1800     		movs	r0, r3
 109 0050 FFF7FEFF 		bl	HAL_GPIO_WritePin
 110              	.LVL1:
 394:Src/main.c    **** 
 395:Src/main.c    ****   /*Configure GPIO pin Output Level */
 396:Src/main.c    ****   HAL_GPIO_WritePin(GPIOB, RF_IO1_Pin|RF_IO2_Pin|RF_IO3_Pin|RF_IO4_Pin 
 111              		.loc 1 396 3 view .LVU22
 112 0054 0F4F     		ldr	r7, .L2+4
 113 0056 104E     		ldr	r6, .L2+8
 114 0058 0022     		movs	r2, #0
 115 005a 3900     		movs	r1, r7
 116 005c 3000     		movs	r0, r6
 117 005e FFF7FEFF 		bl	HAL_GPIO_WritePin
 118              	.LVL2:
ARM GAS  /var/folders/jl/lskhb0_j53jf26l9_b8c7ppm0000gn/T//ccwisIEZ.s 			page 10


 397:Src/main.c    ****                           |RF_IO5_Pin|SPI2_SS_Pin|SPI1_SS_Pin|STATUS_LED_Pin, GPIO_PIN_RESET);
 398:Src/main.c    **** 
 399:Src/main.c    ****   /*Configure GPIO pins : SIM_RESET_Pin RF_RESET_Pin RF_IO0_Pin */
 400:Src/main.c    ****   GPIO_InitStruct.Pin = SIM_RESET_Pin|RF_RESET_Pin|RF_IO0_Pin;
 119              		.loc 1 400 3 view .LVU23
 120              		.loc 1 400 23 is_stmt 0 view .LVU24
 121 0062 D023     		movs	r3, #208
 122 0064 0393     		str	r3, [sp, #12]
 401:Src/main.c    ****   GPIO_InitStruct.Mode = GPIO_MODE_OUTPUT_PP;
 123              		.loc 1 401 3 is_stmt 1 view .LVU25
 124              		.loc 1 401 24 is_stmt 0 view .LVU26
 125 0066 0495     		str	r5, [sp, #16]
 402:Src/main.c    ****   GPIO_InitStruct.Pull = GPIO_NOPULL;
 126              		.loc 1 402 3 is_stmt 1 view .LVU27
 127              		.loc 1 402 24 is_stmt 0 view .LVU28
 128 0068 0024     		movs	r4, #0
 129 006a 0594     		str	r4, [sp, #20]
 403:Src/main.c    ****   GPIO_InitStruct.Speed = GPIO_SPEED_FREQ_LOW;
 130              		.loc 1 403 3 is_stmt 1 view .LVU29
 131              		.loc 1 403 25 is_stmt 0 view .LVU30
 132 006c 0694     		str	r4, [sp, #24]
 404:Src/main.c    ****   HAL_GPIO_Init(GPIOA, &GPIO_InitStruct);
 133              		.loc 1 404 3 is_stmt 1 view .LVU31
 134 006e 03A9     		add	r1, sp, #12
 135 0070 4046     		mov	r0, r8
 136 0072 FFF7FEFF 		bl	HAL_GPIO_Init
 137              	.LVL3:
 405:Src/main.c    **** 
 406:Src/main.c    ****   /*Configure GPIO pins : RF_IO1_Pin RF_IO2_Pin RF_IO3_Pin RF_IO4_Pin 
 407:Src/main.c    ****                            RF_IO5_Pin SPI2_SS_Pin SPI1_SS_Pin STATUS_LED_Pin */
 408:Src/main.c    ****   GPIO_InitStruct.Pin = RF_IO1_Pin|RF_IO2_Pin|RF_IO3_Pin|RF_IO4_Pin 
 138              		.loc 1 408 3 view .LVU32
 139              		.loc 1 408 23 is_stmt 0 view .LVU33
 140 0076 0397     		str	r7, [sp, #12]
 409:Src/main.c    ****                           |RF_IO5_Pin|SPI2_SS_Pin|SPI1_SS_Pin|STATUS_LED_Pin;
 410:Src/main.c    ****   GPIO_InitStruct.Mode = GPIO_MODE_OUTPUT_PP;
 141              		.loc 1 410 3 is_stmt 1 view .LVU34
 142              		.loc 1 410 24 is_stmt 0 view .LVU35
 143 0078 0495     		str	r5, [sp, #16]
 411:Src/main.c    ****   GPIO_InitStruct.Pull = GPIO_NOPULL;
 144              		.loc 1 411 3 is_stmt 1 view .LVU36
 145              		.loc 1 411 24 is_stmt 0 view .LVU37
 146 007a 0594     		str	r4, [sp, #20]
 412:Src/main.c    ****   GPIO_InitStruct.Speed = GPIO_SPEED_FREQ_LOW;
 147              		.loc 1 412 3 is_stmt 1 view .LVU38
 148              		.loc 1 412 25 is_stmt 0 view .LVU39
 149 007c 0694     		str	r4, [sp, #24]
 413:Src/main.c    ****   HAL_GPIO_Init(GPIOB, &GPIO_InitStruct);
 150              		.loc 1 413 3 is_stmt 1 view .LVU40
 151 007e 03A9     		add	r1, sp, #12
 152 0080 3000     		movs	r0, r6
 153 0082 FFF7FEFF 		bl	HAL_GPIO_Init
 154              	.LVL4:
 414:Src/main.c    **** 
 415:Src/main.c    **** }
 155              		.loc 1 415 1 is_stmt 0 view .LVU41
 156 0086 08B0     		add	sp, sp, #32
ARM GAS  /var/folders/jl/lskhb0_j53jf26l9_b8c7ppm0000gn/T//ccwisIEZ.s 			page 11


 157              		@ sp needed
 158 0088 04BC     		pop	{r2}
 159 008a 9046     		mov	r8, r2
 160 008c F0BD     		pop	{r4, r5, r6, r7, pc}
 161              	.L3:
 162 008e C046     		.align	2
 163              	.L2:
 164 0090 00100240 		.word	1073876992
 165 0094 471E0000 		.word	7751
 166 0098 00040050 		.word	1342178304
 167              		.cfi_endproc
 168              	.LFE44:
 170              		.section	.text.MX_ADC_Init,"ax",%progbits
 171              		.align	1
 172              		.syntax unified
 173              		.code	16
 174              		.thumb_func
 175              		.fpu softvfp
 177              	MX_ADC_Init:
 178              	.LFB39:
 177:Src/main.c    **** 
 179              		.loc 1 177 1 is_stmt 1 view -0
 180              		.cfi_startproc
 181              		@ args = 0, pretend = 0, frame = 8
 182              		@ frame_needed = 0, uses_anonymous_args = 0
 183 0000 30B5     		push	{r4, r5, lr}
 184              	.LCFI3:
 185              		.cfi_def_cfa_offset 12
 186              		.cfi_offset 4, -12
 187              		.cfi_offset 5, -8
 188              		.cfi_offset 14, -4
 189 0002 83B0     		sub	sp, sp, #12
 190              	.LCFI4:
 191              		.cfi_def_cfa_offset 24
 183:Src/main.c    **** 
 192              		.loc 1 183 3 view .LVU43
 183:Src/main.c    **** 
 193              		.loc 1 183 26 is_stmt 0 view .LVU44
 194 0004 0822     		movs	r2, #8
 195 0006 0021     		movs	r1, #0
 196 0008 6846     		mov	r0, sp
 197 000a FFF7FEFF 		bl	memset
 198              	.LVL5:
 190:Src/main.c    ****   hadc.Init.OversamplingMode = DISABLE;
 199              		.loc 1 190 3 is_stmt 1 view .LVU45
 190:Src/main.c    ****   hadc.Init.OversamplingMode = DISABLE;
 200              		.loc 1 190 17 is_stmt 0 view .LVU46
 201 000e 184C     		ldr	r4, .L5
 202 0010 184B     		ldr	r3, .L5+4
 203 0012 2360     		str	r3, [r4]
 191:Src/main.c    ****   hadc.Init.ClockPrescaler = ADC_CLOCK_SYNC_PCLK_DIV1;
 204              		.loc 1 191 3 is_stmt 1 view .LVU47
 191:Src/main.c    ****   hadc.Init.ClockPrescaler = ADC_CLOCK_SYNC_PCLK_DIV1;
 205              		.loc 1 191 30 is_stmt 0 view .LVU48
 206 0014 0023     		movs	r3, #0
 207 0016 E363     		str	r3, [r4, #60]
 192:Src/main.c    ****   hadc.Init.Resolution = ADC_RESOLUTION_12B;
ARM GAS  /var/folders/jl/lskhb0_j53jf26l9_b8c7ppm0000gn/T//ccwisIEZ.s 			page 12


 208              		.loc 1 192 3 is_stmt 1 view .LVU49
 192:Src/main.c    ****   hadc.Init.Resolution = ADC_RESOLUTION_12B;
 209              		.loc 1 192 28 is_stmt 0 view .LVU50
 210 0018 C022     		movs	r2, #192
 211 001a 1206     		lsls	r2, r2, #24
 212 001c 6260     		str	r2, [r4, #4]
 193:Src/main.c    ****   hadc.Init.SamplingTime = ADC_SAMPLETIME_1CYCLE_5;
 213              		.loc 1 193 3 is_stmt 1 view .LVU51
 193:Src/main.c    ****   hadc.Init.SamplingTime = ADC_SAMPLETIME_1CYCLE_5;
 214              		.loc 1 193 24 is_stmt 0 view .LVU52
 215 001e A360     		str	r3, [r4, #8]
 194:Src/main.c    ****   hadc.Init.ScanConvMode = ADC_SCAN_DIRECTION_FORWARD;
 216              		.loc 1 194 3 is_stmt 1 view .LVU53
 194:Src/main.c    ****   hadc.Init.ScanConvMode = ADC_SCAN_DIRECTION_FORWARD;
 217              		.loc 1 194 26 is_stmt 0 view .LVU54
 218 0020 A363     		str	r3, [r4, #56]
 195:Src/main.c    ****   hadc.Init.DataAlign = ADC_DATAALIGN_RIGHT;
 219              		.loc 1 195 3 is_stmt 1 view .LVU55
 195:Src/main.c    ****   hadc.Init.DataAlign = ADC_DATAALIGN_RIGHT;
 220              		.loc 1 195 26 is_stmt 0 view .LVU56
 221 0022 0125     		movs	r5, #1
 222 0024 2561     		str	r5, [r4, #16]
 196:Src/main.c    ****   hadc.Init.ContinuousConvMode = DISABLE;
 223              		.loc 1 196 3 is_stmt 1 view .LVU57
 196:Src/main.c    ****   hadc.Init.ContinuousConvMode = DISABLE;
 224              		.loc 1 196 23 is_stmt 0 view .LVU58
 225 0026 E360     		str	r3, [r4, #12]
 197:Src/main.c    ****   hadc.Init.DiscontinuousConvMode = DISABLE;
 226              		.loc 1 197 3 is_stmt 1 view .LVU59
 197:Src/main.c    ****   hadc.Init.DiscontinuousConvMode = DISABLE;
 227              		.loc 1 197 32 is_stmt 0 view .LVU60
 228 0028 2022     		movs	r2, #32
 229 002a A354     		strb	r3, [r4, r2]
 198:Src/main.c    ****   hadc.Init.ExternalTrigConvEdge = ADC_EXTERNALTRIGCONVEDGE_NONE;
 230              		.loc 1 198 3 is_stmt 1 view .LVU61
 198:Src/main.c    ****   hadc.Init.ExternalTrigConvEdge = ADC_EXTERNALTRIGCONVEDGE_NONE;
 231              		.loc 1 198 35 is_stmt 0 view .LVU62
 232 002c 0132     		adds	r2, r2, #1
 233 002e A354     		strb	r3, [r4, r2]
 199:Src/main.c    ****   hadc.Init.ExternalTrigConv = ADC_SOFTWARE_START;
 234              		.loc 1 199 3 is_stmt 1 view .LVU63
 199:Src/main.c    ****   hadc.Init.ExternalTrigConv = ADC_SOFTWARE_START;
 235              		.loc 1 199 34 is_stmt 0 view .LVU64
 236 0030 A362     		str	r3, [r4, #40]
 200:Src/main.c    ****   hadc.Init.DMAContinuousRequests = DISABLE;
 237              		.loc 1 200 3 is_stmt 1 view .LVU65
 200:Src/main.c    ****   hadc.Init.DMAContinuousRequests = DISABLE;
 238              		.loc 1 200 30 is_stmt 0 view .LVU66
 239 0032 C222     		movs	r2, #194
 240 0034 FF32     		adds	r2, r2, #255
 241 0036 6262     		str	r2, [r4, #36]
 201:Src/main.c    ****   hadc.Init.EOCSelection = ADC_EOC_SINGLE_CONV;
 242              		.loc 1 201 3 is_stmt 1 view .LVU67
 201:Src/main.c    ****   hadc.Init.EOCSelection = ADC_EOC_SINGLE_CONV;
 243              		.loc 1 201 35 is_stmt 0 view .LVU68
 244 0038 963A     		subs	r2, r2, #150
 245 003a FF3A     		subs	r2, r2, #255
ARM GAS  /var/folders/jl/lskhb0_j53jf26l9_b8c7ppm0000gn/T//ccwisIEZ.s 			page 13


 246 003c A354     		strb	r3, [r4, r2]
 202:Src/main.c    ****   hadc.Init.Overrun = ADC_OVR_DATA_PRESERVED;
 247              		.loc 1 202 3 is_stmt 1 view .LVU69
 202:Src/main.c    ****   hadc.Init.Overrun = ADC_OVR_DATA_PRESERVED;
 248              		.loc 1 202 26 is_stmt 0 view .LVU70
 249 003e 283A     		subs	r2, r2, #40
 250 0040 6261     		str	r2, [r4, #20]
 203:Src/main.c    ****   hadc.Init.LowPowerAutoWait = DISABLE;
 251              		.loc 1 203 3 is_stmt 1 view .LVU71
 203:Src/main.c    ****   hadc.Init.LowPowerAutoWait = DISABLE;
 252              		.loc 1 203 21 is_stmt 0 view .LVU72
 253 0042 2363     		str	r3, [r4, #48]
 204:Src/main.c    ****   hadc.Init.LowPowerFrequencyMode = DISABLE;
 254              		.loc 1 204 3 is_stmt 1 view .LVU73
 204:Src/main.c    ****   hadc.Init.LowPowerFrequencyMode = DISABLE;
 255              		.loc 1 204 30 is_stmt 0 view .LVU74
 256 0044 A361     		str	r3, [r4, #24]
 205:Src/main.c    ****   hadc.Init.LowPowerAutoPowerOff = DISABLE;
 257              		.loc 1 205 3 is_stmt 1 view .LVU75
 205:Src/main.c    ****   hadc.Init.LowPowerAutoPowerOff = DISABLE;
 258              		.loc 1 205 35 is_stmt 0 view .LVU76
 259 0046 6363     		str	r3, [r4, #52]
 206:Src/main.c    ****   if (HAL_ADC_Init(&hadc) != HAL_OK)
 260              		.loc 1 206 3 is_stmt 1 view .LVU77
 206:Src/main.c    ****   if (HAL_ADC_Init(&hadc) != HAL_OK)
 261              		.loc 1 206 34 is_stmt 0 view .LVU78
 262 0048 E361     		str	r3, [r4, #28]
 207:Src/main.c    ****   {
 263              		.loc 1 207 3 is_stmt 1 view .LVU79
 207:Src/main.c    ****   {
 264              		.loc 1 207 7 is_stmt 0 view .LVU80
 265 004a 2000     		movs	r0, r4
 266 004c FFF7FEFF 		bl	HAL_ADC_Init
 267              	.LVL6:
 213:Src/main.c    ****   sConfig.Rank = ADC_RANK_CHANNEL_NUMBER;
 268              		.loc 1 213 3 is_stmt 1 view .LVU81
 213:Src/main.c    ****   sConfig.Rank = ADC_RANK_CHANNEL_NUMBER;
 269              		.loc 1 213 19 is_stmt 0 view .LVU82
 270 0050 0095     		str	r5, [sp]
 214:Src/main.c    ****   if (HAL_ADC_ConfigChannel(&hadc, &sConfig) != HAL_OK)
 271              		.loc 1 214 3 is_stmt 1 view .LVU83
 214:Src/main.c    ****   if (HAL_ADC_ConfigChannel(&hadc, &sConfig) != HAL_OK)
 272              		.loc 1 214 16 is_stmt 0 view .LVU84
 273 0052 8023     		movs	r3, #128
 274 0054 5B01     		lsls	r3, r3, #5
 275 0056 0193     		str	r3, [sp, #4]
 215:Src/main.c    ****   {
 276              		.loc 1 215 3 is_stmt 1 view .LVU85
 215:Src/main.c    ****   {
 277              		.loc 1 215 7 is_stmt 0 view .LVU86
 278 0058 6946     		mov	r1, sp
 279 005a 2000     		movs	r0, r4
 280 005c FFF7FEFF 		bl	HAL_ADC_ConfigChannel
 281              	.LVL7:
 221:Src/main.c    ****   if (HAL_ADC_ConfigChannel(&hadc, &sConfig) != HAL_OK)
 282              		.loc 1 221 3 is_stmt 1 view .LVU87
 221:Src/main.c    ****   if (HAL_ADC_ConfigChannel(&hadc, &sConfig) != HAL_OK)
ARM GAS  /var/folders/jl/lskhb0_j53jf26l9_b8c7ppm0000gn/T//ccwisIEZ.s 			page 14


 283              		.loc 1 221 19 is_stmt 0 view .LVU88
 284 0060 054B     		ldr	r3, .L5+8
 285 0062 0093     		str	r3, [sp]
 222:Src/main.c    ****   {
 286              		.loc 1 222 3 is_stmt 1 view .LVU89
 222:Src/main.c    ****   {
 287              		.loc 1 222 7 is_stmt 0 view .LVU90
 288 0064 6946     		mov	r1, sp
 289 0066 2000     		movs	r0, r4
 290 0068 FFF7FEFF 		bl	HAL_ADC_ConfigChannel
 291              	.LVL8:
 230:Src/main.c    **** 
 292              		.loc 1 230 1 view .LVU91
 293 006c 03B0     		add	sp, sp, #12
 294              		@ sp needed
 295 006e 30BD     		pop	{r4, r5, pc}
 296              	.L6:
 297              		.align	2
 298              	.L5:
 299 0070 00000000 		.word	hadc
 300 0074 00240140 		.word	1073816576
 301 0078 02000004 		.word	67108866
 302              		.cfi_endproc
 303              	.LFE39:
 305              		.section	.text.MX_SPI1_Init,"ax",%progbits
 306              		.align	1
 307              		.syntax unified
 308              		.code	16
 309              		.thumb_func
 310              		.fpu softvfp
 312              	MX_SPI1_Init:
 313              	.LFB40:
 238:Src/main.c    **** 
 314              		.loc 1 238 1 is_stmt 1 view -0
 315              		.cfi_startproc
 316              		@ args = 0, pretend = 0, frame = 0
 317              		@ frame_needed = 0, uses_anonymous_args = 0
 318 0000 10B5     		push	{r4, lr}
 319              	.LCFI5:
 320              		.cfi_def_cfa_offset 8
 321              		.cfi_offset 4, -8
 322              		.cfi_offset 14, -4
 248:Src/main.c    ****   hspi1.Init.Mode = SPI_MODE_MASTER;
 323              		.loc 1 248 3 view .LVU93
 248:Src/main.c    ****   hspi1.Init.Mode = SPI_MODE_MASTER;
 324              		.loc 1 248 18 is_stmt 0 view .LVU94
 325 0002 0B48     		ldr	r0, .L8
 326 0004 0B4B     		ldr	r3, .L8+4
 327 0006 0360     		str	r3, [r0]
 249:Src/main.c    ****   hspi1.Init.Direction = SPI_DIRECTION_2LINES;
 328              		.loc 1 249 3 is_stmt 1 view .LVU95
 249:Src/main.c    ****   hspi1.Init.Direction = SPI_DIRECTION_2LINES;
 329              		.loc 1 249 19 is_stmt 0 view .LVU96
 330 0008 8223     		movs	r3, #130
 331 000a 5B00     		lsls	r3, r3, #1
 332 000c 4360     		str	r3, [r0, #4]
 250:Src/main.c    ****   hspi1.Init.DataSize = SPI_DATASIZE_8BIT;
ARM GAS  /var/folders/jl/lskhb0_j53jf26l9_b8c7ppm0000gn/T//ccwisIEZ.s 			page 15


 333              		.loc 1 250 3 is_stmt 1 view .LVU97
 250:Src/main.c    ****   hspi1.Init.DataSize = SPI_DATASIZE_8BIT;
 334              		.loc 1 250 24 is_stmt 0 view .LVU98
 335 000e 0023     		movs	r3, #0
 336 0010 8360     		str	r3, [r0, #8]
 251:Src/main.c    ****   hspi1.Init.CLKPolarity = SPI_POLARITY_LOW;
 337              		.loc 1 251 3 is_stmt 1 view .LVU99
 251:Src/main.c    ****   hspi1.Init.CLKPolarity = SPI_POLARITY_LOW;
 338              		.loc 1 251 23 is_stmt 0 view .LVU100
 339 0012 C360     		str	r3, [r0, #12]
 252:Src/main.c    ****   hspi1.Init.CLKPhase = SPI_PHASE_1EDGE;
 340              		.loc 1 252 3 is_stmt 1 view .LVU101
 252:Src/main.c    ****   hspi1.Init.CLKPhase = SPI_PHASE_1EDGE;
 341              		.loc 1 252 26 is_stmt 0 view .LVU102
 342 0014 0361     		str	r3, [r0, #16]
 253:Src/main.c    ****   hspi1.Init.NSS = SPI_NSS_SOFT;
 343              		.loc 1 253 3 is_stmt 1 view .LVU103
 253:Src/main.c    ****   hspi1.Init.NSS = SPI_NSS_SOFT;
 344              		.loc 1 253 23 is_stmt 0 view .LVU104
 345 0016 4361     		str	r3, [r0, #20]
 254:Src/main.c    ****   hspi1.Init.BaudRatePrescaler = SPI_BAUDRATEPRESCALER_2;
 346              		.loc 1 254 3 is_stmt 1 view .LVU105
 254:Src/main.c    ****   hspi1.Init.BaudRatePrescaler = SPI_BAUDRATEPRESCALER_2;
 347              		.loc 1 254 18 is_stmt 0 view .LVU106
 348 0018 8022     		movs	r2, #128
 349 001a 9200     		lsls	r2, r2, #2
 350 001c 8261     		str	r2, [r0, #24]
 255:Src/main.c    ****   hspi1.Init.FirstBit = SPI_FIRSTBIT_MSB;
 351              		.loc 1 255 3 is_stmt 1 view .LVU107
 255:Src/main.c    ****   hspi1.Init.FirstBit = SPI_FIRSTBIT_MSB;
 352              		.loc 1 255 32 is_stmt 0 view .LVU108
 353 001e C361     		str	r3, [r0, #28]
 256:Src/main.c    ****   hspi1.Init.TIMode = SPI_TIMODE_DISABLE;
 354              		.loc 1 256 3 is_stmt 1 view .LVU109
 256:Src/main.c    ****   hspi1.Init.TIMode = SPI_TIMODE_DISABLE;
 355              		.loc 1 256 23 is_stmt 0 view .LVU110
 356 0020 0362     		str	r3, [r0, #32]
 257:Src/main.c    ****   hspi1.Init.CRCCalculation = SPI_CRCCALCULATION_DISABLE;
 357              		.loc 1 257 3 is_stmt 1 view .LVU111
 257:Src/main.c    ****   hspi1.Init.CRCCalculation = SPI_CRCCALCULATION_DISABLE;
 358              		.loc 1 257 21 is_stmt 0 view .LVU112
 359 0022 4362     		str	r3, [r0, #36]
 258:Src/main.c    ****   hspi1.Init.CRCPolynomial = 7;
 360              		.loc 1 258 3 is_stmt 1 view .LVU113
 258:Src/main.c    ****   hspi1.Init.CRCPolynomial = 7;
 361              		.loc 1 258 29 is_stmt 0 view .LVU114
 362 0024 8362     		str	r3, [r0, #40]
 259:Src/main.c    ****   if (HAL_SPI_Init(&hspi1) != HAL_OK)
 363              		.loc 1 259 3 is_stmt 1 view .LVU115
 259:Src/main.c    ****   if (HAL_SPI_Init(&hspi1) != HAL_OK)
 364              		.loc 1 259 28 is_stmt 0 view .LVU116
 365 0026 0733     		adds	r3, r3, #7
 366 0028 C362     		str	r3, [r0, #44]
 260:Src/main.c    ****   {
 367              		.loc 1 260 3 is_stmt 1 view .LVU117
 260:Src/main.c    ****   {
 368              		.loc 1 260 7 is_stmt 0 view .LVU118
ARM GAS  /var/folders/jl/lskhb0_j53jf26l9_b8c7ppm0000gn/T//ccwisIEZ.s 			page 16


 369 002a FFF7FEFF 		bl	HAL_SPI_Init
 370              	.LVL9:
 268:Src/main.c    **** 
 371              		.loc 1 268 1 view .LVU119
 372              		@ sp needed
 373 002e 10BD     		pop	{r4, pc}
 374              	.L9:
 375              		.align	2
 376              	.L8:
 377 0030 00000000 		.word	hspi1
 378 0034 00300140 		.word	1073819648
 379              		.cfi_endproc
 380              	.LFE40:
 382              		.section	.text.MX_SPI2_Init,"ax",%progbits
 383              		.align	1
 384              		.syntax unified
 385              		.code	16
 386              		.thumb_func
 387              		.fpu softvfp
 389              	MX_SPI2_Init:
 390              	.LFB41:
 276:Src/main.c    **** 
 391              		.loc 1 276 1 is_stmt 1 view -0
 392              		.cfi_startproc
 393              		@ args = 0, pretend = 0, frame = 0
 394              		@ frame_needed = 0, uses_anonymous_args = 0
 395 0000 10B5     		push	{r4, lr}
 396              	.LCFI6:
 397              		.cfi_def_cfa_offset 8
 398              		.cfi_offset 4, -8
 399              		.cfi_offset 14, -4
 286:Src/main.c    ****   hspi2.Init.Mode = SPI_MODE_MASTER;
 400              		.loc 1 286 3 view .LVU121
 286:Src/main.c    ****   hspi2.Init.Mode = SPI_MODE_MASTER;
 401              		.loc 1 286 18 is_stmt 0 view .LVU122
 402 0002 0B48     		ldr	r0, .L11
 403 0004 0B4B     		ldr	r3, .L11+4
 404 0006 0360     		str	r3, [r0]
 287:Src/main.c    ****   hspi2.Init.Direction = SPI_DIRECTION_2LINES;
 405              		.loc 1 287 3 is_stmt 1 view .LVU123
 287:Src/main.c    ****   hspi2.Init.Direction = SPI_DIRECTION_2LINES;
 406              		.loc 1 287 19 is_stmt 0 view .LVU124
 407 0008 8223     		movs	r3, #130
 408 000a 5B00     		lsls	r3, r3, #1
 409 000c 4360     		str	r3, [r0, #4]
 288:Src/main.c    ****   hspi2.Init.DataSize = SPI_DATASIZE_8BIT;
 410              		.loc 1 288 3 is_stmt 1 view .LVU125
 288:Src/main.c    ****   hspi2.Init.DataSize = SPI_DATASIZE_8BIT;
 411              		.loc 1 288 24 is_stmt 0 view .LVU126
 412 000e 0023     		movs	r3, #0
 413 0010 8360     		str	r3, [r0, #8]
 289:Src/main.c    ****   hspi2.Init.CLKPolarity = SPI_POLARITY_LOW;
 414              		.loc 1 289 3 is_stmt 1 view .LVU127
 289:Src/main.c    ****   hspi2.Init.CLKPolarity = SPI_POLARITY_LOW;
 415              		.loc 1 289 23 is_stmt 0 view .LVU128
 416 0012 C360     		str	r3, [r0, #12]
 290:Src/main.c    ****   hspi2.Init.CLKPhase = SPI_PHASE_1EDGE;
ARM GAS  /var/folders/jl/lskhb0_j53jf26l9_b8c7ppm0000gn/T//ccwisIEZ.s 			page 17


 417              		.loc 1 290 3 is_stmt 1 view .LVU129
 290:Src/main.c    ****   hspi2.Init.CLKPhase = SPI_PHASE_1EDGE;
 418              		.loc 1 290 26 is_stmt 0 view .LVU130
 419 0014 0361     		str	r3, [r0, #16]
 291:Src/main.c    ****   hspi2.Init.NSS = SPI_NSS_SOFT;
 420              		.loc 1 291 3 is_stmt 1 view .LVU131
 291:Src/main.c    ****   hspi2.Init.NSS = SPI_NSS_SOFT;
 421              		.loc 1 291 23 is_stmt 0 view .LVU132
 422 0016 4361     		str	r3, [r0, #20]
 292:Src/main.c    ****   hspi2.Init.BaudRatePrescaler = SPI_BAUDRATEPRESCALER_2;
 423              		.loc 1 292 3 is_stmt 1 view .LVU133
 292:Src/main.c    ****   hspi2.Init.BaudRatePrescaler = SPI_BAUDRATEPRESCALER_2;
 424              		.loc 1 292 18 is_stmt 0 view .LVU134
 425 0018 8022     		movs	r2, #128
 426 001a 9200     		lsls	r2, r2, #2
 427 001c 8261     		str	r2, [r0, #24]
 293:Src/main.c    ****   hspi2.Init.FirstBit = SPI_FIRSTBIT_MSB;
 428              		.loc 1 293 3 is_stmt 1 view .LVU135
 293:Src/main.c    ****   hspi2.Init.FirstBit = SPI_FIRSTBIT_MSB;
 429              		.loc 1 293 32 is_stmt 0 view .LVU136
 430 001e C361     		str	r3, [r0, #28]
 294:Src/main.c    ****   hspi2.Init.TIMode = SPI_TIMODE_DISABLE;
 431              		.loc 1 294 3 is_stmt 1 view .LVU137
 294:Src/main.c    ****   hspi2.Init.TIMode = SPI_TIMODE_DISABLE;
 432              		.loc 1 294 23 is_stmt 0 view .LVU138
 433 0020 0362     		str	r3, [r0, #32]
 295:Src/main.c    ****   hspi2.Init.CRCCalculation = SPI_CRCCALCULATION_DISABLE;
 434              		.loc 1 295 3 is_stmt 1 view .LVU139
 295:Src/main.c    ****   hspi2.Init.CRCCalculation = SPI_CRCCALCULATION_DISABLE;
 435              		.loc 1 295 21 is_stmt 0 view .LVU140
 436 0022 4362     		str	r3, [r0, #36]
 296:Src/main.c    ****   hspi2.Init.CRCPolynomial = 7;
 437              		.loc 1 296 3 is_stmt 1 view .LVU141
 296:Src/main.c    ****   hspi2.Init.CRCPolynomial = 7;
 438              		.loc 1 296 29 is_stmt 0 view .LVU142
 439 0024 8362     		str	r3, [r0, #40]
 297:Src/main.c    ****   if (HAL_SPI_Init(&hspi2) != HAL_OK)
 440              		.loc 1 297 3 is_stmt 1 view .LVU143
 297:Src/main.c    ****   if (HAL_SPI_Init(&hspi2) != HAL_OK)
 441              		.loc 1 297 28 is_stmt 0 view .LVU144
 442 0026 0733     		adds	r3, r3, #7
 443 0028 C362     		str	r3, [r0, #44]
 298:Src/main.c    ****   {
 444              		.loc 1 298 3 is_stmt 1 view .LVU145
 298:Src/main.c    ****   {
 445              		.loc 1 298 7 is_stmt 0 view .LVU146
 446 002a FFF7FEFF 		bl	HAL_SPI_Init
 447              	.LVL10:
 306:Src/main.c    **** 
 448              		.loc 1 306 1 view .LVU147
 449              		@ sp needed
 450 002e 10BD     		pop	{r4, pc}
 451              	.L12:
 452              		.align	2
 453              	.L11:
 454 0030 00000000 		.word	hspi2
 455 0034 00380040 		.word	1073756160
ARM GAS  /var/folders/jl/lskhb0_j53jf26l9_b8c7ppm0000gn/T//ccwisIEZ.s 			page 18


 456              		.cfi_endproc
 457              	.LFE41:
 459              		.section	.text.MX_USART1_UART_Init,"ax",%progbits
 460              		.align	1
 461              		.syntax unified
 462              		.code	16
 463              		.thumb_func
 464              		.fpu softvfp
 466              	MX_USART1_UART_Init:
 467              	.LFB42:
 314:Src/main.c    **** 
 468              		.loc 1 314 1 is_stmt 1 view -0
 469              		.cfi_startproc
 470              		@ args = 0, pretend = 0, frame = 0
 471              		@ frame_needed = 0, uses_anonymous_args = 0
 472 0000 10B5     		push	{r4, lr}
 473              	.LCFI7:
 474              		.cfi_def_cfa_offset 8
 475              		.cfi_offset 4, -8
 476              		.cfi_offset 14, -4
 323:Src/main.c    ****   huart1.Init.BaudRate = 115200;
 477              		.loc 1 323 3 view .LVU149
 323:Src/main.c    ****   huart1.Init.BaudRate = 115200;
 478              		.loc 1 323 19 is_stmt 0 view .LVU150
 479 0002 0948     		ldr	r0, .L14
 480 0004 094B     		ldr	r3, .L14+4
 481 0006 0360     		str	r3, [r0]
 324:Src/main.c    ****   huart1.Init.WordLength = UART_WORDLENGTH_8B;
 482              		.loc 1 324 3 is_stmt 1 view .LVU151
 324:Src/main.c    ****   huart1.Init.WordLength = UART_WORDLENGTH_8B;
 483              		.loc 1 324 24 is_stmt 0 view .LVU152
 484 0008 E123     		movs	r3, #225
 485 000a 5B02     		lsls	r3, r3, #9
 486 000c 4360     		str	r3, [r0, #4]
 325:Src/main.c    ****   huart1.Init.StopBits = UART_STOPBITS_1;
 487              		.loc 1 325 3 is_stmt 1 view .LVU153
 325:Src/main.c    ****   huart1.Init.StopBits = UART_STOPBITS_1;
 488              		.loc 1 325 26 is_stmt 0 view .LVU154
 489 000e 0023     		movs	r3, #0
 490 0010 8360     		str	r3, [r0, #8]
 326:Src/main.c    ****   huart1.Init.Parity = UART_PARITY_NONE;
 491              		.loc 1 326 3 is_stmt 1 view .LVU155
 326:Src/main.c    ****   huart1.Init.Parity = UART_PARITY_NONE;
 492              		.loc 1 326 24 is_stmt 0 view .LVU156
 493 0012 C360     		str	r3, [r0, #12]
 327:Src/main.c    ****   huart1.Init.Mode = UART_MODE_TX_RX;
 494              		.loc 1 327 3 is_stmt 1 view .LVU157
 327:Src/main.c    ****   huart1.Init.Mode = UART_MODE_TX_RX;
 495              		.loc 1 327 22 is_stmt 0 view .LVU158
 496 0014 0361     		str	r3, [r0, #16]
 328:Src/main.c    ****   huart1.Init.HwFlowCtl = UART_HWCONTROL_NONE;
 497              		.loc 1 328 3 is_stmt 1 view .LVU159
 328:Src/main.c    ****   huart1.Init.HwFlowCtl = UART_HWCONTROL_NONE;
 498              		.loc 1 328 20 is_stmt 0 view .LVU160
 499 0016 0C22     		movs	r2, #12
 500 0018 4261     		str	r2, [r0, #20]
 329:Src/main.c    ****   huart1.Init.OverSampling = UART_OVERSAMPLING_16;
ARM GAS  /var/folders/jl/lskhb0_j53jf26l9_b8c7ppm0000gn/T//ccwisIEZ.s 			page 19


 501              		.loc 1 329 3 is_stmt 1 view .LVU161
 329:Src/main.c    ****   huart1.Init.OverSampling = UART_OVERSAMPLING_16;
 502              		.loc 1 329 25 is_stmt 0 view .LVU162
 503 001a 8361     		str	r3, [r0, #24]
 330:Src/main.c    ****   huart1.Init.OneBitSampling = UART_ONE_BIT_SAMPLE_DISABLE;
 504              		.loc 1 330 3 is_stmt 1 view .LVU163
 330:Src/main.c    ****   huart1.Init.OneBitSampling = UART_ONE_BIT_SAMPLE_DISABLE;
 505              		.loc 1 330 28 is_stmt 0 view .LVU164
 506 001c C361     		str	r3, [r0, #28]
 331:Src/main.c    ****   huart1.AdvancedInit.AdvFeatureInit = UART_ADVFEATURE_NO_INIT;
 507              		.loc 1 331 3 is_stmt 1 view .LVU165
 331:Src/main.c    ****   huart1.AdvancedInit.AdvFeatureInit = UART_ADVFEATURE_NO_INIT;
 508              		.loc 1 331 30 is_stmt 0 view .LVU166
 509 001e 0362     		str	r3, [r0, #32]
 332:Src/main.c    ****   if (HAL_UART_Init(&huart1) != HAL_OK)
 510              		.loc 1 332 3 is_stmt 1 view .LVU167
 332:Src/main.c    ****   if (HAL_UART_Init(&huart1) != HAL_OK)
 511              		.loc 1 332 38 is_stmt 0 view .LVU168
 512 0020 4362     		str	r3, [r0, #36]
 333:Src/main.c    ****   {
 513              		.loc 1 333 3 is_stmt 1 view .LVU169
 333:Src/main.c    ****   {
 514              		.loc 1 333 7 is_stmt 0 view .LVU170
 515 0022 FFF7FEFF 		bl	HAL_UART_Init
 516              	.LVL11:
 341:Src/main.c    **** 
 517              		.loc 1 341 1 view .LVU171
 518              		@ sp needed
 519 0026 10BD     		pop	{r4, pc}
 520              	.L15:
 521              		.align	2
 522              	.L14:
 523 0028 00000000 		.word	huart1
 524 002c 00380140 		.word	1073821696
 525              		.cfi_endproc
 526              	.LFE42:
 528              		.section	.text.MX_USART2_UART_Init,"ax",%progbits
 529              		.align	1
 530              		.syntax unified
 531              		.code	16
 532              		.thumb_func
 533              		.fpu softvfp
 535              	MX_USART2_UART_Init:
 536              	.LFB43:
 349:Src/main.c    **** 
 537              		.loc 1 349 1 is_stmt 1 view -0
 538              		.cfi_startproc
 539              		@ args = 0, pretend = 0, frame = 0
 540              		@ frame_needed = 0, uses_anonymous_args = 0
 541 0000 10B5     		push	{r4, lr}
 542              	.LCFI8:
 543              		.cfi_def_cfa_offset 8
 544              		.cfi_offset 4, -8
 545              		.cfi_offset 14, -4
 358:Src/main.c    ****   huart2.Init.BaudRate = 115200;
 546              		.loc 1 358 3 view .LVU173
 358:Src/main.c    ****   huart2.Init.BaudRate = 115200;
ARM GAS  /var/folders/jl/lskhb0_j53jf26l9_b8c7ppm0000gn/T//ccwisIEZ.s 			page 20


 547              		.loc 1 358 19 is_stmt 0 view .LVU174
 548 0002 0948     		ldr	r0, .L17
 549 0004 094B     		ldr	r3, .L17+4
 550 0006 0360     		str	r3, [r0]
 359:Src/main.c    ****   huart2.Init.WordLength = UART_WORDLENGTH_8B;
 551              		.loc 1 359 3 is_stmt 1 view .LVU175
 359:Src/main.c    ****   huart2.Init.WordLength = UART_WORDLENGTH_8B;
 552              		.loc 1 359 24 is_stmt 0 view .LVU176
 553 0008 E123     		movs	r3, #225
 554 000a 5B02     		lsls	r3, r3, #9
 555 000c 4360     		str	r3, [r0, #4]
 360:Src/main.c    ****   huart2.Init.StopBits = UART_STOPBITS_1;
 556              		.loc 1 360 3 is_stmt 1 view .LVU177
 360:Src/main.c    ****   huart2.Init.StopBits = UART_STOPBITS_1;
 557              		.loc 1 360 26 is_stmt 0 view .LVU178
 558 000e 0023     		movs	r3, #0
 559 0010 8360     		str	r3, [r0, #8]
 361:Src/main.c    ****   huart2.Init.Parity = UART_PARITY_NONE;
 560              		.loc 1 361 3 is_stmt 1 view .LVU179
 361:Src/main.c    ****   huart2.Init.Parity = UART_PARITY_NONE;
 561              		.loc 1 361 24 is_stmt 0 view .LVU180
 562 0012 C360     		str	r3, [r0, #12]
 362:Src/main.c    ****   huart2.Init.Mode = UART_MODE_TX_RX;
 563              		.loc 1 362 3 is_stmt 1 view .LVU181
 362:Src/main.c    ****   huart2.Init.Mode = UART_MODE_TX_RX;
 564              		.loc 1 362 22 is_stmt 0 view .LVU182
 565 0014 0361     		str	r3, [r0, #16]
 363:Src/main.c    ****   huart2.Init.HwFlowCtl = UART_HWCONTROL_NONE;
 566              		.loc 1 363 3 is_stmt 1 view .LVU183
 363:Src/main.c    ****   huart2.Init.HwFlowCtl = UART_HWCONTROL_NONE;
 567              		.loc 1 363 20 is_stmt 0 view .LVU184
 568 0016 0C22     		movs	r2, #12
 569 0018 4261     		str	r2, [r0, #20]
 364:Src/main.c    ****   huart2.Init.OverSampling = UART_OVERSAMPLING_16;
 570              		.loc 1 364 3 is_stmt 1 view .LVU185
 364:Src/main.c    ****   huart2.Init.OverSampling = UART_OVERSAMPLING_16;
 571              		.loc 1 364 25 is_stmt 0 view .LVU186
 572 001a 8361     		str	r3, [r0, #24]
 365:Src/main.c    ****   huart2.Init.OneBitSampling = UART_ONE_BIT_SAMPLE_DISABLE;
 573              		.loc 1 365 3 is_stmt 1 view .LVU187
 365:Src/main.c    ****   huart2.Init.OneBitSampling = UART_ONE_BIT_SAMPLE_DISABLE;
 574              		.loc 1 365 28 is_stmt 0 view .LVU188
 575 001c C361     		str	r3, [r0, #28]
 366:Src/main.c    ****   huart2.AdvancedInit.AdvFeatureInit = UART_ADVFEATURE_NO_INIT;
 576              		.loc 1 366 3 is_stmt 1 view .LVU189
 366:Src/main.c    ****   huart2.AdvancedInit.AdvFeatureInit = UART_ADVFEATURE_NO_INIT;
 577              		.loc 1 366 30 is_stmt 0 view .LVU190
 578 001e 0362     		str	r3, [r0, #32]
 367:Src/main.c    ****   if (HAL_UART_Init(&huart2) != HAL_OK)
 579              		.loc 1 367 3 is_stmt 1 view .LVU191
 367:Src/main.c    ****   if (HAL_UART_Init(&huart2) != HAL_OK)
 580              		.loc 1 367 38 is_stmt 0 view .LVU192
 581 0020 4362     		str	r3, [r0, #36]
 368:Src/main.c    ****   {
 582              		.loc 1 368 3 is_stmt 1 view .LVU193
 368:Src/main.c    ****   {
 583              		.loc 1 368 7 is_stmt 0 view .LVU194
ARM GAS  /var/folders/jl/lskhb0_j53jf26l9_b8c7ppm0000gn/T//ccwisIEZ.s 			page 21


 584 0022 FFF7FEFF 		bl	HAL_UART_Init
 585              	.LVL12:
 376:Src/main.c    **** 
 586              		.loc 1 376 1 view .LVU195
 587              		@ sp needed
 588 0026 10BD     		pop	{r4, pc}
 589              	.L18:
 590              		.align	2
 591              	.L17:
 592 0028 00000000 		.word	huart2
 593 002c 00440040 		.word	1073759232
 594              		.cfi_endproc
 595              	.LFE43:
 597              		.section	.text.SystemClock_Config,"ax",%progbits
 598              		.align	1
 599              		.global	SystemClock_Config
 600              		.syntax unified
 601              		.code	16
 602              		.thumb_func
 603              		.fpu softvfp
 605              	SystemClock_Config:
 606              	.LFB38:
 128:Src/main.c    ****   RCC_OscInitTypeDef RCC_OscInitStruct = {0};
 607              		.loc 1 128 1 is_stmt 1 view -0
 608              		.cfi_startproc
 609              		@ args = 0, pretend = 0, frame = 112
 610              		@ frame_needed = 0, uses_anonymous_args = 0
 611 0000 30B5     		push	{r4, r5, lr}
 612              	.LCFI9:
 613              		.cfi_def_cfa_offset 12
 614              		.cfi_offset 4, -12
 615              		.cfi_offset 5, -8
 616              		.cfi_offset 14, -4
 617 0002 9DB0     		sub	sp, sp, #116
 618              	.LCFI10:
 619              		.cfi_def_cfa_offset 128
 129:Src/main.c    ****   RCC_ClkInitTypeDef RCC_ClkInitStruct = {0};
 620              		.loc 1 129 3 view .LVU197
 129:Src/main.c    ****   RCC_ClkInitTypeDef RCC_ClkInitStruct = {0};
 621              		.loc 1 129 22 is_stmt 0 view .LVU198
 622 0004 3822     		movs	r2, #56
 623 0006 0021     		movs	r1, #0
 624 0008 0EA8     		add	r0, sp, #56
 625 000a FFF7FEFF 		bl	memset
 626              	.LVL13:
 130:Src/main.c    ****   RCC_PeriphCLKInitTypeDef PeriphClkInit = {0};
 627              		.loc 1 130 3 is_stmt 1 view .LVU199
 130:Src/main.c    ****   RCC_PeriphCLKInitTypeDef PeriphClkInit = {0};
 628              		.loc 1 130 22 is_stmt 0 view .LVU200
 629 000e 1422     		movs	r2, #20
 630 0010 0021     		movs	r1, #0
 631 0012 09A8     		add	r0, sp, #36
 632 0014 FFF7FEFF 		bl	memset
 633              	.LVL14:
 131:Src/main.c    **** 
 634              		.loc 1 131 3 is_stmt 1 view .LVU201
 131:Src/main.c    **** 
ARM GAS  /var/folders/jl/lskhb0_j53jf26l9_b8c7ppm0000gn/T//ccwisIEZ.s 			page 22


 635              		.loc 1 131 28 is_stmt 0 view .LVU202
 636 0018 2022     		movs	r2, #32
 637 001a 0021     		movs	r1, #0
 638 001c 01A8     		add	r0, sp, #4
 639 001e FFF7FEFF 		bl	memset
 640              	.LVL15:
 135:Src/main.c    ****   /** Initializes the CPU, AHB and APB busses clocks 
 641              		.loc 1 135 3 is_stmt 1 view .LVU203
 642 0022 1549     		ldr	r1, .L20
 643 0024 0B68     		ldr	r3, [r1]
 644 0026 154A     		ldr	r2, .L20+4
 645 0028 1A40     		ands	r2, r3
 646 002a 8023     		movs	r3, #128
 647 002c 1B01     		lsls	r3, r3, #4
 648 002e 1343     		orrs	r3, r2
 649 0030 0B60     		str	r3, [r1]
 138:Src/main.c    ****   RCC_OscInitStruct.HSIState = RCC_HSI_ON;
 650              		.loc 1 138 3 view .LVU204
 138:Src/main.c    ****   RCC_OscInitStruct.HSIState = RCC_HSI_ON;
 651              		.loc 1 138 36 is_stmt 0 view .LVU205
 652 0032 2223     		movs	r3, #34
 653 0034 0E93     		str	r3, [sp, #56]
 139:Src/main.c    ****   RCC_OscInitStruct.HSICalibrationValue = RCC_HSICALIBRATION_DEFAULT;
 654              		.loc 1 139 3 is_stmt 1 view .LVU206
 139:Src/main.c    ****   RCC_OscInitStruct.HSICalibrationValue = RCC_HSICALIBRATION_DEFAULT;
 655              		.loc 1 139 30 is_stmt 0 view .LVU207
 656 0036 0125     		movs	r5, #1
 657 0038 1195     		str	r5, [sp, #68]
 140:Src/main.c    ****   RCC_OscInitStruct.HSI48State = RCC_HSI48_ON;
 658              		.loc 1 140 3 is_stmt 1 view .LVU208
 140:Src/main.c    ****   RCC_OscInitStruct.HSI48State = RCC_HSI48_ON;
 659              		.loc 1 140 41 is_stmt 0 view .LVU209
 660 003a 123B     		subs	r3, r3, #18
 661 003c 1293     		str	r3, [sp, #72]
 141:Src/main.c    ****   RCC_OscInitStruct.PLL.PLLState = RCC_PLL_NONE;
 662              		.loc 1 141 3 is_stmt 1 view .LVU210
 141:Src/main.c    ****   RCC_OscInitStruct.PLL.PLLState = RCC_PLL_NONE;
 663              		.loc 1 141 32 is_stmt 0 view .LVU211
 664 003e 1495     		str	r5, [sp, #80]
 142:Src/main.c    ****   if (HAL_RCC_OscConfig(&RCC_OscInitStruct) != HAL_OK)
 665              		.loc 1 142 3 is_stmt 1 view .LVU212
 142:Src/main.c    ****   if (HAL_RCC_OscConfig(&RCC_OscInitStruct) != HAL_OK)
 666              		.loc 1 142 34 is_stmt 0 view .LVU213
 667 0040 0024     		movs	r4, #0
 668 0042 1894     		str	r4, [sp, #96]
 143:Src/main.c    ****   {
 669              		.loc 1 143 3 is_stmt 1 view .LVU214
 143:Src/main.c    ****   {
 670              		.loc 1 143 7 is_stmt 0 view .LVU215
 671 0044 0EA8     		add	r0, sp, #56
 672 0046 FFF7FEFF 		bl	HAL_RCC_OscConfig
 673              	.LVL16:
 149:Src/main.c    ****                               |RCC_CLOCKTYPE_PCLK1|RCC_CLOCKTYPE_PCLK2;
 674              		.loc 1 149 3 is_stmt 1 view .LVU216
 149:Src/main.c    ****                               |RCC_CLOCKTYPE_PCLK1|RCC_CLOCKTYPE_PCLK2;
 675              		.loc 1 149 31 is_stmt 0 view .LVU217
 676 004a 0F23     		movs	r3, #15
ARM GAS  /var/folders/jl/lskhb0_j53jf26l9_b8c7ppm0000gn/T//ccwisIEZ.s 			page 23


 677 004c 0993     		str	r3, [sp, #36]
 151:Src/main.c    ****   RCC_ClkInitStruct.AHBCLKDivider = RCC_SYSCLK_DIV1;
 678              		.loc 1 151 3 is_stmt 1 view .LVU218
 151:Src/main.c    ****   RCC_ClkInitStruct.AHBCLKDivider = RCC_SYSCLK_DIV1;
 679              		.loc 1 151 34 is_stmt 0 view .LVU219
 680 004e 0A95     		str	r5, [sp, #40]
 152:Src/main.c    ****   RCC_ClkInitStruct.APB1CLKDivider = RCC_HCLK_DIV1;
 681              		.loc 1 152 3 is_stmt 1 view .LVU220
 152:Src/main.c    ****   RCC_ClkInitStruct.APB1CLKDivider = RCC_HCLK_DIV1;
 682              		.loc 1 152 35 is_stmt 0 view .LVU221
 683 0050 0B94     		str	r4, [sp, #44]
 153:Src/main.c    ****   RCC_ClkInitStruct.APB2CLKDivider = RCC_HCLK_DIV1;
 684              		.loc 1 153 3 is_stmt 1 view .LVU222
 153:Src/main.c    ****   RCC_ClkInitStruct.APB2CLKDivider = RCC_HCLK_DIV1;
 685              		.loc 1 153 36 is_stmt 0 view .LVU223
 686 0052 0C94     		str	r4, [sp, #48]
 154:Src/main.c    **** 
 687              		.loc 1 154 3 is_stmt 1 view .LVU224
 154:Src/main.c    **** 
 688              		.loc 1 154 36 is_stmt 0 view .LVU225
 689 0054 0D94     		str	r4, [sp, #52]
 156:Src/main.c    ****   {
 690              		.loc 1 156 3 is_stmt 1 view .LVU226
 156:Src/main.c    ****   {
 691              		.loc 1 156 7 is_stmt 0 view .LVU227
 692 0056 0021     		movs	r1, #0
 693 0058 09A8     		add	r0, sp, #36
 694 005a FFF7FEFF 		bl	HAL_RCC_ClockConfig
 695              	.LVL17:
 160:Src/main.c    ****                               |RCC_PERIPHCLK_USB;
 696              		.loc 1 160 3 is_stmt 1 view .LVU228
 160:Src/main.c    ****                               |RCC_PERIPHCLK_USB;
 697              		.loc 1 160 38 is_stmt 0 view .LVU229
 698 005e 4323     		movs	r3, #67
 699 0060 0193     		str	r3, [sp, #4]
 162:Src/main.c    ****   PeriphClkInit.Usart2ClockSelection = RCC_USART2CLKSOURCE_PCLK1;
 700              		.loc 1 162 3 is_stmt 1 view .LVU230
 162:Src/main.c    ****   PeriphClkInit.Usart2ClockSelection = RCC_USART2CLKSOURCE_PCLK1;
 701              		.loc 1 162 38 is_stmt 0 view .LVU231
 702 0062 0394     		str	r4, [sp, #12]
 163:Src/main.c    ****   PeriphClkInit.UsbClockSelection = RCC_USBCLKSOURCE_HSI48;
 703              		.loc 1 163 3 is_stmt 1 view .LVU232
 163:Src/main.c    ****   PeriphClkInit.UsbClockSelection = RCC_USBCLKSOURCE_HSI48;
 704              		.loc 1 163 38 is_stmt 0 view .LVU233
 705 0064 0494     		str	r4, [sp, #16]
 164:Src/main.c    ****   if (HAL_RCCEx_PeriphCLKConfig(&PeriphClkInit) != HAL_OK)
 706              		.loc 1 164 3 is_stmt 1 view .LVU234
 164:Src/main.c    ****   if (HAL_RCCEx_PeriphCLKConfig(&PeriphClkInit) != HAL_OK)
 707              		.loc 1 164 35 is_stmt 0 view .LVU235
 708 0066 8023     		movs	r3, #128
 709 0068 DB04     		lsls	r3, r3, #19
 710 006a 0893     		str	r3, [sp, #32]
 165:Src/main.c    ****   {
 711              		.loc 1 165 3 is_stmt 1 view .LVU236
 165:Src/main.c    ****   {
 712              		.loc 1 165 7 is_stmt 0 view .LVU237
 713 006c 01A8     		add	r0, sp, #4
ARM GAS  /var/folders/jl/lskhb0_j53jf26l9_b8c7ppm0000gn/T//ccwisIEZ.s 			page 24


 714 006e FFF7FEFF 		bl	HAL_RCCEx_PeriphCLKConfig
 715              	.LVL18:
 169:Src/main.c    **** 
 716              		.loc 1 169 1 view .LVU238
 717 0072 1DB0     		add	sp, sp, #116
 718              		@ sp needed
 719 0074 30BD     		pop	{r4, r5, pc}
 720              	.L21:
 721 0076 C046     		.align	2
 722              	.L20:
 723 0078 00700040 		.word	1073770496
 724 007c FFE7FFFF 		.word	-6145
 725              		.cfi_endproc
 726              	.LFE38:
 728              		.section	.text.main,"ax",%progbits
 729              		.align	1
 730              		.global	main
 731              		.syntax unified
 732              		.code	16
 733              		.thumb_func
 734              		.fpu softvfp
 736              	main:
 737              	.LFB37:
  79:Src/main.c    ****   /* USER CODE BEGIN 1 */
 738              		.loc 1 79 1 is_stmt 1 view -0
 739              		.cfi_startproc
 740              		@ Volatile: function does not return.
 741              		@ args = 0, pretend = 0, frame = 0
 742              		@ frame_needed = 0, uses_anonymous_args = 0
 743 0000 10B5     		push	{r4, lr}
 744              	.LCFI11:
 745              		.cfi_def_cfa_offset 8
 746              		.cfi_offset 4, -8
 747              		.cfi_offset 14, -4
  87:Src/main.c    **** 
 748              		.loc 1 87 3 view .LVU240
 749 0002 FFF7FEFF 		bl	HAL_Init
 750              	.LVL19:
  94:Src/main.c    **** 
 751              		.loc 1 94 3 view .LVU241
 752 0006 FFF7FEFF 		bl	SystemClock_Config
 753              	.LVL20:
 101:Src/main.c    ****   MX_ADC_Init();
 754              		.loc 1 101 3 view .LVU242
 755 000a FFF7FEFF 		bl	MX_GPIO_Init
 756              	.LVL21:
 102:Src/main.c    ****   MX_SPI1_Init();
 757              		.loc 1 102 3 view .LVU243
 758 000e FFF7FEFF 		bl	MX_ADC_Init
 759              	.LVL22:
 103:Src/main.c    ****   MX_SPI2_Init();
 760              		.loc 1 103 3 view .LVU244
 761 0012 FFF7FEFF 		bl	MX_SPI1_Init
 762              	.LVL23:
 104:Src/main.c    ****   MX_USART1_UART_Init();
 763              		.loc 1 104 3 view .LVU245
 764 0016 FFF7FEFF 		bl	MX_SPI2_Init
ARM GAS  /var/folders/jl/lskhb0_j53jf26l9_b8c7ppm0000gn/T//ccwisIEZ.s 			page 25


 765              	.LVL24:
 105:Src/main.c    ****   MX_USART2_UART_Init();
 766              		.loc 1 105 3 view .LVU246
 767 001a FFF7FEFF 		bl	MX_USART1_UART_Init
 768              	.LVL25:
 106:Src/main.c    ****   MX_USB_DEVICE_Init();
 769              		.loc 1 106 3 view .LVU247
 770 001e FFF7FEFF 		bl	MX_USART2_UART_Init
 771              	.LVL26:
 107:Src/main.c    ****   /* USER CODE BEGIN 2 */
 772              		.loc 1 107 3 view .LVU248
 773 0022 FFF7FEFF 		bl	MX_USB_DEVICE_Init
 774              	.LVL27:
 775              	.L23:
 114:Src/main.c    ****   {
 776              		.loc 1 114 3 discriminator 1 view .LVU249
 119:Src/main.c    ****   /* USER CODE END 3 */
 777              		.loc 1 119 3 discriminator 1 view .LVU250
 114:Src/main.c    ****   {
 778              		.loc 1 114 9 discriminator 1 view .LVU251
 779 0026 FEE7     		b	.L23
 780              		.cfi_endproc
 781              	.LFE37:
 783              		.section	.text.Error_Handler,"ax",%progbits
 784              		.align	1
 785              		.global	Error_Handler
 786              		.syntax unified
 787              		.code	16
 788              		.thumb_func
 789              		.fpu softvfp
 791              	Error_Handler:
 792              	.LFB45:
 416:Src/main.c    **** 
 417:Src/main.c    **** /* USER CODE BEGIN 4 */
 418:Src/main.c    **** 
 419:Src/main.c    **** /* USER CODE END 4 */
 420:Src/main.c    **** 
 421:Src/main.c    **** /**
 422:Src/main.c    ****   * @brief  This function is executed in case of error occurrence.
 423:Src/main.c    ****   * @retval None
 424:Src/main.c    ****   */
 425:Src/main.c    **** void Error_Handler(void)
 426:Src/main.c    **** {
 793              		.loc 1 426 1 view -0
 794              		.cfi_startproc
 795              		@ args = 0, pretend = 0, frame = 0
 796              		@ frame_needed = 0, uses_anonymous_args = 0
 797              		@ link register save eliminated.
 427:Src/main.c    ****   /* USER CODE BEGIN Error_Handler_Debug */
 428:Src/main.c    ****   /* User can add his own implementation to report the HAL error return state */
 429:Src/main.c    **** 
 430:Src/main.c    ****   /* USER CODE END Error_Handler_Debug */
 431:Src/main.c    **** }
 798              		.loc 1 431 1 view .LVU253
 799              		@ sp needed
 800 0000 7047     		bx	lr
 801              		.cfi_endproc
ARM GAS  /var/folders/jl/lskhb0_j53jf26l9_b8c7ppm0000gn/T//ccwisIEZ.s 			page 26


 802              	.LFE45:
 804              		.comm	huart2,128,4
 805              		.comm	huart1,128,4
 806              		.comm	hspi2,88,4
 807              		.comm	hspi1,88,4
 808              		.comm	hadc,92,4
 809              		.text
 810              	.Letext0:
 811              		.file 2 "/usr/local/Cellar/arm-gcc-bin/9-2019-q4-major/arm-none-eabi/include/machine/_default_type
 812              		.file 3 "/usr/local/Cellar/arm-gcc-bin/9-2019-q4-major/arm-none-eabi/include/sys/_stdint.h"
 813              		.file 4 "Drivers/CMSIS/Device/ST/STM32L0xx/Include/system_stm32l0xx.h"
 814              		.file 5 "Drivers/CMSIS/Device/ST/STM32L0xx/Include/stm32l052xx.h"
 815              		.file 6 "Drivers/CMSIS/Device/ST/STM32L0xx/Include/stm32l0xx.h"
 816              		.file 7 "Drivers/STM32L0xx_HAL_Driver/Inc/stm32l0xx_hal_def.h"
 817              		.file 8 "Drivers/STM32L0xx_HAL_Driver/Inc/stm32l0xx_hal_rcc.h"
 818              		.file 9 "Drivers/STM32L0xx_HAL_Driver/Inc/stm32l0xx_hal_rcc_ex.h"
 819              		.file 10 "Drivers/STM32L0xx_HAL_Driver/Inc/stm32l0xx_hal_gpio.h"
 820              		.file 11 "Drivers/STM32L0xx_HAL_Driver/Inc/stm32l0xx_hal_dma.h"
 821              		.file 12 "Drivers/STM32L0xx_HAL_Driver/Inc/stm32l0xx_hal_adc.h"
 822              		.file 13 "Drivers/STM32L0xx_HAL_Driver/Inc/stm32l0xx_hal_spi.h"
 823              		.file 14 "Drivers/STM32L0xx_HAL_Driver/Inc/stm32l0xx_hal_uart.h"
 824              		.file 15 "Drivers/STM32L0xx_HAL_Driver/Inc/stm32l0xx_hal.h"
 825              		.file 16 "/usr/local/Cellar/arm-gcc-bin/9-2019-q4-major/arm-none-eabi/include/sys/lock.h"
 826              		.file 17 "/usr/local/Cellar/arm-gcc-bin/9-2019-q4-major/arm-none-eabi/include/sys/_types.h"
 827              		.file 18 "/usr/local/Cellar/arm-gcc-bin/9-2019-q4-major/lib/gcc/arm-none-eabi/9.2.1/include/stddef
 828              		.file 19 "/usr/local/Cellar/arm-gcc-bin/9-2019-q4-major/arm-none-eabi/include/sys/reent.h"
 829              		.file 20 "/usr/local/Cellar/arm-gcc-bin/9-2019-q4-major/arm-none-eabi/include/stdlib.h"
 830              		.file 21 "Inc/usb_device.h"
 831              		.file 22 "<built-in>"
ARM GAS  /var/folders/jl/lskhb0_j53jf26l9_b8c7ppm0000gn/T//ccwisIEZ.s 			page 27

